
 Start                 Length     Name                   Class
 0001:0000000000401000 0003A9FCH .text                   CODE
 0002:000000000043C000 00005608H .data                   DATA
 0003:0000000000442000 00000134H .bss                    BSS
 0004:0000000000400000 00000000H .tls                    TLS
 0005:0000000000472000 00003BE8H .pdata                  PDATA


Detailed map of segments

 0001:00000000 00000468 C=CODE     S=.text    G=(none)   M=System   ALIGN=4
 0001:00000468 000018C8 C=CODE     S=.text    G=(none)   M=SysInit  ALIGN=4
 0001:00001D30 00000018 C=CODE     S=.text    G=(none)   M=System.Types ALIGN=4
 0001:00001D48 00000020 C=CODE     S=.text    G=(none)   M=System.UITypes ALIGN=4
 0001:00001D68 000003F4 C=CODE     S=.text    G=(none)   M=Winapi.Windows ALIGN=4
 0001:0000215C 0000001C C=CODE     S=.text    G=(none)   M=System.SysConst ALIGN=4
 0001:00002178 00000020 C=CODE     S=.text    G=(none)   M=Winapi.ImageHlp ALIGN=4
 0001:00002198 00000020 C=CODE     S=.text    G=(none)   M=Winapi.SHFolder ALIGN=4
 0001:000021B8 00000058 C=CODE     S=.text    G=(none)   M=Winapi.PsAPI ALIGN=4
 0001:00002210 00000018 C=CODE     S=.text    G=(none)   M=System.RTLConsts ALIGN=4
 0001:00002228 00000020 C=CODE     S=.text    G=(none)   M=System.Character ALIGN=4
 0001:00002248 00000020 C=CODE     S=.text    G=(none)   M=System.Internal.ExcUtils ALIGN=4
 0001:00002268 00000200 C=CODE     S=.text    G=(none)   M=System.SysUtils ALIGN=4
 0001:00002468 00000028 C=CODE     S=.text    G=(none)   M=Winapi.Messages ALIGN=4
 0001:00002490 00000018 C=CODE     S=.text    G=(none)   M=System.VarUtils ALIGN=4
 0001:000024A8 00000020 C=CODE     S=.text    G=(none)   M=System.Variants ALIGN=4
 0001:000024C8 00000028 C=CODE     S=.text    G=(none)   M=Winapi.ActiveX ALIGN=4
 0001:000024F0 00000018 C=CODE     S=.text    G=(none)   M=System.TypInfo ALIGN=4
 0001:00002508 00000020 C=CODE     S=.text    G=(none)   M=System.Hash ALIGN=4
 0001:00002528 00000020 C=CODE     S=.text    G=(none)   M=System.Math ALIGN=4
 0001:00002548 00000070 C=CODE     S=.text    G=(none)   M=System.Generics.Defaults ALIGN=4
 0001:000025B8 000003B0 C=CODE     S=.text    G=(none)   M=System.Generics.Collections ALIGN=4
 0001:00002968 00000060 C=CODE     S=.text    G=(none)   M=System.Rtti ALIGN=4
 0001:000029C8 00000040 C=CODE     S=.text    G=(none)   M=System.TimeSpan ALIGN=4
 0001:00002A08 00000020 C=CODE     S=.text    G=(none)   M=System.Diagnostics ALIGN=4
 0001:00002A28 000001A0 C=CODE     S=.text    G=(none)   M=System.Classes ALIGN=4
 0001:00002BC8 00000028 C=CODE     S=.text    G=(none)   M=StrList  ALIGN=4
 0001:00002BF0 00000020 C=CODE     S=.text    G=(none)   M=Winapi.WinSock ALIGN=4
 0001:00002C10 00000048 C=CODE     S=.text    G=(none)   M=superobject ALIGN=4
 0001:00002C58 00000020 C=CODE     S=.text    G=(none)   M=System.SyncObjs ALIGN=4
 0001:00002C78 00000020 C=CODE     S=.text    G=(none)   M=Winapi.Wincodec ALIGN=4
 0001:00002C98 00000028 C=CODE     S=.text    G=(none)   M=Winapi.CommCtrl ALIGN=4
 0001:00002CC0 00000020 C=CODE     S=.text    G=(none)   M=Winapi.Qos ALIGN=4
 0001:00002CE0 00000020 C=CODE     S=.text    G=(none)   M=Winapi.Winsock2 ALIGN=4
 0001:00002D00 00000020 C=CODE     S=.text    G=(none)   M=Winapi.IpExport ALIGN=4
 0001:00002D20 00000020 C=CODE     S=.text    G=(none)   M=Winapi.ShellAPI ALIGN=4
 0001:00002D40 00000020 C=CODE     S=.text    G=(none)   M=Winapi.RegStr ALIGN=4
 0001:00002D60 00000020 C=CODE     S=.text    G=(none)   M=Winapi.WinInet ALIGN=4
 0001:00002D80 00000020 C=CODE     S=.text    G=(none)   M=Winapi.UrlMon ALIGN=4
 0001:00002DA0 00000020 C=CODE     S=.text    G=(none)   M=Winapi.ObjectArray ALIGN=4
 0001:00002DC0 00000020 C=CODE     S=.text    G=(none)   M=Winapi.StructuredQueryCondition ALIGN=4
 0001:00002DE0 00000020 C=CODE     S=.text    G=(none)   M=Winapi.PropSys ALIGN=4
 0001:00002E00 00000018 C=CODE     S=.text    G=(none)   M=Winapi.MSXMLIntf ALIGN=4
 0001:00002E18 00000028 C=CODE     S=.text    G=(none)   M=Winapi.ShlObj ALIGN=4
 0001:00002E40 00000020 C=CODE     S=.text    G=(none)   M=Winapi.KnownFolders ALIGN=4
 0001:00002E60 00000018 C=CODE     S=.text    G=(none)   M=System.Masks ALIGN=4
 0001:00002E78 00000030 C=CODE     S=.text    G=(none)   M=System.StrUtils ALIGN=4
 0001:00002EA8 00000040 C=CODE     S=.text    G=(none)   M=System.DateUtils ALIGN=4
 0001:00002EE8 00000040 C=CODE     S=.text    G=(none)   M=System.IOUtils ALIGN=4
 0001:00002F28 00000020 C=CODE     S=.text    G=(none)   M=System.IniFiles ALIGN=4
 0001:00002F48 00000040 C=CODE     S=.text    G=(none)   M=System.Win.Registry ALIGN=4
 0001:00002F88 00000020 C=CODE     S=.text    G=(none)   M=System.UIConsts ALIGN=4
 0001:00002FA8 00000020 C=CODE     S=.text    G=(none)   M=Vcl.Consts ALIGN=4
 0001:00002FC8 00000040 C=CODE     S=.text    G=(none)   M=Vcl.Graphics ALIGN=4
 0001:00003008 00000020 C=CODE     S=.text    G=(none)   M=Winapi.MultiMon ALIGN=4
 0001:00003028 00000020 C=CODE     S=.text    G=(none)   M=System.Contnrs ALIGN=4
 0001:00003048 00000020 C=CODE     S=.text    G=(none)   M=System.ImageList ALIGN=4
 0001:00003068 00000040 C=CODE     S=.text    G=(none)   M=System.Messaging ALIGN=4
 0001:000030A8 00000020 C=CODE     S=.text    G=(none)   M=System.Actions ALIGN=4
 0001:000030C8 00000028 C=CODE     S=.text    G=(none)   M=Winapi.Imm ALIGN=4
 0001:000030F0 00000018 C=CODE     S=.text    G=(none)   M=Vcl.ActnList ALIGN=4
 0001:00003108 00000020 C=CODE     S=.text    G=(none)   M=System.HelpIntfs ALIGN=4
 0001:00003128 00000020 C=CODE     S=.text    G=(none)   M=Winapi.UxTheme ALIGN=4
 0001:00003148 00000028 C=CODE     S=.text    G=(none)   M=Winapi.Dwmapi ALIGN=4
 0001:00003170 00000020 C=CODE     S=.text    G=(none)   M=System.Win.Crtl ALIGN=4
 0001:00003190 00000018 C=CODE     S=.text    G=(none)   M=System.ZLib ALIGN=4
 0001:000031A8 00000020 C=CODE     S=.text    G=(none)   M=Vcl.GraphUtil ALIGN=4
 0001:000031C8 00000260 C=CODE     S=.text    G=(none)   M=Vcl.StdCtrls ALIGN=4
 0001:00003428 00000020 C=CODE     S=.text    G=(none)   M=System.MaskUtils ALIGN=4
 0001:00003448 00000020 C=CODE     S=.text    G=(none)   M=Vcl.Clipbrd ALIGN=4
 0001:00003468 00000020 C=CODE     S=.text    G=(none)   M=Vcl.Mask ALIGN=4
 0001:00003488 00000028 C=CODE     S=.text    G=(none)   M=Winapi.CommDlg ALIGN=4
 0001:000034B0 00000020 C=CODE     S=.text    G=(none)   M=Winapi.WinSpool ALIGN=4
 0001:000034D0 00000018 C=CODE     S=.text    G=(none)   M=Vcl.Printers ALIGN=4
 0001:000034E8 00000028 C=CODE     S=.text    G=(none)   M=Winapi.RichEdit ALIGN=4
 0001:00003510 00000018 C=CODE     S=.text    G=(none)   M=Vcl.ToolWin ALIGN=4
 0001:00003528 00000020 C=CODE     S=.text    G=(none)   M=Vcl.ListActns ALIGN=4
 0001:00003548 00000020 C=CODE     S=.text    G=(none)   M=Vcl.ComStrs ALIGN=4
 0001:00003568 00000020 C=CODE     S=.text    G=(none)   M=Vcl.StdActns ALIGN=4
 0001:00003588 00000320 C=CODE     S=.text    G=(none)   M=Vcl.ComCtrls ALIGN=4
 0001:000038A8 00000020 C=CODE     S=.text    G=(none)   M=System.WideStrUtils ALIGN=4
 0001:000038C8 00000028 C=CODE     S=.text    G=(none)   M=Winapi.Dlgs ALIGN=4
 0001:000038F0 00000018 C=CODE     S=.text    G=(none)   M=Vcl.Dialogs ALIGN=4
 0001:00003908 000000C0 C=CODE     S=.text    G=(none)   M=Vcl.ExtCtrls ALIGN=4
 0001:000039C8 00000060 C=CODE     S=.text    G=(none)   M=Vcl.Themes ALIGN=4
 0001:00003A28 00000020 C=CODE     S=.text    G=(none)   M=System.AnsiStrings ALIGN=4
 0001:00003A48 00000020 C=CODE     S=.text    G=(none)   M=System.Win.ComConst ALIGN=4
 0001:00003A68 00000040 C=CODE     S=.text    G=(none)   M=System.Win.ComObj ALIGN=4
 0001:00003AA8 00000020 C=CODE     S=.text    G=(none)   M=System.Win.Taskbar ALIGN=4
 0001:00003AC8 00000020 C=CODE     S=.text    G=(none)   M=System.Win.TaskbarCore ALIGN=4
 0001:00003AE8 00000028 C=CODE     S=.text    G=(none)   M=Winapi.ShellScaling ALIGN=4
 0001:00003B10 00000018 C=CODE     S=.text    G=(none)   M=Winapi.FlatSB ALIGN=4
 0001:00003B28 00000080 C=CODE     S=.text    G=(none)   M=Vcl.Forms ALIGN=4
 0001:00003BA8 00000020 C=CODE     S=.text    G=(none)   M=Vcl.ImgList ALIGN=4
 0001:00003BC8 00000020 C=CODE     S=.text    G=(none)   M=Vcl.Menus ALIGN=4
 0001:00003BE8 00000028 C=CODE     S=.text    G=(none)   M=Winapi.TpcShrd ALIGN=4
 0001:00003C10 000000B0 C=CODE     S=.text    G=(none)   M=Winapi.MsCTF ALIGN=4
 0001:00003CC0 00000020 C=CODE     S=.text    G=(none)   M=Winapi.MsInkAut ALIGN=4
 0001:00003CE0 00000020 C=CODE     S=.text    G=(none)   M=Winapi.PenInputPanel ALIGN=4
 0001:00003D00 00000018 C=CODE     S=.text    G=(none)   M=Vcl.Controls ALIGN=4
 0001:00003D18 00000020 C=CODE     S=.text    G=(none)   M=Vcl.Imaging.pnglang ALIGN=4
 0001:00003D38 00000020 C=CODE     S=.text    G=(none)   M=Vcl.Imaging.pngimage ALIGN=4
 0001:00003D58 00000020 C=CODE     S=.text    G=(none)   M=System.WideStrings ALIGN=4
 0001:00003D78 00000020 C=CODE     S=.text    G=(none)   M=CSIdException ALIGN=4
 0001:00003D98 00000020 C=CODE     S=.text    G=(none)   M=CSIdResourceStrings ALIGN=4
 0001:00003DB8 00000020 C=CODE     S=.text    G=(none)   M=CSIdStreamVCL ALIGN=4
 0001:00003DD8 00000020 C=CODE     S=.text    G=(none)   M=CSIdStream ALIGN=4
 0001:00003DF8 00000020 C=CODE     S=.text    G=(none)   M=CSIdGlobal ALIGN=4
 0001:00003E18 00000020 C=CODE     S=.text    G=(none)   M=CSIdWinsock2 ALIGN=4
 0001:00003E38 00000020 C=CODE     S=.text    G=(none)   M=CSIdWship6 ALIGN=4
 0001:00003E58 00000020 C=CODE     S=.text    G=(none)   M=CSIdStackConsts ALIGN=4
 0001:00003E78 00000020 C=CODE     S=.text    G=(none)   M=CSIdStackBSDBase ALIGN=4
 0001:00003E98 00000020 C=CODE     S=.text    G=(none)   M=CSIdIDN  ALIGN=4
 0001:00003EB8 00000028 C=CODE     S=.text    G=(none)   M=Winapi.IpTypes ALIGN=4
 0001:00003EE0 00000020 C=CODE     S=.text    G=(none)   M=Winapi.IpRtrMib ALIGN=4
 0001:00003F00 00000020 C=CODE     S=.text    G=(none)   M=Winapi.IpHlpApi ALIGN=4
 0001:00003F20 00000018 C=CODE     S=.text    G=(none)   M=CSIdStackWindows ALIGN=4
 0001:00003F38 00000020 C=CODE     S=.text    G=(none)   M=CSIdStack ALIGN=4
 0001:00003F58 00000020 C=CODE     S=.text    G=(none)   M=CSIdExceptionCore ALIGN=4
 0001:00003F78 00000020 C=CODE     S=.text    G=(none)   M=CSIdBaseComponent ALIGN=4
 0001:00003F98 00000020 C=CODE     S=.text    G=(none)   M=CSIdAntiFreezeBase ALIGN=4
 0001:00003FB8 00000020 C=CODE     S=.text    G=(none)   M=CSIdResourceStringsCore ALIGN=4
 0001:00003FD8 00000020 C=CODE     S=.text    G=(none)   M=CSIdBuffer ALIGN=4
 0001:00003FF8 00000020 C=CODE     S=.text    G=(none)   M=CSIdComponent ALIGN=4
 0001:00004018 00000020 C=CODE     S=.text    G=(none)   M=CSIdIntercept ALIGN=4
 0001:00004038 00000020 C=CODE     S=.text    G=(none)   M=CSIdIOHandler ALIGN=4
 0001:00004058 00000020 C=CODE     S=.text    G=(none)   M=CSIdSocketHandle ALIGN=4
 0001:00004078 00000020 C=CODE     S=.text    G=(none)   M=CSIdCustomTransparentProxy ALIGN=4
 0001:00004098 00000020 C=CODE     S=.text    G=(none)   M=CSIdAssignedNumbers ALIGN=4
 0001:000040B8 00000020 C=CODE     S=.text    G=(none)   M=CSIdIPAddress ALIGN=4
 0001:000040D8 00000020 C=CODE     S=.text    G=(none)   M=CSIdIOHandlerStack ALIGN=4
 0001:000040F8 00000020 C=CODE     S=.text    G=(none)   M=CSIdSocks ALIGN=4
 0001:00004118 00000020 C=CODE     S=.text    G=(none)   M=CSIdIOHandlerSocket ALIGN=4
 0001:00004138 00000020 C=CODE     S=.text    G=(none)   M=CSIdReply ALIGN=4
 0001:00004158 00000020 C=CODE     S=.text    G=(none)   M=CSIdReplyRFC ALIGN=4
 0001:00004178 00000020 C=CODE     S=.text    G=(none)   M=CSIdTCPConnection ALIGN=4
 0001:00004198 00000020 C=CODE     S=.text    G=(none)   M=CSIdTCPClient ALIGN=4
 0001:000041B8 00000020 C=CODE     S=.text    G=(none)   M=CodeSitePlatform ALIGN=4
 0001:000041D8 00000020 C=CODE     S=.text    G=(none)   M=CodeSiteMessage ALIGN=4
 0001:000041F8 00000020 C=CODE     S=.text    G=(none)   M=CodeSiteProfiling ALIGN=4
 0001:00004218 00000030 C=CODE     S=.text    G=(none)   M=CodeSiteLogging ALIGN=4
 0001:00004248 00000020 C=CODE     S=.text    G=(none)   M=sdDebug  ALIGN=4
 0001:00004268 00000020 C=CODE     S=.text    G=(none)   M=sdStreams ALIGN=4
 0001:00004288 00000020 C=CODE     S=.text    G=(none)   M=sdStringTable ALIGN=4
 0001:000042A8 00000020 C=CODE     S=.text    G=(none)   M=NativeXml ALIGN=4
 0001:000042C8 00000020 C=CODE     S=.text    G=(none)   M=System.VarCmplx ALIGN=4
 0001:000042E8 00000020 C=CODE     S=.text    G=(none)   M=System.ConvUtils ALIGN=4
 0001:00004308 00000020 C=CODE     S=.text    G=(none)   M=System.VarConv ALIGN=4
 0001:00004328 00000020 C=CODE     S=.text    G=(none)   M=DispWrap ALIGN=4
 0001:00004348 00000020 C=CODE     S=.text    G=(none)   M=CfgVnt   ALIGN=4
 0001:00004368 00000028 C=CODE     S=.text    G=(none)   M=System.RegularExpressionsAPI ALIGN=4
 0001:00004390 00000018 C=CODE     S=.text    G=(none)   M=System.RegularExpressionsConsts ALIGN=4
 0001:000043A8 00000020 C=CODE     S=.text    G=(none)   M=System.RegularExpressionsCore ALIGN=4
 0001:000043C8 00000020 C=CODE     S=.text    G=(none)   M=System.RegularExpressions ALIGN=4
 0001:000043E8 00000020 C=CODE     S=.text    G=(none)   M=SetupAPI ALIGN=4
 0001:00004408 00000028 C=CODE     S=.text    G=(none)   M=Winapi.WinSvc ALIGN=4
 0001:00004430 00000018 C=CODE     S=.text    G=(none)   M=Sockets2010 ALIGN=4
 0001:00004448 00000020 C=CODE     S=.text    G=(none)   M=uDES     ALIGN=4
 0001:00004468 00000028 C=CODE     S=.text    G=(none)   M=Winapi.TlHelp32 ALIGN=4
 0001:00004490 00000058 C=CODE     S=.text    G=(none)   M=fsLib    ALIGN=4
 0001:000044E8 00000738 C=CODE     S=.text    G=(none)   M=uModuleLib ALIGN=4
 0001:00004C20 00000018 C=CODE     S=.text    G=(none)   M=Common.collections ALIGN=4
 0001:00004C38 00000040 C=CODE     S=.text    G=(none)   M=Common.util ALIGN=4
 0001:00004C78 00000020 C=CODE     S=.text    G=(none)   M=EventBus.Consts ALIGN=4
 0001:00004C98 00000020 C=CODE     S=.text    G=(none)   M=EventBus.Event ALIGN=4
 0001:00004CB8 00000040 C=CODE     S=.text    G=(none)   M=EventBus.Helper ALIGN=4
 0001:00004CF8 00000020 C=CODE     S=.text    G=(none)   M=EventBus.Handler ALIGN=4
 0001:00004D18 00000040 C=CODE     S=.text    G=(none)   M=EventBus.Util ALIGN=4
 0001:00004D58 00000020 C=CODE     S=.text    G=(none)   M=EventBus.Log ALIGN=4
 0001:00004D78 00000020 C=CODE     S=.text    G=(none)   M=EventBus.Core ALIGN=4
 0001:00004D98 00000070 C=CODE     S=.text    G=(none)   M=EventBus.Intf ALIGN=4
 0001:00004E08 00000020 C=CODE     S=.text    G=(none)   M=MVCFramework.beans.factory ALIGN=4
 0001:00004E28 00000020 C=CODE     S=.text    G=(none)   M=MVCFramework.context.event ALIGN=4
 0001:00004E48 00000020 C=CODE     S=.text    G=(none)   M=MVCFramework.core.annotation ALIGN=4
 0001:00004E68 00000020 C=CODE     S=.text    G=(none)   M=MVCFramework.servlet ALIGN=4
 0001:00004E88 00000020 C=CODE     S=.text    G=(none)   M=MVCFramework.stereotype ALIGN=4
 0001:00004EA8 00000020 C=CODE     S=.text    G=(none)   M=MVCFramework.web.bind.annotation ALIGN=4
 0001:00004EC8 00000020 C=CODE     S=.text    G=(none)   M=MVCFramework.util ALIGN=4
 0001:00004EE8 00000020 C=CODE     S=.text    G=(none)   M=fsMUI    ALIGN=4
 0001:00004F08 00000020 C=CODE     S=.text    G=(none)   M=fcIntf   ALIGN=4
 0001:00004F28 00000020 C=CODE     S=.text    G=(none)   M=Vcl.Imaging.JConsts ALIGN=4
 0001:00004F48 00000020 C=CODE     S=.text    G=(none)   M=Vcl.Imaging.jpeg ALIGN=4
 0001:00004F68 00000028 C=CODE     S=.text    G=(none)   M=Winapi.MMSystem ALIGN=4
 0001:00004F90 00000018 C=CODE     S=.text    G=(none)   M=Vcl.Imaging.GIFConsts ALIGN=4
 0001:00004FA8 00000020 C=CODE     S=.text    G=(none)   M=Vcl.Imaging.GIFImg ALIGN=4
 0001:00004FC8 00000020 C=CODE     S=.text    G=(none)   M=uAES     ALIGN=4
 0001:00004FE8 00000020 C=CODE     S=.text    G=(none)   M=BmxCardDef ALIGN=4
 0001:00005008 00000020 C=CODE     S=.text    G=(none)   M=sevenzip ALIGN=4
 0001:00005028 00000020 C=CODE     S=.text    G=(none)   M=fsOEM    ALIGN=4
 0001:00005048 00000020 C=CODE     S=.text    G=(none)   M=fsStrs   ALIGN=4
 0001:00005068 00000020 C=CODE     S=.text    G=(none)   M=fsSettings ALIGN=4
 0001:00005088 00000020 C=CODE     S=.text    G=(none)   M=CADTypes ALIGN=4
 0001:000050A8 00000020 C=CODE     S=.text    G=(none)   M=fsConfig ALIGN=4
 0001:000050C8 00000020 C=CODE     S=.text    G=(none)   M=uThreadDict ALIGN=4
 0001:000050E8 00000020 C=CODE     S=.text    G=(none)   M=IpHlpApi0 ALIGN=4
 0001:00005108 00000020 C=CODE     S=.text    G=(none)   M=fsSocket ALIGN=4
 0001:00005128 00000020 C=CODE     S=.text    G=(none)   M=md5      ALIGN=4
 0001:00005148 00000020 C=CODE     S=.text    G=(none)   M=uDHK     ALIGN=4
 0001:00005168 00000070 C=CODE     S=.text    G=(none)   M=fsApplc  ALIGN=4
 0001:000051D8 00000050 C=CODE     S=.text    G=(none)   M=MVCFramework.context.support ALIGN=4
 0001:00005228 00000020 C=CODE     S=.text    G=(none)   M=MVCFramework.json.util ALIGN=4
 0001:00005248 00000050 C=CODE     S=.text    G=(none)   M=MVCFramework.beans.factory.util ALIGN=4
 0001:00005298 000048E0 C=CODE     S=.text    G=(none)   M=uProcess ALIGN=4
 0001:00009B78 000014B8 C=CODE     S=.text    G=(none)   M=uModuleTemplate ALIGN=4
 0001:0000B030 00015EF0 C=CODE     S=.text    G=(none)   M=context.handlers ALIGN=4
 0001:00020F20 000066E0 C=CODE     S=.text    G=(none)   M=uMessageHandler ALIGN=4
 0001:00027600 00000DF0 C=CODE     S=.text    G=(none)   M=uCustomController ALIGN=4
 0001:000283F0 0000EE68 C=CODE     S=.text    G=(none)   M=uMVCLite ALIGN=4
 0001:00037258 00000F34 C=CODE     S=.text    G=(none)   M=uDefaultApp ALIGN=4
 0001:0003818C 00000604 C=CODE     S=.text    G=(none)   M=uJsonConfig ALIGN=4
 0001:00038790 00000894 C=CODE     S=.text    G=(none)   M=uOEMDisp ALIGN=4
 0001:00039024 000019D8 C=CODE     S=.text    G=(none)   M=.ModuleLib ALIGN=4
 0002:00000000 00000178 C=DATA     S=.data    G=DGROUP   M=SysInit  ALIGN=4
 0002:00000178 00000024 C=DATA     S=.data    G=DGROUP   M=Winapi.Windows ALIGN=4
 0002:0000019C 0000000C C=DATA     S=.data    G=DGROUP   M=Winapi.PsAPI ALIGN=4
 0002:000001A8 00000008 C=DATA     S=.data    G=DGROUP   M=Winapi.Messages ALIGN=4
 0002:000001B0 00000008 C=DATA     S=.data    G=DGROUP   M=Winapi.ActiveX ALIGN=4
 0002:000001B8 00000008 C=DATA     S=.data    G=DGROUP   M=StrList  ALIGN=4
 0002:000001C0 00000008 C=DATA     S=.data    G=DGROUP   M=Winapi.WinSock ALIGN=4
 0002:000001C8 00000008 C=DATA     S=.data    G=DGROUP   M=Winapi.CommCtrl ALIGN=4
 0002:000001D0 00000008 C=DATA     S=.data    G=DGROUP   M=Winapi.Qos ALIGN=4
 0002:000001D8 00000008 C=DATA     S=.data    G=DGROUP   M=Winapi.Winsock2 ALIGN=4
 0002:000001E0 00000008 C=DATA     S=.data    G=DGROUP   M=Winapi.IpExport ALIGN=4
 0002:000001E8 00000008 C=DATA     S=.data    G=DGROUP   M=Winapi.ShellAPI ALIGN=4
 0002:000001F0 00000008 C=DATA     S=.data    G=DGROUP   M=Winapi.RegStr ALIGN=4
 0002:000001F8 00000008 C=DATA     S=.data    G=DGROUP   M=Winapi.WinInet ALIGN=4
 0002:00000200 00000008 C=DATA     S=.data    G=DGROUP   M=Winapi.UrlMon ALIGN=4
 0002:00000208 00000008 C=DATA     S=.data    G=DGROUP   M=Winapi.ObjectArray ALIGN=4
 0002:00000210 00000008 C=DATA     S=.data    G=DGROUP   M=Winapi.StructuredQueryCondition ALIGN=4
 0002:00000218 00000008 C=DATA     S=.data    G=DGROUP   M=Winapi.PropSys ALIGN=4
 0002:00000220 00000008 C=DATA     S=.data    G=DGROUP   M=Winapi.ShlObj ALIGN=4
 0002:00000228 00000008 C=DATA     S=.data    G=DGROUP   M=Winapi.KnownFolders ALIGN=4
 0002:00000230 00000008 C=DATA     S=.data    G=DGROUP   M=Winapi.Imm ALIGN=4
 0002:00000238 00000008 C=DATA     S=.data    G=DGROUP   M=Winapi.Dwmapi ALIGN=4
 0002:00000240 00000008 C=DATA     S=.data    G=DGROUP   M=System.Win.Crtl ALIGN=4
 0002:00000248 00000008 C=DATA     S=.data    G=DGROUP   M=Winapi.CommDlg ALIGN=4
 0002:00000250 00000008 C=DATA     S=.data    G=DGROUP   M=Winapi.WinSpool ALIGN=4
 0002:00000258 00000008 C=DATA     S=.data    G=DGROUP   M=Winapi.RichEdit ALIGN=4
 0002:00000260 00000008 C=DATA     S=.data    G=DGROUP   M=Winapi.Dlgs ALIGN=4
 0002:00000268 00000008 C=DATA     S=.data    G=DGROUP   M=Winapi.ShellScaling ALIGN=4
 0002:00000270 00000008 C=DATA     S=.data    G=DGROUP   M=Winapi.TpcShrd ALIGN=4
 0002:00000278 00000028 C=DATA     S=.data    G=DGROUP   M=Winapi.MsCTF ALIGN=4
 0002:000002A0 00000008 C=DATA     S=.data    G=DGROUP   M=Winapi.MsInkAut ALIGN=4
 0002:000002A8 00000008 C=DATA     S=.data    G=DGROUP   M=Winapi.PenInputPanel ALIGN=4
 0002:000002B0 00000008 C=DATA     S=.data    G=DGROUP   M=Winapi.IpTypes ALIGN=4
 0002:000002B8 00000008 C=DATA     S=.data    G=DGROUP   M=Winapi.IpRtrMib ALIGN=4
 0002:000002C0 00000008 C=DATA     S=.data    G=DGROUP   M=Winapi.IpHlpApi ALIGN=4
 0002:000002C8 00000008 C=DATA     S=.data    G=DGROUP   M=System.RegularExpressionsAPI ALIGN=4
 0002:000002D0 00000008 C=DATA     S=.data    G=DGROUP   M=Winapi.WinSvc ALIGN=4
 0002:000002D8 00000008 C=DATA     S=.data    G=DGROUP   M=Winapi.TlHelp32 ALIGN=4
 0002:000002E0 00000008 C=DATA     S=.data    G=DGROUP   M=uModuleLib ALIGN=4
 0002:000002E8 00000008 C=DATA     S=.data    G=DGROUP   M=Winapi.MMSystem ALIGN=4
 0002:000002F0 00000794 C=DATA     S=.data    G=DGROUP   M=uProcess ALIGN=4
 0002:00000A84 000001AC C=DATA     S=.data    G=DGROUP   M=uModuleTemplate ALIGN=4
 0002:00000C30 00002114 C=DATA     S=.data    G=DGROUP   M=context.handlers ALIGN=4
 0002:00002D44 00000B70 C=DATA     S=.data    G=DGROUP   M=uMessageHandler ALIGN=4
 0002:000038B4 00000104 C=DATA     S=.data    G=DGROUP   M=uCustomController ALIGN=4
 0002:000039B8 000018E8 C=DATA     S=.data    G=DGROUP   M=uMVCLite ALIGN=4
 0002:000052A0 00000124 C=DATA     S=.data    G=DGROUP   M=uDefaultApp ALIGN=4
 0002:000053C4 0000010C C=DATA     S=.data    G=DGROUP   M=uJsonConfig ALIGN=4
 0002:000054D0 000000AC C=DATA     S=.data    G=DGROUP   M=uOEMDisp ALIGN=4
 0003:00000000 00000050 C=BSS      S=.bss     G=DGROUP   M=SysInit  ALIGN=4
 0003:00000050 00000010 C=BSS      S=.bss     G=DGROUP   M=Winapi.Windows ALIGN=4
 0003:00000060 00000010 C=BSS      S=.bss     G=DGROUP   M=Winapi.PsAPI ALIGN=4
 0003:00000070 00000004 C=BSS      S=.bss     G=DGROUP   M=Winapi.Messages ALIGN=4
 0003:00000074 00000004 C=BSS      S=.bss     G=DGROUP   M=Winapi.ActiveX ALIGN=4
 0003:00000078 00000004 C=BSS      S=.bss     G=DGROUP   M=StrList  ALIGN=4
 0003:0000007C 00000004 C=BSS      S=.bss     G=DGROUP   M=Winapi.WinSock ALIGN=4
 0003:00000080 00000004 C=BSS      S=.bss     G=DGROUP   M=Winapi.CommCtrl ALIGN=4
 0003:00000084 00000004 C=BSS      S=.bss     G=DGROUP   M=Winapi.Qos ALIGN=4
 0003:00000088 00000004 C=BSS      S=.bss     G=DGROUP   M=Winapi.Winsock2 ALIGN=4
 0003:0000008C 00000004 C=BSS      S=.bss     G=DGROUP   M=Winapi.IpExport ALIGN=4
 0003:00000090 00000004 C=BSS      S=.bss     G=DGROUP   M=Winapi.ShellAPI ALIGN=4
 0003:00000094 00000004 C=BSS      S=.bss     G=DGROUP   M=Winapi.RegStr ALIGN=4
 0003:00000098 00000004 C=BSS      S=.bss     G=DGROUP   M=Winapi.WinInet ALIGN=4
 0003:0000009C 00000004 C=BSS      S=.bss     G=DGROUP   M=Winapi.UrlMon ALIGN=4
 0003:000000A0 00000004 C=BSS      S=.bss     G=DGROUP   M=Winapi.ObjectArray ALIGN=4
 0003:000000A4 00000004 C=BSS      S=.bss     G=DGROUP   M=Winapi.StructuredQueryCondition ALIGN=4
 0003:000000A8 00000004 C=BSS      S=.bss     G=DGROUP   M=Winapi.PropSys ALIGN=4
 0003:000000AC 00000004 C=BSS      S=.bss     G=DGROUP   M=Winapi.ShlObj ALIGN=4
 0003:000000B0 00000004 C=BSS      S=.bss     G=DGROUP   M=Winapi.KnownFolders ALIGN=4
 0003:000000B4 00000004 C=BSS      S=.bss     G=DGROUP   M=Winapi.Imm ALIGN=4
 0003:000000B8 00000004 C=BSS      S=.bss     G=DGROUP   M=Winapi.Dwmapi ALIGN=4
 0003:000000BC 00000004 C=BSS      S=.bss     G=DGROUP   M=System.Win.Crtl ALIGN=4
 0003:000000C0 00000004 C=BSS      S=.bss     G=DGROUP   M=Winapi.CommDlg ALIGN=4
 0003:000000C4 00000004 C=BSS      S=.bss     G=DGROUP   M=Winapi.WinSpool ALIGN=4
 0003:000000C8 00000004 C=BSS      S=.bss     G=DGROUP   M=Winapi.RichEdit ALIGN=4
 0003:000000CC 00000004 C=BSS      S=.bss     G=DGROUP   M=Winapi.Dlgs ALIGN=4
 0003:000000D0 00000004 C=BSS      S=.bss     G=DGROUP   M=Winapi.ShellScaling ALIGN=4
 0003:000000D4 00000004 C=BSS      S=.bss     G=DGROUP   M=Winapi.TpcShrd ALIGN=4
 0003:000000D8 00000004 C=BSS      S=.bss     G=DGROUP   M=Winapi.MsCTF ALIGN=4
 0003:000000DC 00000004 C=BSS      S=.bss     G=DGROUP   M=Winapi.MsInkAut ALIGN=4
 0003:000000E0 00000004 C=BSS      S=.bss     G=DGROUP   M=Winapi.PenInputPanel ALIGN=4
 0003:000000E4 00000004 C=BSS      S=.bss     G=DGROUP   M=Winapi.IpTypes ALIGN=4
 0003:000000E8 00000004 C=BSS      S=.bss     G=DGROUP   M=Winapi.IpRtrMib ALIGN=4
 0003:000000EC 00000004 C=BSS      S=.bss     G=DGROUP   M=Winapi.IpHlpApi ALIGN=4
 0003:000000F0 00000004 C=BSS      S=.bss     G=DGROUP   M=System.RegularExpressionsAPI ALIGN=4
 0003:000000F4 00000004 C=BSS      S=.bss     G=DGROUP   M=Winapi.WinSvc ALIGN=4
 0003:000000F8 00000004 C=BSS      S=.bss     G=DGROUP   M=Winapi.TlHelp32 ALIGN=4
 0003:000000FC 00000004 C=BSS      S=.bss     G=DGROUP   M=uModuleLib ALIGN=4
 0003:00000100 00000004 C=BSS      S=.bss     G=DGROUP   M=Winapi.MMSystem ALIGN=4
 0003:00000104 00000004 C=BSS      S=.bss     G=DGROUP   M=uProcess ALIGN=4
 0003:00000108 00000004 C=BSS      S=.bss     G=DGROUP   M=uModuleTemplate ALIGN=4
 0003:0000010C 00000004 C=BSS      S=.bss     G=DGROUP   M=context.handlers ALIGN=4
 0003:00000110 00000004 C=BSS      S=.bss     G=DGROUP   M=uMessageHandler ALIGN=4
 0003:00000114 00000004 C=BSS      S=.bss     G=DGROUP   M=uCustomController ALIGN=4
 0003:00000118 00000004 C=BSS      S=.bss     G=DGROUP   M=uMVCLite ALIGN=4
 0003:0000011C 00000004 C=BSS      S=.bss     G=DGROUP   M=uDefaultApp ALIGN=4
 0003:00000120 00000004 C=BSS      S=.bss     G=DGROUP   M=uJsonConfig ALIGN=4
 0003:00000124 00000010 C=BSS      S=.bss     G=DGROUP   M=uOEMDisp ALIGN=4
 0005:00000000 000000FC C=PDATA    S=.pdata   G=(none)   M=SysInit  ALIGN=4
 0005:000000FC 00000024 C=PDATA    S=.pdata   G=(none)   M=Winapi.Windows ALIGN=4
 0005:00000120 00000018 C=PDATA    S=.pdata   G=(none)   M=Winapi.PsAPI ALIGN=4
 0005:00000138 00000018 C=PDATA    S=.pdata   G=(none)   M=Winapi.Messages ALIGN=4
 0005:00000150 00000018 C=PDATA    S=.pdata   G=(none)   M=Winapi.ActiveX ALIGN=4
 0005:00000168 00000018 C=PDATA    S=.pdata   G=(none)   M=StrList  ALIGN=4
 0005:00000180 00000018 C=PDATA    S=.pdata   G=(none)   M=Winapi.WinSock ALIGN=4
 0005:00000198 00000018 C=PDATA    S=.pdata   G=(none)   M=Winapi.CommCtrl ALIGN=4
 0005:000001B0 00000018 C=PDATA    S=.pdata   G=(none)   M=Winapi.Qos ALIGN=4
 0005:000001C8 00000018 C=PDATA    S=.pdata   G=(none)   M=Winapi.Winsock2 ALIGN=4
 0005:000001E0 00000018 C=PDATA    S=.pdata   G=(none)   M=Winapi.IpExport ALIGN=4
 0005:000001F8 00000018 C=PDATA    S=.pdata   G=(none)   M=Winapi.ShellAPI ALIGN=4
 0005:00000210 00000018 C=PDATA    S=.pdata   G=(none)   M=Winapi.RegStr ALIGN=4
 0005:00000228 00000018 C=PDATA    S=.pdata   G=(none)   M=Winapi.WinInet ALIGN=4
 0005:00000240 00000018 C=PDATA    S=.pdata   G=(none)   M=Winapi.UrlMon ALIGN=4
 0005:00000258 00000018 C=PDATA    S=.pdata   G=(none)   M=Winapi.ObjectArray ALIGN=4
 0005:00000270 00000018 C=PDATA    S=.pdata   G=(none)   M=Winapi.StructuredQueryCondition ALIGN=4
 0005:00000288 00000018 C=PDATA    S=.pdata   G=(none)   M=Winapi.PropSys ALIGN=4
 0005:000002A0 00000018 C=PDATA    S=.pdata   G=(none)   M=Winapi.ShlObj ALIGN=4
 0005:000002B8 00000018 C=PDATA    S=.pdata   G=(none)   M=Winapi.KnownFolders ALIGN=4
 0005:000002D0 00000018 C=PDATA    S=.pdata   G=(none)   M=Winapi.Imm ALIGN=4
 0005:000002E8 00000018 C=PDATA    S=.pdata   G=(none)   M=Winapi.Dwmapi ALIGN=4
 0005:00000300 00000018 C=PDATA    S=.pdata   G=(none)   M=System.Win.Crtl ALIGN=4
 0005:00000318 00000018 C=PDATA    S=.pdata   G=(none)   M=Winapi.CommDlg ALIGN=4
 0005:00000330 00000018 C=PDATA    S=.pdata   G=(none)   M=Winapi.WinSpool ALIGN=4
 0005:00000348 00000018 C=PDATA    S=.pdata   G=(none)   M=Winapi.RichEdit ALIGN=4
 0005:00000360 00000018 C=PDATA    S=.pdata   G=(none)   M=Winapi.Dlgs ALIGN=4
 0005:00000378 00000018 C=PDATA    S=.pdata   G=(none)   M=Winapi.ShellScaling ALIGN=4
 0005:00000390 00000018 C=PDATA    S=.pdata   G=(none)   M=Winapi.TpcShrd ALIGN=4
 0005:000003A8 00000030 C=PDATA    S=.pdata   G=(none)   M=Winapi.MsCTF ALIGN=4
 0005:000003D8 00000018 C=PDATA    S=.pdata   G=(none)   M=Winapi.MsInkAut ALIGN=4
 0005:000003F0 00000018 C=PDATA    S=.pdata   G=(none)   M=Winapi.PenInputPanel ALIGN=4
 0005:00000408 00000018 C=PDATA    S=.pdata   G=(none)   M=Winapi.IpTypes ALIGN=4
 0005:00000420 00000018 C=PDATA    S=.pdata   G=(none)   M=Winapi.IpRtrMib ALIGN=4
 0005:00000438 00000018 C=PDATA    S=.pdata   G=(none)   M=Winapi.IpHlpApi ALIGN=4
 0005:00000450 00000018 C=PDATA    S=.pdata   G=(none)   M=System.RegularExpressionsAPI ALIGN=4
 0005:00000468 00000018 C=PDATA    S=.pdata   G=(none)   M=Winapi.WinSvc ALIGN=4
 0005:00000480 00000018 C=PDATA    S=.pdata   G=(none)   M=Winapi.TlHelp32 ALIGN=4
 0005:00000498 00000018 C=PDATA    S=.pdata   G=(none)   M=uModuleLib ALIGN=4
 0005:000004B0 00000018 C=PDATA    S=.pdata   G=(none)   M=Winapi.MMSystem ALIGN=4
 0005:000004C8 00000564 C=PDATA    S=.pdata   G=(none)   M=uProcess ALIGN=4
 0005:00000A2C 00000114 C=PDATA    S=.pdata   G=(none)   M=uModuleTemplate ALIGN=4
 0005:00000B40 00001698 C=PDATA    S=.pdata   G=(none)   M=context.handlers ALIGN=4
 0005:000021D8 000006E4 C=PDATA    S=.pdata   G=(none)   M=uMessageHandler ALIGN=4
 0005:000028BC 000000E4 C=PDATA    S=.pdata   G=(none)   M=uCustomController ALIGN=4
 0005:000029A0 0000105C C=PDATA    S=.pdata   G=(none)   M=uMVCLite ALIGN=4
 0005:000039FC 000000CC C=PDATA    S=.pdata   G=(none)   M=uDefaultApp ALIGN=4
 0005:00003AC8 00000090 C=PDATA    S=.pdata   G=(none)   M=uJsonConfig ALIGN=4
 0005:00003B58 00000090 C=PDATA    S=.pdata   G=(none)   M=uOEMDisp ALIGN=4


  Address             Publics by Name

 0001:00039030       .ModuleLib..ModuleLib
 0001:0003A9D0       .ModuleLib.@GetPackageInfoTable
 0001:0003A9E0       .ModuleLib.@PackageLoad
 0001:0003A9F0       .ModuleLib.@PackageUnload
 0001:00005000       BmxCardDef.BmxCardDef
 0001:00004FF0       BmxCardDef.Finalization
 0001:000050A0       CADTypes.CADTypes
 0001:00005090       CADTypes.Finalization
 0001:00004360       CfgVnt.CfgVnt
 0001:00004350       CfgVnt.Finalization
 0001:00004240       CodeSiteLogging.CodeSiteLogging
 0001:00004230       CodeSiteLogging.Finalization
 0001:00004220       CodeSiteLogging.TCodeSiteLogger.TraceMethod
 0001:000041F0       CodeSiteMessage.CodeSiteMessage
 0001:000041E0       CodeSiteMessage.Finalization
 0001:000041D0       CodeSitePlatform.CodeSitePlatform
 0001:000041C0       CodeSitePlatform.Finalization
 0001:00004210       CodeSiteProfiling.CodeSiteProfiling
 0001:00004200       CodeSiteProfiling.Finalization
 0001:00004C30       Common.collections.Common.collections
 0001:00004C20       Common.collections.Finalization
 0001:00004C70       Common.util.Common.util
 0001:00004C60       Common.util.Finalization
 0001:00004C40       Common.util.TRttiUtils.Create@
 0001:00004C50       Common.util.TRttiUtils.Destroy@
 0005:00001BD8       context.handlers.$pdata$_ZN5Fslib8TFifo__1IPN7Context8Handlers23TContextRequestWithProcEE11TEnumerator10DoMoveNextEv
 0005:00001BC0       context.handlers.$pdata$_ZN5Fslib8TFifo__1IPN7Context8Handlers23TContextRequestWithProcEE11TEnumerator10GetCurrentEv
 0005:00001BCC       context.handlers.$pdata$_ZN5Fslib8TFifo__1IPN7Context8Handlers23TContextRequestWithProcEE11TEnumerator12DoGetCurrentEv
 0005:00001BE4       context.handlers.$pdata$_ZN5Fslib8TFifo__1IPN7Context8Handlers23TContextRequestWithProcEE11TEnumerator8MoveNextEv
 0005:00001AF4       context.handlers.$pdata$_ZN5Fslib8TFifo__1IPN7Context8Handlers23TContextRequestWithProcEE12NotifyDeleteES4_
 0005:00001BB4       context.handlers.$pdata$_ZN5Fslib8TFifo__1IPN7Context8Handlers23TContextRequestWithProcEE13GetEnumeratorEv
 0005:00001AE8       context.handlers.$pdata$_ZN5Fslib8TFifo__1IPN7Context8Handlers23TContextRequestWithProcEE15DoGetEnumeratorEv
 0005:00001B84       context.handlers.$pdata$_ZN5Fslib8TFifo__1IPN7Context8Handlers23TContextRequestWithProcEE3PopERS4_
 0005:00001B9C       context.handlers.$pdata$_ZN5Fslib8TFifo__1IPN7Context8Handlers23TContextRequestWithProcEE4PeekERS4_
 0005:00001B6C       context.handlers.$pdata$_ZN5Fslib8TFifo__1IPN7Context8Handlers23TContextRequestWithProcEE4PushES4_
 0005:00001B3C       context.handlers.$pdata$_ZN5Fslib8TFifo__1IPN7Context8Handlers23TContextRequestWithProcEE5ClearEb
 0005:00001B24       context.handlers.$pdata$_ZN5Fslib8TFifo__1IPN7Context8Handlers23TContextRequestWithProcEE5ClearEv
 0005:00001B54       context.handlers.$pdata$_ZN5Fslib8TFifo__1IPN7Context8Handlers23TContextRequestWithProcEE5EmptyEv
 0005:00001B48       context.handlers.$pdata$_ZN5Fslib8TFifo__1IPN7Context8Handlers23TContextRequestWithProcEE7DequeueERS4_
 0005:00001B60       context.handlers.$pdata$_ZN5Fslib8TFifo__1IPN7Context8Handlers23TContextRequestWithProcEE7EnqueueES4_
 0005:00001B00       context.handlers.$pdata$_ZN5Fslib8TFifo__1IPN7Context8Handlers23TContextRequestWithProcEEC3Ev
 0005:00001B18       context.handlers.$pdata$_ZN5Fslib8TFifo__1IPN7Context8Handlers23TContextRequestWithProcEED0Ev
 0005:000015F0       context.handlers.$pdata$_ZN6System8Generics11Collections14TEnumerable__1IN7Strlist14TStringList__1INS_15DelphiInterfaceIN10Umodulelib22IContextRequestHandlerEEEE11TStringItemEE11ToArrayImplEi
 0005:00001620       context.handlers.$pdata$_ZN6System8Generics11Collections14TEnumerable__1IN7Strlist14TStringList__1INS_15DelphiInterfaceIN10Umodulelib22IContextRequestHandlerEEEE11TStringItemEE13GetEnumeratorEv
 0005:0000162C       context.handlers.$pdata$_ZN6System8Generics11Collections14TEnumerable__1IN7Strlist14TStringList__1INS_15DelphiInterfaceIN10Umodulelib22IContextRequestHandlerEEEE11TStringItemEE7ToArrayEv
 0005:00001614       context.handlers.$pdata$_ZN6System8Generics11Collections14TEnumerable__1IN7Strlist14TStringList__1INS_15DelphiInterfaceIN10Umodulelib22IContextRequestHandlerEEEE11TStringItemEED0Ev
 0005:0000102C       context.handlers.$pdata$_ZN6System8Generics11Collections14TEnumerable__1IN7Strlist14TStringList__1IU9__closurePFvNS_15DelphiInterfaceIN10Umodulelib15IRequestContextEEEEE11TStringItemEE11ToArrayImplEi
 0005:0000105C       context.handlers.$pdata$_ZN6System8Generics11Collections14TEnumerable__1IN7Strlist14TStringList__1IU9__closurePFvNS_15DelphiInterfaceIN10Umodulelib15IRequestContextEEEEE11TStringItemEE13GetEnumeratorEv
 0005:00001068       context.handlers.$pdata$_ZN6System8Generics11Collections14TEnumerable__1IN7Strlist14TStringList__1IU9__closurePFvNS_15DelphiInterfaceIN10Umodulelib15IRequestContextEEEEE11TStringItemEE7ToArrayEv
 0005:00001050       context.handlers.$pdata$_ZN6System8Generics11Collections14TEnumerable__1IN7Strlist14TStringList__1IU9__closurePFvNS_15DelphiInterfaceIN10Umodulelib15IRequestContextEEEEE11TStringItemEED0Ev
 0005:00001A94       context.handlers.$pdata$_ZN6System8Generics11Collections14TEnumerable__1IPN7Context8Handlers23TContextRequestWithProcEE11ToArrayImplEi
 0005:00001AB8       context.handlers.$pdata$_ZN6System8Generics11Collections14TEnumerable__1IPN7Context8Handlers23TContextRequestWithProcEE13GetEnumeratorEv
 0005:00001AC4       context.handlers.$pdata$_ZN6System8Generics11Collections14TEnumerable__1IPN7Context8Handlers23TContextRequestWithProcEE7ToArrayEv
 0005:00001AAC       context.handlers.$pdata$_ZN6System8Generics11Collections14TEnumerable__1IPN7Context8Handlers23TContextRequestWithProcEED0Ev
 0005:00001BF0       context.handlers.$pdata$_ZN6System8Generics11Collections14TEnumerable__1IPNS_7TObjectEE11ToArrayImplEi
 0005:00001C14       context.handlers.$pdata$_ZN6System8Generics11Collections14TEnumerable__1IPNS_7TObjectEE13GetEnumeratorEv
 0005:00001C20       context.handlers.$pdata$_ZN6System8Generics11Collections14TEnumerable__1IPNS_7TObjectEE7ToArrayEv
 0005:00001C08       context.handlers.$pdata$_ZN6System8Generics11Collections14TEnumerable__1IPNS_7TObjectEED0Ev
 0005:00001650       context.handlers.$pdata$_ZN6System8Generics11Collections14TEnumerator__1IN7Strlist14TStringList__1INS_15DelphiInterfaceIN10Umodulelib22IContextRequestHandlerEEEE11TStringItemEE8MoveNextEv
 0005:0000108C       context.handlers.$pdata$_ZN6System8Generics11Collections14TEnumerator__1IN7Strlist14TStringList__1IU9__closurePFvNS_15DelphiInterfaceIN10Umodulelib15IRequestContextEEEEE11TStringItemEE8MoveNextEv
 0005:00001ADC       context.handlers.$pdata$_ZN6System8Generics11Collections14TEnumerator__1IPN7Context8Handlers23TContextRequestWithProcEE8MoveNextEv
 0005:00001C38       context.handlers.$pdata$_ZN6System8Generics11Collections14TEnumerator__1IPNS_7TObjectEE8MoveNextEv
 0005:00001FF8       context.handlers.$pdata$_ZN6System8Generics11Collections14TObjectList__1IPNS_7TObjectEE6NotifyES4_NS1_23TCollectionNotificationE
 0005:0000201C       context.handlers.$pdata$_ZN6System8Generics11Collections14TObjectList__1IPNS_7TObjectEEC3Eb
 0005:00002034       context.handlers.$pdata$_ZN6System8Generics11Collections14TObjectList__1IPNS_7TObjectEEC3ENS_15DelphiInterfaceINS0_8Defaults12IComparer__1IS4_EEEEb
 0005:0000204C       context.handlers.$pdata$_ZN6System8Generics11Collections14TObjectList__1IPNS_7TObjectEEC3EPNS1_14TEnumerable__1IS4_EEb
 0005:00002004       context.handlers.$pdata$_ZN6System8Generics11Collections14TObjectList__1IPNS_7TObjectEEC3Ev
 0005:00002064       context.handlers.$pdata$_ZN6System8Generics11Collections14TObjectList__1IPNS_7TObjectEED0Ev
 0005:00002130       context.handlers.$pdata$_ZN6System8Generics11Collections24@TList__1_Pack_0__ActRecIN7Strlist14TStringList__1INS_15DelphiInterfaceIN10Umodulelib22IContextRequestHandlerEEEE11TStringItemEE7_0_BodyEPKv
 0005:000020B8       context.handlers.$pdata$_ZN6System8Generics11Collections24@TList__1_Pack_0__ActRecIN7Strlist14TStringList__1IU9__closurePFvNS_15DelphiInterfaceIN10Umodulelib15IRequestContextEEEEE11TStringItemEE7_0_BodyEPKv
 0005:00002178       context.handlers.$pdata$_ZN6System8Generics11Collections24@TList__1_Pack_0__ActRecIPNS_7TObjectEE7_0_BodyEPKv
 0005:00002118       context.handlers.$pdata$_ZN6System8Generics11Collections24@TList__1_Pack_1__ActRecIN7Strlist14TStringList__1INS_15DelphiInterfaceIN10Umodulelib22IContextRequestHandlerEEEE11TStringItemEE7_0_BodyEPKv
 0005:000020A0       context.handlers.$pdata$_ZN6System8Generics11Collections24@TList__1_Pack_1__ActRecIN7Strlist14TStringList__1IU9__closurePFvNS_15DelphiInterfaceIN10Umodulelib15IRequestContextEEEEE11TStringItemEE7_0_BodyEPKv
 0005:0000216C       context.handlers.$pdata$_ZN6System8Generics11Collections24@TList__1_Pack_1__ActRecIPNS_7TObjectEE7_0_BodyEPKv
 0005:00002154       context.handlers.$pdata$_ZN6System8Generics11Collections6TArray12BinarySearchIN7Strlist14TStringList__1INS_15DelphiInterfaceIN10Umodulelib22IContextRequestHandlerEEEE11TStringItemEEEbPKT_iSD_RiNS6_INS0_8Defaults12IComparer__1ISD_EEEEii
 0005:000020DC       context.handlers.$pdata$_ZN6System8Generics11Collections6TArray12BinarySearchIN7Strlist14TStringList__1IU9__closurePFvNS_15DelphiInterfaceIN10Umodulelib15IRequestContextEEEEE11TStringItemEEEbPKT_iSG_RiNS6_INS0_8Defaults12IComparer__1ISG_EEEEii
 0005:00002190       context.handlers.$pdata$_ZN6System8Generics11Collections6TArray12BinarySearchIPNS_7TObjectEEEbPKT_iS7_RiNS_15DelphiInterfaceINS0_8Defaults12IComparer__1IS7_EEEEii
 0005:00002148       context.handlers.$pdata$_ZN6System8Generics11Collections6TArray4SortIN7Strlist14TStringList__1INS_15DelphiInterfaceIN10Umodulelib22IContextRequestHandlerEEEE11TStringItemEEEvPT_iNS6_INS0_8Defaults12IComparer__1ISD_EEEEii
 0005:000020D0       context.handlers.$pdata$_ZN6System8Generics11Collections6TArray4SortIN7Strlist14TStringList__1IU9__closurePFvNS_15DelphiInterfaceIN10Umodulelib15IRequestContextEEEEE11TStringItemEEEvPT_iNS6_INS0_8Defaults12IComparer__1ISG_EEEEii
 0005:00002184       context.handlers.$pdata$_ZN6System8Generics11Collections6TArray4SortIPNS_7TObjectEEEvPT_iNS_15DelphiInterfaceINS0_8Defaults12IComparer__1IS7_EEEEii
 0005:000021B4       context.handlers.$pdata$_ZN6System8Generics11Collections6TArray9QuickSortIN7Strlist14TStringList__1INS_15DelphiInterfaceIN10Umodulelib22IContextRequestHandlerEEEE11TStringItemEEEvPT_iNS6_INS0_8Defaults12IComparer__1ISD_EEEEii
 0005:0000219C       context.handlers.$pdata$_ZN6System8Generics11Collections6TArray9QuickSortIN7Strlist14TStringList__1IU9__closurePFvNS_15DelphiInterfaceIN10Umodulelib15IRequestContextEEEEE11TStringItemEEEvPT_iNS6_INS0_8Defaults12IComparer__1ISG_EEEEii
 0005:000021CC       context.handlers.$pdata$_ZN6System8Generics11Collections6TArray9QuickSortIPNS_7TObjectEEEvPT_iNS_15DelphiInterfaceINS0_8Defaults12IComparer__1IS7_EEEEii
 0005:0000189C       context.handlers.$pdata$_ZN6System8Generics11Collections8TList__1IN7Strlist14TStringList__1INS_15DelphiInterfaceIN10Umodulelib22IContextRequestHandlerEEEE11TStringItemEE10RemoveItemERKSA_NS_5Types10TDirectionE
 0005:00001A10       context.handlers.$pdata$_ZN6System8Generics11Collections8TList__1IN7Strlist14TStringList__1INS_15DelphiInterfaceIN10Umodulelib22IContextRequestHandlerEEEE11TStringItemEE10TrimExcessEv
 0005:000018B4       context.handlers.$pdata$_ZN6System8Generics11Collections8TList__1IN7Strlist14TStringList__1INS_15DelphiInterfaceIN10Umodulelib22IContextRequestHandlerEEEE11TStringItemEE11DeleteRangeEii
 0005:000018C0       context.handlers.$pdata$_ZN6System8Generics11Collections8TList__1IN7Strlist14TStringList__1INS_15DelphiInterfaceIN10Umodulelib22IContextRequestHandlerEEEE11TStringItemEE11ExtractItemERKSA_NS_5Types10TDirectionE
 0005:0000165C       context.handlers.$pdata$_ZN6System8Generics11Collections8TList__1IN7Strlist14TStringList__1INS_15DelphiInterfaceIN10Umodulelib22IContextRequestHandlerEEEE11TStringItemEE11FListHelperEv
 0005:00001680       context.handlers.$pdata$_ZN6System8Generics11Collections8TList__1IN7Strlist14TStringList__1INS_15DelphiInterfaceIN10Umodulelib22IContextRequestHandlerEEEE11TStringItemEE11GetCapacityEv
 0005:000019A4       context.handlers.$pdata$_ZN6System8Generics11Collections8TList__1IN7Strlist14TStringList__1INS_15DelphiInterfaceIN10Umodulelib22IContextRequestHandlerEEEE11TStringItemEE11IndexOfItemERKSA_NS_5Types10TDirectionE
 0005:00001818       context.handlers.$pdata$_ZN6System8Generics11Collections8TList__1IN7Strlist14TStringList__1INS_15DelphiInterfaceIN10Umodulelib22IContextRequestHandlerEEEE11TStringItemEE11InsertRangeEiNS5_INS_14IEnumerable__1ISA_EEEE
 0005:0000180C       context.handlers.$pdata$_ZN6System8Generics11Collections8TList__1IN7Strlist14TStringList__1INS_15DelphiInterfaceIN10Umodulelib22IContextRequestHandlerEEEE11TStringItemEE11InsertRangeEiPKSA_i
 0005:00001800       context.handlers.$pdata$_ZN6System8Generics11Collections8TList__1IN7Strlist14TStringList__1INS_15DelphiInterfaceIN10Umodulelib22IContextRequestHandlerEEEE11TStringItemEE11InsertRangeEiPKSA_ii
 0005:0000183C       context.handlers.$pdata$_ZN6System8Generics11Collections8TList__1IN7Strlist14TStringList__1INS_15DelphiInterfaceIN10Umodulelib22IContextRequestHandlerEEEE11TStringItemEE11InsertRangeEiPNS1_14TEnumerable__1ISA_EE
 0005:000019B0       context.handlers.$pdata$_ZN6System8Generics11Collections8TList__1IN7Strlist14TStringList__1INS_15DelphiInterfaceIN10Umodulelib22IContextRequestHandlerEEEE11TStringItemEE11LastIndexOfERKSA_
 0005:0000168C       context.handlers.$pdata$_ZN6System8Generics11Collections8TList__1IN7Strlist14TStringList__1INS_15DelphiInterfaceIN10Umodulelib22IContextRequestHandlerEEEE11TStringItemEE11SetCapacityEi
 0005:000016EC       context.handlers.$pdata$_ZN6System8Generics11Collections8TList__1IN7Strlist14TStringList__1INS_15DelphiInterfaceIN10Umodulelib22IContextRequestHandlerEEEE11TStringItemEE11SetOnNotifyEU9__closurePFvPNS_7TObjectERKSA_NS1_23TCollectionNotificationEE
 0005:00001A64       context.handlers.$pdata$_ZN6System8Generics11Collections8TList__1IN7Strlist14TStringList__1INS_15DelphiInterfaceIN10Umodulelib22IContextRequestHandlerEEEE11TStringItemEE11TEnumerator10DoMoveNextEv
 0005:00001A34       context.handlers.$pdata$_ZN6System8Generics11Collections8TList__1IN7Strlist14TStringList__1INS_15DelphiInterfaceIN10Umodulelib22IContextRequestHandlerEEEE11TStringItemEE11TEnumerator10GetCurrentEv
 0005:00001A40       context.handlers.$pdata$_ZN6System8Generics11Collections8TList__1IN7Strlist14TStringList__1INS_15DelphiInterfaceIN10Umodulelib22IContextRequestHandlerEEEE11TStringItemEE11TEnumerator12DoGetCurrentEv
 0005:00001A88       context.handlers.$pdata$_ZN6System8Generics11Collections8TList__1IN7Strlist14TStringList__1INS_15DelphiInterfaceIN10Umodulelib22IContextRequestHandlerEEEE11TStringItemEE11TEnumerator8MoveNextEv
 0005:00001A70       context.handlers.$pdata$_ZN6System8Generics11Collections8TList__1IN7Strlist14TStringList__1INS_15DelphiInterfaceIN10Umodulelib22IContextRequestHandlerEEEE11TStringItemEE11TEnumeratorC3EPSB_
 0005:000019EC       context.handlers.$pdata$_ZN6System8Generics11Collections8TList__1IN7Strlist14TStringList__1INS_15DelphiInterfaceIN10Umodulelib22IContextRequestHandlerEEEE11TStringItemEE12BinarySearchERKSA_Ri
 0005:000019F8       context.handlers.$pdata$_ZN6System8Generics11Collections8TList__1IN7Strlist14TStringList__1INS_15DelphiInterfaceIN10Umodulelib22IContextRequestHandlerEEEE11TStringItemEE12BinarySearchERKSA_RiNS5_INS0_8Defaults12IComparer__1ISA_EEEE
 0005:00001A04       context.handlers.$pdata$_ZN6System8Generics11Collections8TList__1IN7Strlist14TStringList__1INS_15DelphiInterfaceIN10Umodulelib22IContextRequestHandlerEEEE11TStringItemEE12BinarySearchERKSA_RiNS5_INS0_8Defaults12IComparer__1ISA_EEEEii
 0005:000016E0       context.handlers.$pdata$_ZN6System8Generics11Collections8TList__1IN7Strlist14TStringList__1INS_15DelphiInterfaceIN10Umodulelib22IContextRequestHandlerEEEE11TStringItemEE12UpdateNotifyEv
 0005:00001A28       context.handlers.$pdata$_ZN6System8Generics11Collections8TList__1IN7Strlist14TStringList__1INS_15DelphiInterfaceIN10Umodulelib22IContextRequestHandlerEEEE11TStringItemEE13GetEnumeratorEv
 0005:000016D4       context.handlers.$pdata$_ZN6System8Generics11Collections8TList__1IN7Strlist14TStringList__1INS_15DelphiInterfaceIN10Umodulelib22IContextRequestHandlerEEEE11TStringItemEE14InternalNotifyEPKvNS1_23TCollectionNotificationE
 0005:00001704       context.handlers.$pdata$_ZN6System8Generics11Collections8TList__1IN7Strlist14TStringList__1INS_15DelphiInterfaceIN10Umodulelib22IContextRequestHandlerEEEE11TStringItemEE14UpdateComparerENS5_INS0_8Defaults12IComparer__1ISA_EEEE
 0005:0000171C       context.handlers.$pdata$_ZN6System8Generics11Collections8TList__1IN7Strlist14TStringList__1INS_15DelphiInterfaceIN10Umodulelib22IContextRequestHandlerEEEE11TStringItemEE15DoGetEnumeratorEv
 0005:000016F8       context.handlers.$pdata$_ZN6System8Generics11Collections8TList__1IN7Strlist14TStringList__1INS_15DelphiInterfaceIN10Umodulelib22IContextRequestHandlerEEEE11TStringItemEE15InternalCompareEPKvSD_
 0005:000017C4       context.handlers.$pdata$_ZN6System8Generics11Collections8TList__1IN7Strlist14TStringList__1INS_15DelphiInterfaceIN10Umodulelib22IContextRequestHandlerEEEE11TStringItemEE3AddERKSA_
 0005:00001950       context.handlers.$pdata$_ZN6System8Generics11Collections8TList__1IN7Strlist14TStringList__1INS_15DelphiInterfaceIN10Umodulelib22IContextRequestHandlerEEEE11TStringItemEE4LastEv
 0005:00001920       context.handlers.$pdata$_ZN6System8Generics11Collections8TList__1IN7Strlist14TStringList__1INS_15DelphiInterfaceIN10Umodulelib22IContextRequestHandlerEEEE11TStringItemEE4MoveEii
 0005:00001878       context.handlers.$pdata$_ZN6System8Generics11Collections8TList__1IN7Strlist14TStringList__1INS_15DelphiInterfaceIN10Umodulelib22IContextRequestHandlerEEEE11TStringItemEE4PackENS5_INSB_10TEmptyFuncEEE
 0005:00001860       context.handlers.$pdata$_ZN6System8Generics11Collections8TList__1IN7Strlist14TStringList__1INS_15DelphiInterfaceIN10Umodulelib22IContextRequestHandlerEEEE11TStringItemEE4PackEv
 0005:000019D4       context.handlers.$pdata$_ZN6System8Generics11Collections8TList__1IN7Strlist14TStringList__1INS_15DelphiInterfaceIN10Umodulelib22IContextRequestHandlerEEEE11TStringItemEE4SortENS5_INS0_8Defaults12IComparer__1ISA_EEEE
 0005:000019E0       context.handlers.$pdata$_ZN6System8Generics11Collections8TList__1IN7Strlist14TStringList__1INS_15DelphiInterfaceIN10Umodulelib22IContextRequestHandlerEEEE11TStringItemEE4SortENS5_INS0_8Defaults12IComparer__1ISA_EEEEii
 0005:000019C8       context.handlers.$pdata$_ZN6System8Generics11Collections8TList__1IN7Strlist14TStringList__1INS_15DelphiInterfaceIN10Umodulelib22IContextRequestHandlerEEEE11TStringItemEE4SortEv
 0005:00001974       context.handlers.$pdata$_ZN6System8Generics11Collections8TList__1IN7Strlist14TStringList__1INS_15DelphiInterfaceIN10Umodulelib22IContextRequestHandlerEEEE11TStringItemEE5ClearEv
 0005:000017A0       context.handlers.$pdata$_ZN6System8Generics11Collections8TList__1IN7Strlist14TStringList__1INS_15DelphiInterfaceIN10Umodulelib22IContextRequestHandlerEEEE11TStringItemEE5ErrorENS_13UnicodeStringEx
 0005:000017AC       context.handlers.$pdata$_ZN6System8Generics11Collections8TList__1IN7Strlist14TStringList__1INS_15DelphiInterfaceIN10Umodulelib22IContextRequestHandlerEEEE11TStringItemEE5ErrorEPNS_13TResStringRecEx
 0005:0000192C       context.handlers.$pdata$_ZN6System8Generics11Collections8TList__1IN7Strlist14TStringList__1INS_15DelphiInterfaceIN10Umodulelib22IContextRequestHandlerEEEE11TStringItemEE5FirstEv
 0005:000018A8       context.handlers.$pdata$_ZN6System8Generics11Collections8TList__1IN7Strlist14TStringList__1INS_15DelphiInterfaceIN10Umodulelib22IContextRequestHandlerEEEE11TStringItemEE6DeleteEi
 0005:00001980       context.handlers.$pdata$_ZN6System8Generics11Collections8TList__1IN7Strlist14TStringList__1INS_15DelphiInterfaceIN10Umodulelib22IContextRequestHandlerEEEE11TStringItemEE6ExpandEv
 0005:000017F4       context.handlers.$pdata$_ZN6System8Generics11Collections8TList__1IN7Strlist14TStringList__1INS_15DelphiInterfaceIN10Umodulelib22IContextRequestHandlerEEEE11TStringItemEE6InsertEiRKSA_
 0005:00001728       context.handlers.$pdata$_ZN6System8Generics11Collections8TList__1IN7Strlist14TStringList__1INS_15DelphiInterfaceIN10Umodulelib22IContextRequestHandlerEEEE11TStringItemEE6NotifyERKSA_NS1_23TCollectionNotificationE
 0005:00001890       context.handlers.$pdata$_ZN6System8Generics11Collections8TList__1IN7Strlist14TStringList__1INS_15DelphiInterfaceIN10Umodulelib22IContextRequestHandlerEEEE11TStringItemEE6RemoveERKSA_
 0005:000018CC       context.handlers.$pdata$_ZN6System8Generics11Collections8TList__1IN7Strlist14TStringList__1INS_15DelphiInterfaceIN10Umodulelib22IContextRequestHandlerEEEE11TStringItemEE7ExtractERKSA_
 0005:000016A4       context.handlers.$pdata$_ZN6System8Generics11Collections8TList__1IN7Strlist14TStringList__1INS_15DelphiInterfaceIN10Umodulelib22IContextRequestHandlerEEEE11TStringItemEE7GetItemEi
 0005:00001668       context.handlers.$pdata$_ZN6System8Generics11Collections8TList__1IN7Strlist14TStringList__1INS_15DelphiInterfaceIN10Umodulelib22IContextRequestHandlerEEEE11TStringItemEE7GetListEv
 0005:00001998       context.handlers.$pdata$_ZN6System8Generics11Collections8TList__1IN7Strlist14TStringList__1INS_15DelphiInterfaceIN10Umodulelib22IContextRequestHandlerEEEE11TStringItemEE7IndexOfERKSA_
 0005:000019BC       context.handlers.$pdata$_ZN6System8Generics11Collections8TList__1IN7Strlist14TStringList__1INS_15DelphiInterfaceIN10Umodulelib22IContextRequestHandlerEEEE11TStringItemEE7ReverseEv
 0005:000016B0       context.handlers.$pdata$_ZN6System8Generics11Collections8TList__1IN7Strlist14TStringList__1INS_15DelphiInterfaceIN10Umodulelib22IContextRequestHandlerEEEE11TStringItemEE7SetItemEiRKSA_
 0005:00001A1C       context.handlers.$pdata$_ZN6System8Generics11Collections8TList__1IN7Strlist14TStringList__1INS_15DelphiInterfaceIN10Umodulelib22IContextRequestHandlerEEEE11TStringItemEE7ToArrayEv
 0005:000017DC       context.handlers.$pdata$_ZN6System8Generics11Collections8TList__1IN7Strlist14TStringList__1INS_15DelphiInterfaceIN10Umodulelib22IContextRequestHandlerEEEE11TStringItemEE8AddRangeENS5_INS_14IEnumerable__1ISA_EEEE
 0005:000017D0       context.handlers.$pdata$_ZN6System8Generics11Collections8TList__1IN7Strlist14TStringList__1INS_15DelphiInterfaceIN10Umodulelib22IContextRequestHandlerEEEE11TStringItemEE8AddRangeEPKSA_i
 0005:000017E8       context.handlers.$pdata$_ZN6System8Generics11Collections8TList__1IN7Strlist14TStringList__1INS_15DelphiInterfaceIN10Umodulelib22IContextRequestHandlerEEEE11TStringItemEE8AddRangeEPNS1_14TEnumerable__1ISA_EE
 0005:0000198C       context.handlers.$pdata$_ZN6System8Generics11Collections8TList__1IN7Strlist14TStringList__1INS_15DelphiInterfaceIN10Umodulelib22IContextRequestHandlerEEEE11TStringItemEE8ContainsERKSA_
 0005:000016C8       context.handlers.$pdata$_ZN6System8Generics11Collections8TList__1IN7Strlist14TStringList__1INS_15DelphiInterfaceIN10Umodulelib22IContextRequestHandlerEEEE11TStringItemEE8DoDeleteEiNS1_23TCollectionNotificationE
 0005:00001914       context.handlers.$pdata$_ZN6System8Generics11Collections8TList__1IN7Strlist14TStringList__1INS_15DelphiInterfaceIN10Umodulelib22IContextRequestHandlerEEEE11TStringItemEE8ExchangeEii
 0005:00001674       context.handlers.$pdata$_ZN6System8Generics11Collections8TList__1IN7Strlist14TStringList__1INS_15DelphiInterfaceIN10Umodulelib22IContextRequestHandlerEEEE11TStringItemEE8GetPListEv
 0005:00001698       context.handlers.$pdata$_ZN6System8Generics11Collections8TList__1IN7Strlist14TStringList__1INS_15DelphiInterfaceIN10Umodulelib22IContextRequestHandlerEEEE11TStringItemEE8SetCountEi
 0005:000018F0       context.handlers.$pdata$_ZN6System8Generics11Collections8TList__1IN7Strlist14TStringList__1INS_15DelphiInterfaceIN10Umodulelib22IContextRequestHandlerEEEE11TStringItemEE9ExtractAtEi
 0005:000016BC       context.handlers.$pdata$_ZN6System8Generics11Collections8TList__1IN7Strlist14TStringList__1INS_15DelphiInterfaceIN10Umodulelib22IContextRequestHandlerEEEE11TStringItemEE9GrowCheckEi
 0005:00001710       context.handlers.$pdata$_ZN6System8Generics11Collections8TList__1IN7Strlist14TStringList__1INS_15DelphiInterfaceIN10Umodulelib22IContextRequestHandlerEEEE11TStringItemEE9ItemValueERKSA_
 0005:0000174C       context.handlers.$pdata$_ZN6System8Generics11Collections8TList__1IN7Strlist14TStringList__1INS_15DelphiInterfaceIN10Umodulelib22IContextRequestHandlerEEEE11TStringItemEEC3ENS5_INS0_8Defaults12IComparer__1ISA_EEEE
 0005:0000177C       context.handlers.$pdata$_ZN6System8Generics11Collections8TList__1IN7Strlist14TStringList__1INS_15DelphiInterfaceIN10Umodulelib22IContextRequestHandlerEEEE11TStringItemEEC3EPKSA_i
 0005:00001764       context.handlers.$pdata$_ZN6System8Generics11Collections8TList__1IN7Strlist14TStringList__1INS_15DelphiInterfaceIN10Umodulelib22IContextRequestHandlerEEEE11TStringItemEEC3EPNS1_14TEnumerable__1ISA_EE
 0005:00001734       context.handlers.$pdata$_ZN6System8Generics11Collections8TList__1IN7Strlist14TStringList__1INS_15DelphiInterfaceIN10Umodulelib22IContextRequestHandlerEEEE11TStringItemEEC3Ev
 0005:00001794       context.handlers.$pdata$_ZN6System8Generics11Collections8TList__1IN7Strlist14TStringList__1INS_15DelphiInterfaceIN10Umodulelib22IContextRequestHandlerEEEE11TStringItemEED0Ev
 0005:000012D8       context.handlers.$pdata$_ZN6System8Generics11Collections8TList__1IN7Strlist14TStringList__1IU9__closurePFvNS_15DelphiInterfaceIN10Umodulelib15IRequestContextEEEEE11TStringItemEE10RemoveItemERKSD_NS_5Types10TDirectionE
 0005:0000144C       context.handlers.$pdata$_ZN6System8Generics11Collections8TList__1IN7Strlist14TStringList__1IU9__closurePFvNS_15DelphiInterfaceIN10Umodulelib15IRequestContextEEEEE11TStringItemEE10TrimExcessEv
 0005:000012F0       context.handlers.$pdata$_ZN6System8Generics11Collections8TList__1IN7Strlist14TStringList__1IU9__closurePFvNS_15DelphiInterfaceIN10Umodulelib15IRequestContextEEEEE11TStringItemEE11DeleteRangeEii
 0005:000012FC       context.handlers.$pdata$_ZN6System8Generics11Collections8TList__1IN7Strlist14TStringList__1IU9__closurePFvNS_15DelphiInterfaceIN10Umodulelib15IRequestContextEEEEE11TStringItemEE11ExtractItemERKSD_NS_5Types10TDirectionE
 0005:00001098       context.handlers.$pdata$_ZN6System8Generics11Collections8TList__1IN7Strlist14TStringList__1IU9__closurePFvNS_15DelphiInterfaceIN10Umodulelib15IRequestContextEEEEE11TStringItemEE11FListHelperEv
 0005:000010BC       context.handlers.$pdata$_ZN6System8Generics11Collections8TList__1IN7Strlist14TStringList__1IU9__closurePFvNS_15DelphiInterfaceIN10Umodulelib15IRequestContextEEEEE11TStringItemEE11GetCapacityEv
 0005:000013E0       context.handlers.$pdata$_ZN6System8Generics11Collections8TList__1IN7Strlist14TStringList__1IU9__closurePFvNS_15DelphiInterfaceIN10Umodulelib15IRequestContextEEEEE11TStringItemEE11IndexOfItemERKSD_NS_5Types10TDirectionE
 0005:00001254       context.handlers.$pdata$_ZN6System8Generics11Collections8TList__1IN7Strlist14TStringList__1IU9__closurePFvNS_15DelphiInterfaceIN10Umodulelib15IRequestContextEEEEE11TStringItemEE11InsertRangeEiNS5_INS_14IEnumerable__1ISD_EEEE
 0005:00001248       context.handlers.$pdata$_ZN6System8Generics11Collections8TList__1IN7Strlist14TStringList__1IU9__closurePFvNS_15DelphiInterfaceIN10Umodulelib15IRequestContextEEEEE11TStringItemEE11InsertRangeEiPKSD_i
 0005:0000123C       context.handlers.$pdata$_ZN6System8Generics11Collections8TList__1IN7Strlist14TStringList__1IU9__closurePFvNS_15DelphiInterfaceIN10Umodulelib15IRequestContextEEEEE11TStringItemEE11InsertRangeEiPKSD_ii
 0005:00001278       context.handlers.$pdata$_ZN6System8Generics11Collections8TList__1IN7Strlist14TStringList__1IU9__closurePFvNS_15DelphiInterfaceIN10Umodulelib15IRequestContextEEEEE11TStringItemEE11InsertRangeEiPNS1_14TEnumerable__1ISD_EE
 0005:000013EC       context.handlers.$pdata$_ZN6System8Generics11Collections8TList__1IN7Strlist14TStringList__1IU9__closurePFvNS_15DelphiInterfaceIN10Umodulelib15IRequestContextEEEEE11TStringItemEE11LastIndexOfERKSD_
 0005:000010C8       context.handlers.$pdata$_ZN6System8Generics11Collections8TList__1IN7Strlist14TStringList__1IU9__closurePFvNS_15DelphiInterfaceIN10Umodulelib15IRequestContextEEEEE11TStringItemEE11SetCapacityEi
 0005:00001128       context.handlers.$pdata$_ZN6System8Generics11Collections8TList__1IN7Strlist14TStringList__1IU9__closurePFvNS_15DelphiInterfaceIN10Umodulelib15IRequestContextEEEEE11TStringItemEE11SetOnNotifyEU9__closurePFvPNS_7TObjectERKSD_NS1_23TCollectionNotificationEE
 0005:000014A0       context.handlers.$pdata$_ZN6System8Generics11Collections8TList__1IN7Strlist14TStringList__1IU9__closurePFvNS_15DelphiInterfaceIN10Umodulelib15IRequestContextEEEEE11TStringItemEE11TEnumerator10DoMoveNextEv
 0005:00001470       context.handlers.$pdata$_ZN6System8Generics11Collections8TList__1IN7Strlist14TStringList__1IU9__closurePFvNS_15DelphiInterfaceIN10Umodulelib15IRequestContextEEEEE11TStringItemEE11TEnumerator10GetCurrentEv
 0005:0000147C       context.handlers.$pdata$_ZN6System8Generics11Collections8TList__1IN7Strlist14TStringList__1IU9__closurePFvNS_15DelphiInterfaceIN10Umodulelib15IRequestContextEEEEE11TStringItemEE11TEnumerator12DoGetCurrentEv
 0005:000014C4       context.handlers.$pdata$_ZN6System8Generics11Collections8TList__1IN7Strlist14TStringList__1IU9__closurePFvNS_15DelphiInterfaceIN10Umodulelib15IRequestContextEEEEE11TStringItemEE11TEnumerator8MoveNextEv
 0005:000014AC       context.handlers.$pdata$_ZN6System8Generics11Collections8TList__1IN7Strlist14TStringList__1IU9__closurePFvNS_15DelphiInterfaceIN10Umodulelib15IRequestContextEEEEE11TStringItemEE11TEnumeratorC3EPSE_
 0005:00001428       context.handlers.$pdata$_ZN6System8Generics11Collections8TList__1IN7Strlist14TStringList__1IU9__closurePFvNS_15DelphiInterfaceIN10Umodulelib15IRequestContextEEEEE11TStringItemEE12BinarySearchERKSD_Ri
 0005:00001434       context.handlers.$pdata$_ZN6System8Generics11Collections8TList__1IN7Strlist14TStringList__1IU9__closurePFvNS_15DelphiInterfaceIN10Umodulelib15IRequestContextEEEEE11TStringItemEE12BinarySearchERKSD_RiNS5_INS0_8Defaults12IComparer__1ISD_EEEE
 0005:00001440       context.handlers.$pdata$_ZN6System8Generics11Collections8TList__1IN7Strlist14TStringList__1IU9__closurePFvNS_15DelphiInterfaceIN10Umodulelib15IRequestContextEEEEE11TStringItemEE12BinarySearchERKSD_RiNS5_INS0_8Defaults12IComparer__1ISD_EEEEii
 0005:0000111C       context.handlers.$pdata$_ZN6System8Generics11Collections8TList__1IN7Strlist14TStringList__1IU9__closurePFvNS_15DelphiInterfaceIN10Umodulelib15IRequestContextEEEEE11TStringItemEE12UpdateNotifyEv
 0005:00001464       context.handlers.$pdata$_ZN6System8Generics11Collections8TList__1IN7Strlist14TStringList__1IU9__closurePFvNS_15DelphiInterfaceIN10Umodulelib15IRequestContextEEEEE11TStringItemEE13GetEnumeratorEv
 0005:00001110       context.handlers.$pdata$_ZN6System8Generics11Collections8TList__1IN7Strlist14TStringList__1IU9__closurePFvNS_15DelphiInterfaceIN10Umodulelib15IRequestContextEEEEE11TStringItemEE14InternalNotifyEPKvNS1_23TCollectionNotificationE
 0005:00001140       context.handlers.$pdata$_ZN6System8Generics11Collections8TList__1IN7Strlist14TStringList__1IU9__closurePFvNS_15DelphiInterfaceIN10Umodulelib15IRequestContextEEEEE11TStringItemEE14UpdateComparerENS5_INS0_8Defaults12IComparer__1ISD_EEEE
 0005:00001158       context.handlers.$pdata$_ZN6System8Generics11Collections8TList__1IN7Strlist14TStringList__1IU9__closurePFvNS_15DelphiInterfaceIN10Umodulelib15IRequestContextEEEEE11TStringItemEE15DoGetEnumeratorEv
 0005:00001134       context.handlers.$pdata$_ZN6System8Generics11Collections8TList__1IN7Strlist14TStringList__1IU9__closurePFvNS_15DelphiInterfaceIN10Umodulelib15IRequestContextEEEEE11TStringItemEE15InternalCompareEPKvSG_
 0005:00001200       context.handlers.$pdata$_ZN6System8Generics11Collections8TList__1IN7Strlist14TStringList__1IU9__closurePFvNS_15DelphiInterfaceIN10Umodulelib15IRequestContextEEEEE11TStringItemEE3AddERKSD_
 0005:0000138C       context.handlers.$pdata$_ZN6System8Generics11Collections8TList__1IN7Strlist14TStringList__1IU9__closurePFvNS_15DelphiInterfaceIN10Umodulelib15IRequestContextEEEEE11TStringItemEE4LastEv
 0005:0000135C       context.handlers.$pdata$_ZN6System8Generics11Collections8TList__1IN7Strlist14TStringList__1IU9__closurePFvNS_15DelphiInterfaceIN10Umodulelib15IRequestContextEEEEE11TStringItemEE4MoveEii
 0005:000012B4       context.handlers.$pdata$_ZN6System8Generics11Collections8TList__1IN7Strlist14TStringList__1IU9__closurePFvNS_15DelphiInterfaceIN10Umodulelib15IRequestContextEEEEE11TStringItemEE4PackENS5_INSE_10TEmptyFuncEEE
 0005:0000129C       context.handlers.$pdata$_ZN6System8Generics11Collections8TList__1IN7Strlist14TStringList__1IU9__closurePFvNS_15DelphiInterfaceIN10Umodulelib15IRequestContextEEEEE11TStringItemEE4PackEv
 0005:00001410       context.handlers.$pdata$_ZN6System8Generics11Collections8TList__1IN7Strlist14TStringList__1IU9__closurePFvNS_15DelphiInterfaceIN10Umodulelib15IRequestContextEEEEE11TStringItemEE4SortENS5_INS0_8Defaults12IComparer__1ISD_EEEE
 0005:0000141C       context.handlers.$pdata$_ZN6System8Generics11Collections8TList__1IN7Strlist14TStringList__1IU9__closurePFvNS_15DelphiInterfaceIN10Umodulelib15IRequestContextEEEEE11TStringItemEE4SortENS5_INS0_8Defaults12IComparer__1ISD_EEEEii
 0005:00001404       context.handlers.$pdata$_ZN6System8Generics11Collections8TList__1IN7Strlist14TStringList__1IU9__closurePFvNS_15DelphiInterfaceIN10Umodulelib15IRequestContextEEEEE11TStringItemEE4SortEv
 0005:000013B0       context.handlers.$pdata$_ZN6System8Generics11Collections8TList__1IN7Strlist14TStringList__1IU9__closurePFvNS_15DelphiInterfaceIN10Umodulelib15IRequestContextEEEEE11TStringItemEE5ClearEv
 0005:000011DC       context.handlers.$pdata$_ZN6System8Generics11Collections8TList__1IN7Strlist14TStringList__1IU9__closurePFvNS_15DelphiInterfaceIN10Umodulelib15IRequestContextEEEEE11TStringItemEE5ErrorENS_13UnicodeStringEx
 0005:000011E8       context.handlers.$pdata$_ZN6System8Generics11Collections8TList__1IN7Strlist14TStringList__1IU9__closurePFvNS_15DelphiInterfaceIN10Umodulelib15IRequestContextEEEEE11TStringItemEE5ErrorEPNS_13TResStringRecEx
 0005:00001368       context.handlers.$pdata$_ZN6System8Generics11Collections8TList__1IN7Strlist14TStringList__1IU9__closurePFvNS_15DelphiInterfaceIN10Umodulelib15IRequestContextEEEEE11TStringItemEE5FirstEv
 0005:000012E4       context.handlers.$pdata$_ZN6System8Generics11Collections8TList__1IN7Strlist14TStringList__1IU9__closurePFvNS_15DelphiInterfaceIN10Umodulelib15IRequestContextEEEEE11TStringItemEE6DeleteEi
 0005:000013BC       context.handlers.$pdata$_ZN6System8Generics11Collections8TList__1IN7Strlist14TStringList__1IU9__closurePFvNS_15DelphiInterfaceIN10Umodulelib15IRequestContextEEEEE11TStringItemEE6ExpandEv
 0005:00001230       context.handlers.$pdata$_ZN6System8Generics11Collections8TList__1IN7Strlist14TStringList__1IU9__closurePFvNS_15DelphiInterfaceIN10Umodulelib15IRequestContextEEEEE11TStringItemEE6InsertEiRKSD_
 0005:00001164       context.handlers.$pdata$_ZN6System8Generics11Collections8TList__1IN7Strlist14TStringList__1IU9__closurePFvNS_15DelphiInterfaceIN10Umodulelib15IRequestContextEEEEE11TStringItemEE6NotifyERKSD_NS1_23TCollectionNotificationE
 0005:000012CC       context.handlers.$pdata$_ZN6System8Generics11Collections8TList__1IN7Strlist14TStringList__1IU9__closurePFvNS_15DelphiInterfaceIN10Umodulelib15IRequestContextEEEEE11TStringItemEE6RemoveERKSD_
 0005:00001308       context.handlers.$pdata$_ZN6System8Generics11Collections8TList__1IN7Strlist14TStringList__1IU9__closurePFvNS_15DelphiInterfaceIN10Umodulelib15IRequestContextEEEEE11TStringItemEE7ExtractERKSD_
 0005:000010E0       context.handlers.$pdata$_ZN6System8Generics11Collections8TList__1IN7Strlist14TStringList__1IU9__closurePFvNS_15DelphiInterfaceIN10Umodulelib15IRequestContextEEEEE11TStringItemEE7GetItemEi
 0005:000010A4       context.handlers.$pdata$_ZN6System8Generics11Collections8TList__1IN7Strlist14TStringList__1IU9__closurePFvNS_15DelphiInterfaceIN10Umodulelib15IRequestContextEEEEE11TStringItemEE7GetListEv
 0005:000013D4       context.handlers.$pdata$_ZN6System8Generics11Collections8TList__1IN7Strlist14TStringList__1IU9__closurePFvNS_15DelphiInterfaceIN10Umodulelib15IRequestContextEEEEE11TStringItemEE7IndexOfERKSD_
 0005:000013F8       context.handlers.$pdata$_ZN6System8Generics11Collections8TList__1IN7Strlist14TStringList__1IU9__closurePFvNS_15DelphiInterfaceIN10Umodulelib15IRequestContextEEEEE11TStringItemEE7ReverseEv
 0005:000010EC       context.handlers.$pdata$_ZN6System8Generics11Collections8TList__1IN7Strlist14TStringList__1IU9__closurePFvNS_15DelphiInterfaceIN10Umodulelib15IRequestContextEEEEE11TStringItemEE7SetItemEiRKSD_
 0005:00001458       context.handlers.$pdata$_ZN6System8Generics11Collections8TList__1IN7Strlist14TStringList__1IU9__closurePFvNS_15DelphiInterfaceIN10Umodulelib15IRequestContextEEEEE11TStringItemEE7ToArrayEv
 0005:00001218       context.handlers.$pdata$_ZN6System8Generics11Collections8TList__1IN7Strlist14TStringList__1IU9__closurePFvNS_15DelphiInterfaceIN10Umodulelib15IRequestContextEEEEE11TStringItemEE8AddRangeENS5_INS_14IEnumerable__1ISD_EEEE
 0005:0000120C       context.handlers.$pdata$_ZN6System8Generics11Collections8TList__1IN7Strlist14TStringList__1IU9__closurePFvNS_15DelphiInterfaceIN10Umodulelib15IRequestContextEEEEE11TStringItemEE8AddRangeEPKSD_i
 0005:00001224       context.handlers.$pdata$_ZN6System8Generics11Collections8TList__1IN7Strlist14TStringList__1IU9__closurePFvNS_15DelphiInterfaceIN10Umodulelib15IRequestContextEEEEE11TStringItemEE8AddRangeEPNS1_14TEnumerable__1ISD_EE
 0005:000013C8       context.handlers.$pdata$_ZN6System8Generics11Collections8TList__1IN7Strlist14TStringList__1IU9__closurePFvNS_15DelphiInterfaceIN10Umodulelib15IRequestContextEEEEE11TStringItemEE8ContainsERKSD_
 0005:00001104       context.handlers.$pdata$_ZN6System8Generics11Collections8TList__1IN7Strlist14TStringList__1IU9__closurePFvNS_15DelphiInterfaceIN10Umodulelib15IRequestContextEEEEE11TStringItemEE8DoDeleteEiNS1_23TCollectionNotificationE
 0005:00001350       context.handlers.$pdata$_ZN6System8Generics11Collections8TList__1IN7Strlist14TStringList__1IU9__closurePFvNS_15DelphiInterfaceIN10Umodulelib15IRequestContextEEEEE11TStringItemEE8ExchangeEii
 0005:000010B0       context.handlers.$pdata$_ZN6System8Generics11Collections8TList__1IN7Strlist14TStringList__1IU9__closurePFvNS_15DelphiInterfaceIN10Umodulelib15IRequestContextEEEEE11TStringItemEE8GetPListEv
 0005:000010D4       context.handlers.$pdata$_ZN6System8Generics11Collections8TList__1IN7Strlist14TStringList__1IU9__closurePFvNS_15DelphiInterfaceIN10Umodulelib15IRequestContextEEEEE11TStringItemEE8SetCountEi
 0005:0000132C       context.handlers.$pdata$_ZN6System8Generics11Collections8TList__1IN7Strlist14TStringList__1IU9__closurePFvNS_15DelphiInterfaceIN10Umodulelib15IRequestContextEEEEE11TStringItemEE9ExtractAtEi
 0005:000010F8       context.handlers.$pdata$_ZN6System8Generics11Collections8TList__1IN7Strlist14TStringList__1IU9__closurePFvNS_15DelphiInterfaceIN10Umodulelib15IRequestContextEEEEE11TStringItemEE9GrowCheckEi
 0005:0000114C       context.handlers.$pdata$_ZN6System8Generics11Collections8TList__1IN7Strlist14TStringList__1IU9__closurePFvNS_15DelphiInterfaceIN10Umodulelib15IRequestContextEEEEE11TStringItemEE9ItemValueERKSD_
 0005:00001188       context.handlers.$pdata$_ZN6System8Generics11Collections8TList__1IN7Strlist14TStringList__1IU9__closurePFvNS_15DelphiInterfaceIN10Umodulelib15IRequestContextEEEEE11TStringItemEEC3ENS5_INS0_8Defaults12IComparer__1ISD_EEEE
 0005:000011B8       context.handlers.$pdata$_ZN6System8Generics11Collections8TList__1IN7Strlist14TStringList__1IU9__closurePFvNS_15DelphiInterfaceIN10Umodulelib15IRequestContextEEEEE11TStringItemEEC3EPKSD_i
 0005:000011A0       context.handlers.$pdata$_ZN6System8Generics11Collections8TList__1IN7Strlist14TStringList__1IU9__closurePFvNS_15DelphiInterfaceIN10Umodulelib15IRequestContextEEEEE11TStringItemEEC3EPNS1_14TEnumerable__1ISD_EE
 0005:00001170       context.handlers.$pdata$_ZN6System8Generics11Collections8TList__1IN7Strlist14TStringList__1IU9__closurePFvNS_15DelphiInterfaceIN10Umodulelib15IRequestContextEEEEE11TStringItemEEC3Ev
 0005:000011D0       context.handlers.$pdata$_ZN6System8Generics11Collections8TList__1IN7Strlist14TStringList__1IU9__closurePFvNS_15DelphiInterfaceIN10Umodulelib15IRequestContextEEEEE11TStringItemEED0Ev
 0005:00001E78       context.handlers.$pdata$_ZN6System8Generics11Collections8TList__1IPNS_7TObjectEE10RemoveItemES4_NS_5Types10TDirectionE
 0005:00001F8C       context.handlers.$pdata$_ZN6System8Generics11Collections8TList__1IPNS_7TObjectEE10TrimExcessEv
 0005:00001E90       context.handlers.$pdata$_ZN6System8Generics11Collections8TList__1IPNS_7TObjectEE11DeleteRangeEii
 0005:00001E9C       context.handlers.$pdata$_ZN6System8Generics11Collections8TList__1IPNS_7TObjectEE11ExtractItemES4_NS_5Types10TDirectionE
 0005:00001C44       context.handlers.$pdata$_ZN6System8Generics11Collections8TList__1IPNS_7TObjectEE11FListHelperEv
 0005:00001C68       context.handlers.$pdata$_ZN6System8Generics11Collections8TList__1IPNS_7TObjectEE11GetCapacityEv
 0005:00001F20       context.handlers.$pdata$_ZN6System8Generics11Collections8TList__1IPNS_7TObjectEE11IndexOfItemES4_NS_5Types10TDirectionE
 0005:00001E00       context.handlers.$pdata$_ZN6System8Generics11Collections8TList__1IPNS_7TObjectEE11InsertRangeEiNS_15DelphiInterfaceINS_14IEnumerable__1IS4_EEEE
 0005:00001DF4       context.handlers.$pdata$_ZN6System8Generics11Collections8TList__1IPNS_7TObjectEE11InsertRangeEiPKS4_i
 0005:00001DE8       context.handlers.$pdata$_ZN6System8Generics11Collections8TList__1IPNS_7TObjectEE11InsertRangeEiPKS4_ii
 0005:00001E24       context.handlers.$pdata$_ZN6System8Generics11Collections8TList__1IPNS_7TObjectEE11InsertRangeEiPNS1_14TEnumerable__1IS4_EE
 0005:00001F2C       context.handlers.$pdata$_ZN6System8Generics11Collections8TList__1IPNS_7TObjectEE11LastIndexOfES4_
 0005:00001C74       context.handlers.$pdata$_ZN6System8Generics11Collections8TList__1IPNS_7TObjectEE11SetCapacityEi
 0005:00001CD4       context.handlers.$pdata$_ZN6System8Generics11Collections8TList__1IPNS_7TObjectEE11SetOnNotifyEU9__closurePFvS4_S4_NS1_23TCollectionNotificationEE
 0005:00001FC8       context.handlers.$pdata$_ZN6System8Generics11Collections8TList__1IPNS_7TObjectEE11TEnumerator10DoMoveNextEv
 0005:00001FB0       context.handlers.$pdata$_ZN6System8Generics11Collections8TList__1IPNS_7TObjectEE11TEnumerator10GetCurrentEv
 0005:00001FBC       context.handlers.$pdata$_ZN6System8Generics11Collections8TList__1IPNS_7TObjectEE11TEnumerator12DoGetCurrentEv
 0005:00001FEC       context.handlers.$pdata$_ZN6System8Generics11Collections8TList__1IPNS_7TObjectEE11TEnumerator8MoveNextEv
 0005:00001FD4       context.handlers.$pdata$_ZN6System8Generics11Collections8TList__1IPNS_7TObjectEE11TEnumeratorC3EPS5_
 0005:00001F68       context.handlers.$pdata$_ZN6System8Generics11Collections8TList__1IPNS_7TObjectEE12BinarySearchES4_Ri
 0005:00001F74       context.handlers.$pdata$_ZN6System8Generics11Collections8TList__1IPNS_7TObjectEE12BinarySearchES4_RiNS_15DelphiInterfaceINS0_8Defaults12IComparer__1IS4_EEEE
 0005:00001F80       context.handlers.$pdata$_ZN6System8Generics11Collections8TList__1IPNS_7TObjectEE12BinarySearchES4_RiNS_15DelphiInterfaceINS0_8Defaults12IComparer__1IS4_EEEEii
 0005:00001CC8       context.handlers.$pdata$_ZN6System8Generics11Collections8TList__1IPNS_7TObjectEE12UpdateNotifyEv
 0005:00001FA4       context.handlers.$pdata$_ZN6System8Generics11Collections8TList__1IPNS_7TObjectEE13GetEnumeratorEv
 0005:00001CBC       context.handlers.$pdata$_ZN6System8Generics11Collections8TList__1IPNS_7TObjectEE14InternalNotifyEPKvNS1_23TCollectionNotificationE
 0005:00001CEC       context.handlers.$pdata$_ZN6System8Generics11Collections8TList__1IPNS_7TObjectEE14UpdateComparerENS_15DelphiInterfaceINS0_8Defaults12IComparer__1IS4_EEEE
 0005:00001D04       context.handlers.$pdata$_ZN6System8Generics11Collections8TList__1IPNS_7TObjectEE15DoGetEnumeratorEv
 0005:00001CE0       context.handlers.$pdata$_ZN6System8Generics11Collections8TList__1IPNS_7TObjectEE15InternalCompareEPKvS7_
 0005:00001DAC       context.handlers.$pdata$_ZN6System8Generics11Collections8TList__1IPNS_7TObjectEE3AddES4_
 0005:00001EE4       context.handlers.$pdata$_ZN6System8Generics11Collections8TList__1IPNS_7TObjectEE4LastEv
 0005:00001ECC       context.handlers.$pdata$_ZN6System8Generics11Collections8TList__1IPNS_7TObjectEE4MoveEii
 0005:00001E54       context.handlers.$pdata$_ZN6System8Generics11Collections8TList__1IPNS_7TObjectEE4PackENS_15DelphiInterfaceINS5_10TEmptyFuncEEE
 0005:00001E3C       context.handlers.$pdata$_ZN6System8Generics11Collections8TList__1IPNS_7TObjectEE4PackEv
 0005:00001F50       context.handlers.$pdata$_ZN6System8Generics11Collections8TList__1IPNS_7TObjectEE4SortENS_15DelphiInterfaceINS0_8Defaults12IComparer__1IS4_EEEE
 0005:00001F5C       context.handlers.$pdata$_ZN6System8Generics11Collections8TList__1IPNS_7TObjectEE4SortENS_15DelphiInterfaceINS0_8Defaults12IComparer__1IS4_EEEEii
 0005:00001F44       context.handlers.$pdata$_ZN6System8Generics11Collections8TList__1IPNS_7TObjectEE4SortEv
 0005:00001EF0       context.handlers.$pdata$_ZN6System8Generics11Collections8TList__1IPNS_7TObjectEE5ClearEv
 0005:00001D88       context.handlers.$pdata$_ZN6System8Generics11Collections8TList__1IPNS_7TObjectEE5ErrorENS_13UnicodeStringEx
 0005:00001D94       context.handlers.$pdata$_ZN6System8Generics11Collections8TList__1IPNS_7TObjectEE5ErrorEPNS_13TResStringRecEx
 0005:00001ED8       context.handlers.$pdata$_ZN6System8Generics11Collections8TList__1IPNS_7TObjectEE5FirstEv
 0005:00001E84       context.handlers.$pdata$_ZN6System8Generics11Collections8TList__1IPNS_7TObjectEE6DeleteEi
 0005:00001EFC       context.handlers.$pdata$_ZN6System8Generics11Collections8TList__1IPNS_7TObjectEE6ExpandEv
 0005:00001DDC       context.handlers.$pdata$_ZN6System8Generics11Collections8TList__1IPNS_7TObjectEE6InsertEiS4_
 0005:00001D10       context.handlers.$pdata$_ZN6System8Generics11Collections8TList__1IPNS_7TObjectEE6NotifyES4_NS1_23TCollectionNotificationE
 0005:00001E6C       context.handlers.$pdata$_ZN6System8Generics11Collections8TList__1IPNS_7TObjectEE6RemoveES4_
 0005:00001EA8       context.handlers.$pdata$_ZN6System8Generics11Collections8TList__1IPNS_7TObjectEE7ExtractES4_
 0005:00001C8C       context.handlers.$pdata$_ZN6System8Generics11Collections8TList__1IPNS_7TObjectEE7GetItemEi
 0005:00001C50       context.handlers.$pdata$_ZN6System8Generics11Collections8TList__1IPNS_7TObjectEE7GetListEv
 0005:00001F14       context.handlers.$pdata$_ZN6System8Generics11Collections8TList__1IPNS_7TObjectEE7IndexOfES4_
 0005:00001F38       context.handlers.$pdata$_ZN6System8Generics11Collections8TList__1IPNS_7TObjectEE7ReverseEv
 0005:00001C98       context.handlers.$pdata$_ZN6System8Generics11Collections8TList__1IPNS_7TObjectEE7SetItemEiS4_
 0005:00001F98       context.handlers.$pdata$_ZN6System8Generics11Collections8TList__1IPNS_7TObjectEE7ToArrayEv
 0005:00001DC4       context.handlers.$pdata$_ZN6System8Generics11Collections8TList__1IPNS_7TObjectEE8AddRangeENS_15DelphiInterfaceINS_14IEnumerable__1IS4_EEEE
 0005:00001DB8       context.handlers.$pdata$_ZN6System8Generics11Collections8TList__1IPNS_7TObjectEE8AddRangeEPKS4_i
 0005:00001DD0       context.handlers.$pdata$_ZN6System8Generics11Collections8TList__1IPNS_7TObjectEE8AddRangeEPNS1_14TEnumerable__1IS4_EE
 0005:00001F08       context.handlers.$pdata$_ZN6System8Generics11Collections8TList__1IPNS_7TObjectEE8ContainsES4_
 0005:00001CB0       context.handlers.$pdata$_ZN6System8Generics11Collections8TList__1IPNS_7TObjectEE8DoDeleteEiNS1_23TCollectionNotificationE
 0005:00001EC0       context.handlers.$pdata$_ZN6System8Generics11Collections8TList__1IPNS_7TObjectEE8ExchangeEii
 0005:00001C5C       context.handlers.$pdata$_ZN6System8Generics11Collections8TList__1IPNS_7TObjectEE8GetPListEv
 0005:00001C80       context.handlers.$pdata$_ZN6System8Generics11Collections8TList__1IPNS_7TObjectEE8SetCountEi
 0005:00001EB4       context.handlers.$pdata$_ZN6System8Generics11Collections8TList__1IPNS_7TObjectEE9ExtractAtEi
 0005:00001CA4       context.handlers.$pdata$_ZN6System8Generics11Collections8TList__1IPNS_7TObjectEE9GrowCheckEi
 0005:00001CF8       context.handlers.$pdata$_ZN6System8Generics11Collections8TList__1IPNS_7TObjectEE9ItemValueES4_
 0005:00001D34       context.handlers.$pdata$_ZN6System8Generics11Collections8TList__1IPNS_7TObjectEEC3ENS_15DelphiInterfaceINS0_8Defaults12IComparer__1IS4_EEEE
 0005:00001D64       context.handlers.$pdata$_ZN6System8Generics11Collections8TList__1IPNS_7TObjectEEC3EPKS4_i
 0005:00001D4C       context.handlers.$pdata$_ZN6System8Generics11Collections8TList__1IPNS_7TObjectEEC3EPNS1_14TEnumerable__1IS4_EE
 0005:00001D1C       context.handlers.$pdata$_ZN6System8Generics11Collections8TList__1IPNS_7TObjectEEC3Ev
 0005:00001D7C       context.handlers.$pdata$_ZN6System8Generics11Collections8TList__1IPNS_7TObjectEED0Ev
 0005:0000210C       context.handlers.$pdata$_ZN6System8Generics8Defaults12TComparer__1IN7Strlist14TStringList__1INS_15DelphiInterfaceIN10Umodulelib22IContextRequestHandlerEEEE11TStringItemEE8_DefaultEv
 0005:00002094       context.handlers.$pdata$_ZN6System8Generics8Defaults12TComparer__1IN7Strlist14TStringList__1IU9__closurePFvNS_15DelphiInterfaceIN10Umodulelib15IRequestContextEEEEE11TStringItemEE8_DefaultEv
 0005:00002160       context.handlers.$pdata$_ZN6System8Generics8Defaults12TComparer__1IPNS_7TObjectEE8_DefaultEv
 0005:00000EDC       context.handlers.$pdata$_ZN7Context8Handlers12FinalizationEv
 0005:00000EE8       context.handlers.$pdata$_ZN7Context8Handlers14initializationEv
 0005:00000BB8       context.handlers.$pdata$_ZN7Context8Handlers15TContextRequest13GetRespStreamEv
 0005:00000BC4       context.handlers.$pdata$_ZN7Context8Handlers15TContextRequest13SetRespByJsonEN6System15DelphiInterfaceIN11Superobject12ISuperObjectEEE
 0005:00000BF4       context.handlers.$pdata$_ZN7Context8Handlers15TContextRequest13SetRespByJsonEPKN6System7TVarRecEi
 0005:00000C24       context.handlers.$pdata$_ZN7Context8Handlers15TContextRequest13SetRespStreamEPN6System7Classes7TStreamE
 0005:00000B70       context.handlers.$pdata$_ZN7Context8Handlers15TContextRequest17ExtractRespStreamEv
 0005:00000C30       context.handlers.$pdata$_ZN7Context8Handlers15TContextRequest17SetRespWithStatusEiN6System13UnicodeStringENS2_15DelphiInterfaceIN11Superobject12ISuperObjectEEE
 0005:00000C3C       context.handlers.$pdata$_ZN7Context8Handlers15TContextRequest17SetRespWithStatusEiN6System15DelphiInterfaceIN11Superobject12ISuperObjectEEE
 0005:00000C0C       context.handlers.$pdata$_ZN7Context8Handlers15TContextRequest19SetRespByStreamProcEN6System15DelphiInterfaceINS2_8Sysutils8TProc__1IPNS2_7Classes7TStreamEEEEE
 0005:00000B7C       context.handlers.$pdata$_ZN7Context8Handlers15TContextRequest6FailedEN6System13UnicodeStringE
 0005:00000BA0       context.handlers.$pdata$_ZN7Context8Handlers15TContextRequest7GetPathEv
 0005:00000BAC       context.handlers.$pdata$_ZN7Context8Handlers15TContextRequest7GetRespEv
 0005:00000BE8       context.handlers.$pdata$_ZN7Context8Handlers15TContextRequest7SetRespEN6System15DelphiInterfaceIN11Superobject12ISuperObjectEEE
 0005:00000B88       context.handlers.$pdata$_ZN7Context8Handlers15TContextRequest9GetErrMsgEv
 0005:00000B94       context.handlers.$pdata$_ZN7Context8Handlers15TContextRequest9GetParamsEv
 0005:00000BDC       context.handlers.$pdata$_ZN7Context8Handlers15TContextRequest9SetParamsEN6System15DelphiInterfaceIN11Superobject12ISuperObjectEEE
 0005:00000B40       context.handlers.$pdata$_ZN7Context8Handlers15TContextRequestC3EN6System13UnicodeStringENS2_15DelphiInterfaceIN11Superobject12ISuperObjectEEE
 0005:00000B64       context.handlers.$pdata$_ZN7Context8Handlers15TContextRequestD0Ev
 0005:00000C54       context.handlers.$pdata$_ZN7Context8Handlers18TContextRequestMap10AddHandlerEN6System13UnicodeStringENS2_15DelphiInterfaceIN10Umodulelib22IContextRequestHandlerEEE
 0005:00000D14       context.handlers.$pdata$_ZN7Context8Handlers18TContextRequestMap14ProcessRequestEN6System13UnicodeStringENS2_15DelphiInterfaceIN11Superobject12ISuperObjectEEEb
 0005:00000C48       context.handlers.$pdata$_ZN7Context8Handlers18TContextRequestMap17AddDefaultHandlerEU9__closurePFvN6System15DelphiInterfaceIN10Umodulelib15IRequestContextEEEE
 0005:00000CA8       context.handlers.$pdata$_ZN7Context8Handlers18TContextRequestMap20ProcessAsyncRequestsEv
 0005:00000CCC       context.handlers.$pdata$_ZN7Context8Handlers18TContextRequestMap22ProcessHandlerResquestEN6System15DelphiInterfaceIN10Umodulelib15IRequestContextEEE
 0005:00000C6C       context.handlers.$pdata$_ZN7Context8Handlers18TContextRequestMap6AddMapEN6System13UnicodeStringEU9__closurePFvNS2_15DelphiInterfaceIN10Umodulelib15IRequestContextEEEE
 0005:00000F00       context.handlers.$pdata$_ZN7Context8Handlers18TContextRequestMap6ToJsonEPN11Superobject17TSuperRttiContextE
 0005:00000C84       context.handlers.$pdata$_ZN7Context8Handlers18TContextRequestMapC3EPNS0_18TContextResManagerE
 0005:00000C9C       context.handlers.$pdata$_ZN7Context8Handlers18TContextRequestMapD0Ev
 0005:00000D50       context.handlers.$pdata$_ZN7Context8Handlers18TContextResManager13AddControllerEPN6System7TObjectE
 0005:00000D80       context.handlers.$pdata$_ZN7Context8Handlers18TContextResManager13AutoAddActionEPN6System7TObjectENS2_13UnicodeStringE
 0005:00000E28       context.handlers.$pdata$_ZN7Context8Handlers18TContextResManager14InitDependencyEv
 0005:00000E4C       context.handlers.$pdata$_ZN7Context8Handlers18TContextResManager14InitMsgHandlerEN6System15DelphiInterfaceIN10Umodulelib12IPostMessageEEE
 0005:00000EA0       context.handlers.$pdata$_ZN7Context8Handlers18TContextResManager14ProcessRequestEN6System13UnicodeStringENS2_15DelphiInterfaceIN11Superobject12ISuperObjectEEEb
 0005:00000DBC       context.handlers.$pdata$_ZN7Context8Handlers18TContextResManager15ClearDependencyEv
 0005:00000D98       context.handlers.$pdata$_ZN7Context8Handlers18TContextResManager18AutoInitRouterPathEPN6System7TObjectE
 0005:00000E94       context.handlers.$pdata$_ZN7Context8Handlers18TContextResManager20ProcessAsyncRequestsEv
 0005:00000D38       context.handlers.$pdata$_ZN7Context8Handlers18TContextResManager24AddContextRequestHandlerEN6System13UnicodeStringENS2_15DelphiInterfaceIN10Umodulelib22IContextRequestHandlerEEE
 0005:00000E04       context.handlers.$pdata$_ZN7Context8Handlers18TContextResManager25GetControllerRelativePathEPN6System7TObjectE
 0005:00000DB0       context.handlers.$pdata$_ZN7Context8Handlers18TContextResManager5CheckEv
 0005:00000D68       context.handlers.$pdata$_ZN7Context8Handlers18TContextResManager6AddMapEN6System13UnicodeStringEU9__closurePFvNS2_15DelphiInterfaceIN10Umodulelib15IRequestContextEEEE
 0005:00000E1C       context.handlers.$pdata$_ZN7Context8Handlers18TContextResManager7GetPathEv
 0005:00000E7C       context.handlers.$pdata$_ZN7Context8Handlers18TContextResManager7ProcessEN6System13UnicodeStringES3_
 0005:00000E64       context.handlers.$pdata$_ZN7Context8Handlers18TContextResManager7ProcessEv
 0005:00000EB8       context.handlers.$pdata$_ZN7Context8Handlers18TContextResManager7SetPathEN6System13UnicodeStringE
 0005:00000EC4       context.handlers.$pdata$_ZN7Context8Handlers18TContextResManager7SetRespEPNS0_15TContextRequestEiN6System15DelphiInterfaceIN11Superobject12ISuperObjectEEE
 0005:00000DE0       context.handlers.$pdata$_ZN7Context8Handlers18TContextResManagerC3EPN6System7TObjectE
 0005:00000DF8       context.handlers.$pdata$_ZN7Context8Handlers18TContextResManagerD0Ev
 0005:00000EF4       context.handlers.$pdata$_ZN7Context8Handlers23TContextRequestWithProc6ToJsonEPN11Superobject17TSuperRttiContextE
 0005:00001548       context.handlers.$pdata$_ZN7Strlist14TStringList__1IN6System15DelphiInterfaceIN10Umodulelib22IContextRequestHandlerEEEE10InsertItemEiNS1_13UnicodeStringES5_
 0005:000014D0       context.handlers.$pdata$_ZN7Strlist14TStringList__1IN6System15DelphiInterfaceIN10Umodulelib22IContextRequestHandlerEEEE14CompareItemStrENS1_13UnicodeStringES7_
 0005:0000156C       context.handlers.$pdata$_ZN7Strlist14TStringList__1IN6System15DelphiInterfaceIN10Umodulelib22IContextRequestHandlerEEEE16SetCaseSensitiveEb
 0005:00002100       context.handlers.$pdata$_ZN7Strlist14TStringList__1IN6System15DelphiInterfaceIN10Umodulelib22IContextRequestHandlerEEEE19TStringItemComparer7CompareERKNS6_11TStringItemESA_
 0005:000020E8       context.handlers.$pdata$_ZN7Strlist14TStringList__1IN6System15DelphiInterfaceIN10Umodulelib22IContextRequestHandlerEEEE19TStringItemComparerC3Eb
 0005:0000159C       context.handlers.$pdata$_ZN7Strlist14TStringList__1IN6System15DelphiInterfaceIN10Umodulelib22IContextRequestHandlerEEEE3AddENS1_13UnicodeStringES5_
 0005:000014DC       context.handlers.$pdata$_ZN7Strlist14TStringList__1IN6System15DelphiInterfaceIN10Umodulelib22IContextRequestHandlerEEEE3GetEi
 0005:0000150C       context.handlers.$pdata$_ZN7Strlist14TStringList__1IN6System15DelphiInterfaceIN10Umodulelib22IContextRequestHandlerEEEE3PutEiNS1_13UnicodeStringE
 0005:000015B4       context.handlers.$pdata$_ZN7Strlist14TStringList__1IN6System15DelphiInterfaceIN10Umodulelib22IContextRequestHandlerEEEE4FindENS1_13UnicodeStringERi
 0005:000015E4       context.handlers.$pdata$_ZN7Strlist14TStringList__1IN6System15DelphiInterfaceIN10Umodulelib22IContextRequestHandlerEEEE4SortEv
 0005:000015CC       context.handlers.$pdata$_ZN7Strlist14TStringList__1IN6System15DelphiInterfaceIN10Umodulelib22IContextRequestHandlerEEEE7IndexOfENS1_13UnicodeStringE
 0005:00001560       context.handlers.$pdata$_ZN7Strlist14TStringList__1IN6System15DelphiInterfaceIN10Umodulelib22IContextRequestHandlerEEEE8GetCountEv
 0005:000014F4       context.handlers.$pdata$_ZN7Strlist14TStringList__1IN6System15DelphiInterfaceIN10Umodulelib22IContextRequestHandlerEEEE9GetObjectEi
 0005:00001524       context.handlers.$pdata$_ZN7Strlist14TStringList__1IN6System15DelphiInterfaceIN10Umodulelib22IContextRequestHandlerEEEE9PutObjectEiS5_
 0005:0000153C       context.handlers.$pdata$_ZN7Strlist14TStringList__1IN6System15DelphiInterfaceIN10Umodulelib22IContextRequestHandlerEEEE9SetSortedEb
 0005:00001578       context.handlers.$pdata$_ZN7Strlist14TStringList__1IN6System15DelphiInterfaceIN10Umodulelib22IContextRequestHandlerEEEEC3Eb
 0005:00001590       context.handlers.$pdata$_ZN7Strlist14TStringList__1IN6System15DelphiInterfaceIN10Umodulelib22IContextRequestHandlerEEEED0Ev
 0005:00000F84       context.handlers.$pdata$_ZN7Strlist14TStringList__1IU9__closurePFvN6System15DelphiInterfaceIN10Umodulelib15IRequestContextEEEEE10InsertItemEiNS1_13UnicodeStringES8_
 0005:00000F0C       context.handlers.$pdata$_ZN7Strlist14TStringList__1IU9__closurePFvN6System15DelphiInterfaceIN10Umodulelib15IRequestContextEEEEE14CompareItemStrENS1_13UnicodeStringESA_
 0005:00000FA8       context.handlers.$pdata$_ZN7Strlist14TStringList__1IU9__closurePFvN6System15DelphiInterfaceIN10Umodulelib15IRequestContextEEEEE16SetCaseSensitiveEb
 0005:00002088       context.handlers.$pdata$_ZN7Strlist14TStringList__1IU9__closurePFvN6System15DelphiInterfaceIN10Umodulelib15IRequestContextEEEEE19TStringItemComparer7CompareERKNS9_11TStringItemESD_
 0005:00002070       context.handlers.$pdata$_ZN7Strlist14TStringList__1IU9__closurePFvN6System15DelphiInterfaceIN10Umodulelib15IRequestContextEEEEE19TStringItemComparerC3Eb
 0005:00000FD8       context.handlers.$pdata$_ZN7Strlist14TStringList__1IU9__closurePFvN6System15DelphiInterfaceIN10Umodulelib15IRequestContextEEEEE3AddENS1_13UnicodeStringES8_
 0005:00000F18       context.handlers.$pdata$_ZN7Strlist14TStringList__1IU9__closurePFvN6System15DelphiInterfaceIN10Umodulelib15IRequestContextEEEEE3GetEi
 0005:00000F48       context.handlers.$pdata$_ZN7Strlist14TStringList__1IU9__closurePFvN6System15DelphiInterfaceIN10Umodulelib15IRequestContextEEEEE3PutEiNS1_13UnicodeStringE
 0005:00000FF0       context.handlers.$pdata$_ZN7Strlist14TStringList__1IU9__closurePFvN6System15DelphiInterfaceIN10Umodulelib15IRequestContextEEEEE4FindENS1_13UnicodeStringERi
 0005:00001020       context.handlers.$pdata$_ZN7Strlist14TStringList__1IU9__closurePFvN6System15DelphiInterfaceIN10Umodulelib15IRequestContextEEEEE4SortEv
 0005:00001008       context.handlers.$pdata$_ZN7Strlist14TStringList__1IU9__closurePFvN6System15DelphiInterfaceIN10Umodulelib15IRequestContextEEEEE7IndexOfENS1_13UnicodeStringE
 0005:00000F9C       context.handlers.$pdata$_ZN7Strlist14TStringList__1IU9__closurePFvN6System15DelphiInterfaceIN10Umodulelib15IRequestContextEEEEE8GetCountEv
 0005:00000F30       context.handlers.$pdata$_ZN7Strlist14TStringList__1IU9__closurePFvN6System15DelphiInterfaceIN10Umodulelib15IRequestContextEEEEE9GetObjectEi
 0005:00000F60       context.handlers.$pdata$_ZN7Strlist14TStringList__1IU9__closurePFvN6System15DelphiInterfaceIN10Umodulelib15IRequestContextEEEEE9PutObjectEiS8_
 0005:00000F78       context.handlers.$pdata$_ZN7Strlist14TStringList__1IU9__closurePFvN6System15DelphiInterfaceIN10Umodulelib15IRequestContextEEEEE9SetSortedEb
 0005:00000FB4       context.handlers.$pdata$_ZN7Strlist14TStringList__1IU9__closurePFvN6System15DelphiInterfaceIN10Umodulelib15IRequestContextEEEEEC3Eb
 0005:00000FCC       context.handlers.$pdata$_ZN7Strlist14TStringList__1IU9__closurePFvN6System15DelphiInterfaceIN10Umodulelib15IRequestContextEEEEED0Ev
 0005:00000CE4       context.handlers.$pdata$_ZZN7Context8Handlers18TContextRequestMap14ProcessRequestEN6System13UnicodeStringENS2_15DelphiInterfaceIN11Superobject12ISuperObjectEEEbE11IsSubPathOfPvS3_S3_
 0005:00000CFC       context.handlers.$pdata$_ZZN7Context8Handlers18TContextRequestMap14ProcessRequestEN6System13UnicodeStringENS2_15DelphiInterfaceIN11Superobject12ISuperObjectEEEbE11RemoveQueryPvS3_
 0002:00002528       context.handlers.$unwind$_ZN5Fslib8TFifo__1IPN7Context8Handlers23TContextRequestWithProcEE11TEnumerator10DoMoveNextEv
 0002:00002518       context.handlers.$unwind$_ZN5Fslib8TFifo__1IPN7Context8Handlers23TContextRequestWithProcEE11TEnumerator10GetCurrentEv
 0002:00002524       context.handlers.$unwind$_ZN5Fslib8TFifo__1IPN7Context8Handlers23TContextRequestWithProcEE11TEnumerator12DoGetCurrentEv
 0002:0000252C       context.handlers.$unwind$_ZN5Fslib8TFifo__1IPN7Context8Handlers23TContextRequestWithProcEE11TEnumerator8MoveNextEv
 0002:000023E8       context.handlers.$unwind$_ZN5Fslib8TFifo__1IPN7Context8Handlers23TContextRequestWithProcEE12NotifyDeleteES4_
 0002:00002510       context.handlers.$unwind$_ZN5Fslib8TFifo__1IPN7Context8Handlers23TContextRequestWithProcEE13GetEnumeratorEv
 0002:000023E0       context.handlers.$unwind$_ZN5Fslib8TFifo__1IPN7Context8Handlers23TContextRequestWithProcEE15DoGetEnumeratorEv
 0002:000024B0       context.handlers.$unwind$_ZN5Fslib8TFifo__1IPN7Context8Handlers23TContextRequestWithProcEE3PopERS4_
 0002:000024E0       context.handlers.$unwind$_ZN5Fslib8TFifo__1IPN7Context8Handlers23TContextRequestWithProcEE4PeekERS4_
 0002:00002480       context.handlers.$unwind$_ZN5Fslib8TFifo__1IPN7Context8Handlers23TContextRequestWithProcEE4PushES4_
 0002:00002464       context.handlers.$unwind$_ZN5Fslib8TFifo__1IPN7Context8Handlers23TContextRequestWithProcEE5ClearEb
 0002:00002434       context.handlers.$unwind$_ZN5Fslib8TFifo__1IPN7Context8Handlers23TContextRequestWithProcEE5ClearEv
 0002:00002474       context.handlers.$unwind$_ZN5Fslib8TFifo__1IPN7Context8Handlers23TContextRequestWithProcEE5EmptyEv
 0002:0000246C       context.handlers.$unwind$_ZN5Fslib8TFifo__1IPN7Context8Handlers23TContextRequestWithProcEE7DequeueERS4_
 0002:00002478       context.handlers.$unwind$_ZN5Fslib8TFifo__1IPN7Context8Handlers23TContextRequestWithProcEE7EnqueueES4_
 0002:000023EC       context.handlers.$unwind$_ZN5Fslib8TFifo__1IPN7Context8Handlers23TContextRequestWithProcEEC3Ev
 0002:00002428       context.handlers.$unwind$_ZN5Fslib8TFifo__1IPN7Context8Handlers23TContextRequestWithProcEED0Ev
 0002:00001D14       context.handlers.$unwind$_ZN6System8Generics11Collections14TEnumerable__1IN7Strlist14TStringList__1INS_15DelphiInterfaceIN10Umodulelib22IContextRequestHandlerEEEE11TStringItemEE11ToArrayImplEi
 0002:00001D6C       context.handlers.$unwind$_ZN6System8Generics11Collections14TEnumerable__1IN7Strlist14TStringList__1INS_15DelphiInterfaceIN10Umodulelib22IContextRequestHandlerEEEE11TStringItemEE13GetEnumeratorEv
 0002:00001D74       context.handlers.$unwind$_ZN6System8Generics11Collections14TEnumerable__1IN7Strlist14TStringList__1INS_15DelphiInterfaceIN10Umodulelib22IContextRequestHandlerEEEE11TStringItemEE7ToArrayEv
 0002:00001D60       context.handlers.$unwind$_ZN6System8Generics11Collections14TEnumerable__1IN7Strlist14TStringList__1INS_15DelphiInterfaceIN10Umodulelib22IContextRequestHandlerEEEE11TStringItemEED0Ev
 0002:000014D4       context.handlers.$unwind$_ZN6System8Generics11Collections14TEnumerable__1IN7Strlist14TStringList__1IU9__closurePFvNS_15DelphiInterfaceIN10Umodulelib15IRequestContextEEEEE11TStringItemEE11ToArrayImplEi
 0002:0000152C       context.handlers.$unwind$_ZN6System8Generics11Collections14TEnumerable__1IN7Strlist14TStringList__1IU9__closurePFvNS_15DelphiInterfaceIN10Umodulelib15IRequestContextEEEEE11TStringItemEE13GetEnumeratorEv
 0002:00001534       context.handlers.$unwind$_ZN6System8Generics11Collections14TEnumerable__1IN7Strlist14TStringList__1IU9__closurePFvNS_15DelphiInterfaceIN10Umodulelib15IRequestContextEEEEE11TStringItemEE7ToArrayEv
 0002:00001520       context.handlers.$unwind$_ZN6System8Generics11Collections14TEnumerable__1IN7Strlist14TStringList__1IU9__closurePFvNS_15DelphiInterfaceIN10Umodulelib15IRequestContextEEEEE11TStringItemEED0Ev
 0002:00002364       context.handlers.$unwind$_ZN6System8Generics11Collections14TEnumerable__1IPN7Context8Handlers23TContextRequestWithProcEE11ToArrayImplEi
 0002:000023A0       context.handlers.$unwind$_ZN6System8Generics11Collections14TEnumerable__1IPN7Context8Handlers23TContextRequestWithProcEE13GetEnumeratorEv
 0002:000023A8       context.handlers.$unwind$_ZN6System8Generics11Collections14TEnumerable__1IPN7Context8Handlers23TContextRequestWithProcEE7ToArrayEv
 0002:00002394       context.handlers.$unwind$_ZN6System8Generics11Collections14TEnumerable__1IPN7Context8Handlers23TContextRequestWithProcEED0Ev
 0002:00002534       context.handlers.$unwind$_ZN6System8Generics11Collections14TEnumerable__1IPNS_7TObjectEE11ToArrayImplEi
 0002:00002570       context.handlers.$unwind$_ZN6System8Generics11Collections14TEnumerable__1IPNS_7TObjectEE13GetEnumeratorEv
 0002:00002578       context.handlers.$unwind$_ZN6System8Generics11Collections14TEnumerable__1IPNS_7TObjectEE7ToArrayEv
 0002:00002564       context.handlers.$unwind$_ZN6System8Generics11Collections14TEnumerable__1IPNS_7TObjectEED0Ev
 0002:00001DC0       context.handlers.$unwind$_ZN6System8Generics11Collections14TEnumerator__1IN7Strlist14TStringList__1INS_15DelphiInterfaceIN10Umodulelib22IContextRequestHandlerEEEE11TStringItemEE8MoveNextEv
 0002:00001580       context.handlers.$unwind$_ZN6System8Generics11Collections14TEnumerator__1IN7Strlist14TStringList__1IU9__closurePFvNS_15DelphiInterfaceIN10Umodulelib15IRequestContextEEEEE11TStringItemEE8MoveNextEv
 0002:000023D8       context.handlers.$unwind$_ZN6System8Generics11Collections14TEnumerator__1IPN7Context8Handlers23TContextRequestWithProcEE8MoveNextEv
 0002:000025A8       context.handlers.$unwind$_ZN6System8Generics11Collections14TEnumerator__1IPNS_7TObjectEE8MoveNextEv
 0002:000029F8       context.handlers.$unwind$_ZN6System8Generics11Collections14TObjectList__1IPNS_7TObjectEE6NotifyES4_NS1_23TCollectionNotificationE
 0002:00002A40       context.handlers.$unwind$_ZN6System8Generics11Collections14TObjectList__1IPNS_7TObjectEEC3Eb
 0002:00002A7C       context.handlers.$unwind$_ZN6System8Generics11Collections14TObjectList__1IPNS_7TObjectEEC3ENS_15DelphiInterfaceINS0_8Defaults12IComparer__1IS4_EEEEb
 0002:00002AB8       context.handlers.$unwind$_ZN6System8Generics11Collections14TObjectList__1IPNS_7TObjectEEC3EPNS1_14TEnumerable__1IS4_EEb
 0002:00002A04       context.handlers.$unwind$_ZN6System8Generics11Collections14TObjectList__1IPNS_7TObjectEEC3Ev
 0002:00002AF4       context.handlers.$unwind$_ZN6System8Generics11Collections14TObjectList__1IPNS_7TObjectEED0Ev
 0002:00002C44       context.handlers.$unwind$_ZN6System8Generics11Collections24@TList__1_Pack_0__ActRecIN7Strlist14TStringList__1INS_15DelphiInterfaceIN10Umodulelib22IContextRequestHandlerEEEE11TStringItemEE7_0_BodyEPKv
 0002:00002B7C       context.handlers.$unwind$_ZN6System8Generics11Collections24@TList__1_Pack_0__ActRecIN7Strlist14TStringList__1IU9__closurePFvNS_15DelphiInterfaceIN10Umodulelib15IRequestContextEEEEE11TStringItemEE7_0_BodyEPKv
 0002:00002CA0       context.handlers.$unwind$_ZN6System8Generics11Collections24@TList__1_Pack_0__ActRecIPNS_7TObjectEE7_0_BodyEPKv
 0002:00002C14       context.handlers.$unwind$_ZN6System8Generics11Collections24@TList__1_Pack_1__ActRecIN7Strlist14TStringList__1INS_15DelphiInterfaceIN10Umodulelib22IContextRequestHandlerEEEE11TStringItemEE7_0_BodyEPKv
 0002:00002B4C       context.handlers.$unwind$_ZN6System8Generics11Collections24@TList__1_Pack_1__ActRecIN7Strlist14TStringList__1IU9__closurePFvNS_15DelphiInterfaceIN10Umodulelib15IRequestContextEEEEE11TStringItemEE7_0_BodyEPKv
 0002:00002C98       context.handlers.$unwind$_ZN6System8Generics11Collections24@TList__1_Pack_1__ActRecIPNS_7TObjectEE7_0_BodyEPKv
 0002:00002C80       context.handlers.$unwind$_ZN6System8Generics11Collections6TArray12BinarySearchIN7Strlist14TStringList__1INS_15DelphiInterfaceIN10Umodulelib22IContextRequestHandlerEEEE11TStringItemEEEbPKT_iSD_RiNS6_INS0_8Defaults12IComparer__1ISD_EEEEii
 0002:00002BB8       context.handlers.$unwind$_ZN6System8Generics11Collections6TArray12BinarySearchIN7Strlist14TStringList__1IU9__closurePFvNS_15DelphiInterfaceIN10Umodulelib15IRequestContextEEEEE11TStringItemEEEbPKT_iSG_RiNS6_INS0_8Defaults12IComparer__1ISG_EEEEii
 0002:00002CB4       context.handlers.$unwind$_ZN6System8Generics11Collections6TArray12BinarySearchIPNS_7TObjectEEEbPKT_iS7_RiNS_15DelphiInterfaceINS0_8Defaults12IComparer__1IS7_EEEEii
 0002:00002C74       context.handlers.$unwind$_ZN6System8Generics11Collections6TArray4SortIN7Strlist14TStringList__1INS_15DelphiInterfaceIN10Umodulelib22IContextRequestHandlerEEEE11TStringItemEEEvPT_iNS6_INS0_8Defaults12IComparer__1ISD_EEEEii
 0002:00002BAC       context.handlers.$unwind$_ZN6System8Generics11Collections6TArray4SortIN7Strlist14TStringList__1IU9__closurePFvNS_15DelphiInterfaceIN10Umodulelib15IRequestContextEEEEE11TStringItemEEEvPT_iNS6_INS0_8Defaults12IComparer__1ISG_EEEEii
 0002:00002CA8       context.handlers.$unwind$_ZN6System8Generics11Collections6TArray4SortIPNS_7TObjectEEEvPT_iNS_15DelphiInterfaceINS0_8Defaults12IComparer__1IS7_EEEEii
 0002:00002CFC       context.handlers.$unwind$_ZN6System8Generics11Collections6TArray9QuickSortIN7Strlist14TStringList__1INS_15DelphiInterfaceIN10Umodulelib22IContextRequestHandlerEEEE11TStringItemEEEvPT_iNS6_INS0_8Defaults12IComparer__1ISD_EEEEii
 0002:00002CC4       context.handlers.$unwind$_ZN6System8Generics11Collections6TArray9QuickSortIN7Strlist14TStringList__1IU9__closurePFvNS_15DelphiInterfaceIN10Umodulelib15IRequestContextEEEEE11TStringItemEEEvPT_iNS6_INS0_8Defaults12IComparer__1ISG_EEEEii
 0002:00002D34       context.handlers.$unwind$_ZN6System8Generics11Collections6TArray9QuickSortIPNS_7TObjectEEEvPT_iNS_15DelphiInterfaceINS0_8Defaults12IComparer__1IS7_EEEEii
 0002:000020D4       context.handlers.$unwind$_ZN6System8Generics11Collections8TList__1IN7Strlist14TStringList__1INS_15DelphiInterfaceIN10Umodulelib22IContextRequestHandlerEEEE11TStringItemEE10RemoveItemERKSA_NS_5Types10TDirectionE
 0002:000022B4       context.handlers.$unwind$_ZN6System8Generics11Collections8TList__1IN7Strlist14TStringList__1INS_15DelphiInterfaceIN10Umodulelib22IContextRequestHandlerEEEE11TStringItemEE10TrimExcessEv
 0002:000020E8       context.handlers.$unwind$_ZN6System8Generics11Collections8TList__1IN7Strlist14TStringList__1INS_15DelphiInterfaceIN10Umodulelib22IContextRequestHandlerEEEE11TStringItemEE11DeleteRangeEii
 0002:000020F0       context.handlers.$unwind$_ZN6System8Generics11Collections8TList__1IN7Strlist14TStringList__1INS_15DelphiInterfaceIN10Umodulelib22IContextRequestHandlerEEEE11TStringItemEE11ExtractItemERKSA_NS_5Types10TDirectionE
 0002:00001DC8       context.handlers.$unwind$_ZN6System8Generics11Collections8TList__1IN7Strlist14TStringList__1INS_15DelphiInterfaceIN10Umodulelib22IContextRequestHandlerEEEE11TStringItemEE11FListHelperEv
 0002:00001DD8       context.handlers.$unwind$_ZN6System8Generics11Collections8TList__1IN7Strlist14TStringList__1INS_15DelphiInterfaceIN10Umodulelib22IContextRequestHandlerEEEE11TStringItemEE11GetCapacityEv
 0002:00002264       context.handlers.$unwind$_ZN6System8Generics11Collections8TList__1IN7Strlist14TStringList__1INS_15DelphiInterfaceIN10Umodulelib22IContextRequestHandlerEEEE11TStringItemEE11IndexOfItemERKSA_NS_5Types10TDirectionE
 0002:00001FC8       context.handlers.$unwind$_ZN6System8Generics11Collections8TList__1IN7Strlist14TStringList__1INS_15DelphiInterfaceIN10Umodulelib22IContextRequestHandlerEEEE11TStringItemEE11InsertRangeEiNS5_INS_14IEnumerable__1ISA_EEEE
 0002:00001FC0       context.handlers.$unwind$_ZN6System8Generics11Collections8TList__1IN7Strlist14TStringList__1INS_15DelphiInterfaceIN10Umodulelib22IContextRequestHandlerEEEE11TStringItemEE11InsertRangeEiPKSA_i
 0002:00001FB8       context.handlers.$unwind$_ZN6System8Generics11Collections8TList__1IN7Strlist14TStringList__1INS_15DelphiInterfaceIN10Umodulelib22IContextRequestHandlerEEEE11TStringItemEE11InsertRangeEiPKSA_ii
 0002:00002014       context.handlers.$unwind$_ZN6System8Generics11Collections8TList__1IN7Strlist14TStringList__1INS_15DelphiInterfaceIN10Umodulelib22IContextRequestHandlerEEEE11TStringItemEE11InsertRangeEiPNS1_14TEnumerable__1ISA_EE
 0002:00002270       context.handlers.$unwind$_ZN6System8Generics11Collections8TList__1IN7Strlist14TStringList__1INS_15DelphiInterfaceIN10Umodulelib22IContextRequestHandlerEEEE11TStringItemEE11LastIndexOfERKSA_
 0002:00001DDC       context.handlers.$unwind$_ZN6System8Generics11Collections8TList__1IN7Strlist14TStringList__1INS_15DelphiInterfaceIN10Umodulelib22IContextRequestHandlerEEEE11TStringItemEE11SetCapacityEi
 0002:00001E28       context.handlers.$unwind$_ZN6System8Generics11Collections8TList__1IN7Strlist14TStringList__1INS_15DelphiInterfaceIN10Umodulelib22IContextRequestHandlerEEEE11TStringItemEE11SetOnNotifyEU9__closurePFvPNS_7TObjectERKSA_NS1_23TCollectionNotificationEE
 0002:00002320       context.handlers.$unwind$_ZN6System8Generics11Collections8TList__1IN7Strlist14TStringList__1INS_15DelphiInterfaceIN10Umodulelib22IContextRequestHandlerEEEE11TStringItemEE11TEnumerator10DoMoveNextEv
 0002:000022CC       context.handlers.$unwind$_ZN6System8Generics11Collections8TList__1IN7Strlist14TStringList__1INS_15DelphiInterfaceIN10Umodulelib22IContextRequestHandlerEEEE11TStringItemEE11TEnumerator10GetCurrentEv
 0002:000022D4       context.handlers.$unwind$_ZN6System8Generics11Collections8TList__1IN7Strlist14TStringList__1INS_15DelphiInterfaceIN10Umodulelib22IContextRequestHandlerEEEE11TStringItemEE11TEnumerator12DoGetCurrentEv
 0002:00002360       context.handlers.$unwind$_ZN6System8Generics11Collections8TList__1IN7Strlist14TStringList__1INS_15DelphiInterfaceIN10Umodulelib22IContextRequestHandlerEEEE11TStringItemEE11TEnumerator8MoveNextEv
 0002:00002324       context.handlers.$unwind$_ZN6System8Generics11Collections8TList__1IN7Strlist14TStringList__1INS_15DelphiInterfaceIN10Umodulelib22IContextRequestHandlerEEEE11TStringItemEE11TEnumeratorC3EPSB_
 0002:0000229C       context.handlers.$unwind$_ZN6System8Generics11Collections8TList__1IN7Strlist14TStringList__1INS_15DelphiInterfaceIN10Umodulelib22IContextRequestHandlerEEEE11TStringItemEE12BinarySearchERKSA_Ri
 0002:000022A4       context.handlers.$unwind$_ZN6System8Generics11Collections8TList__1IN7Strlist14TStringList__1INS_15DelphiInterfaceIN10Umodulelib22IContextRequestHandlerEEEE11TStringItemEE12BinarySearchERKSA_RiNS5_INS0_8Defaults12IComparer__1ISA_EEEE
 0002:000022AC       context.handlers.$unwind$_ZN6System8Generics11Collections8TList__1IN7Strlist14TStringList__1INS_15DelphiInterfaceIN10Umodulelib22IContextRequestHandlerEEEE11TStringItemEE12BinarySearchERKSA_RiNS5_INS0_8Defaults12IComparer__1ISA_EEEEii
 0002:00001E1C       context.handlers.$unwind$_ZN6System8Generics11Collections8TList__1IN7Strlist14TStringList__1INS_15DelphiInterfaceIN10Umodulelib22IContextRequestHandlerEEEE11TStringItemEE12UpdateNotifyEv
 0002:000022C4       context.handlers.$unwind$_ZN6System8Generics11Collections8TList__1IN7Strlist14TStringList__1INS_15DelphiInterfaceIN10Umodulelib22IContextRequestHandlerEEEE11TStringItemEE13GetEnumeratorEv
 0002:00001E14       context.handlers.$unwind$_ZN6System8Generics11Collections8TList__1IN7Strlist14TStringList__1INS_15DelphiInterfaceIN10Umodulelib22IContextRequestHandlerEEEE11TStringItemEE14InternalNotifyEPKvNS1_23TCollectionNotificationE
 0002:00001E3C       context.handlers.$unwind$_ZN6System8Generics11Collections8TList__1IN7Strlist14TStringList__1INS_15DelphiInterfaceIN10Umodulelib22IContextRequestHandlerEEEE11TStringItemEE14UpdateComparerENS5_INS0_8Defaults12IComparer__1ISA_EEEE
 0002:00001E48       context.handlers.$unwind$_ZN6System8Generics11Collections8TList__1IN7Strlist14TStringList__1INS_15DelphiInterfaceIN10Umodulelib22IContextRequestHandlerEEEE11TStringItemEE15DoGetEnumeratorEv
 0002:00001E34       context.handlers.$unwind$_ZN6System8Generics11Collections8TList__1IN7Strlist14TStringList__1INS_15DelphiInterfaceIN10Umodulelib22IContextRequestHandlerEEEE11TStringItemEE15InternalCompareEPKvSD_
 0002:00001F90       context.handlers.$unwind$_ZN6System8Generics11Collections8TList__1IN7Strlist14TStringList__1INS_15DelphiInterfaceIN10Umodulelib22IContextRequestHandlerEEEE11TStringItemEE3AddERKSA_
 0002:000021F0       context.handlers.$unwind$_ZN6System8Generics11Collections8TList__1IN7Strlist14TStringList__1INS_15DelphiInterfaceIN10Umodulelib22IContextRequestHandlerEEEE11TStringItemEE4LastEv
 0002:0000219C       context.handlers.$unwind$_ZN6System8Generics11Collections8TList__1IN7Strlist14TStringList__1INS_15DelphiInterfaceIN10Umodulelib22IContextRequestHandlerEEEE11TStringItemEE4MoveEii
 0002:00002098       context.handlers.$unwind$_ZN6System8Generics11Collections8TList__1IN7Strlist14TStringList__1INS_15DelphiInterfaceIN10Umodulelib22IContextRequestHandlerEEEE11TStringItemEE4PackENS5_INSB_10TEmptyFuncEEE
 0002:00002064       context.handlers.$unwind$_ZN6System8Generics11Collections8TList__1IN7Strlist14TStringList__1INS_15DelphiInterfaceIN10Umodulelib22IContextRequestHandlerEEEE11TStringItemEE4PackEv
 0002:0000228C       context.handlers.$unwind$_ZN6System8Generics11Collections8TList__1IN7Strlist14TStringList__1INS_15DelphiInterfaceIN10Umodulelib22IContextRequestHandlerEEEE11TStringItemEE4SortENS5_INS0_8Defaults12IComparer__1ISA_EEEE
 0002:00002294       context.handlers.$unwind$_ZN6System8Generics11Collections8TList__1IN7Strlist14TStringList__1INS_15DelphiInterfaceIN10Umodulelib22IContextRequestHandlerEEEE11TStringItemEE4SortENS5_INS0_8Defaults12IComparer__1ISA_EEEEii
 0002:00002284       context.handlers.$unwind$_ZN6System8Generics11Collections8TList__1IN7Strlist14TStringList__1INS_15DelphiInterfaceIN10Umodulelib22IContextRequestHandlerEEEE11TStringItemEE4SortEv
 0002:0000223C       context.handlers.$unwind$_ZN6System8Generics11Collections8TList__1IN7Strlist14TStringList__1INS_15DelphiInterfaceIN10Umodulelib22IContextRequestHandlerEEEE11TStringItemEE5ClearEv
 0002:00001F54       context.handlers.$unwind$_ZN6System8Generics11Collections8TList__1IN7Strlist14TStringList__1INS_15DelphiInterfaceIN10Umodulelib22IContextRequestHandlerEEEE11TStringItemEE5ErrorENS_13UnicodeStringEx
 0002:00001F60       context.handlers.$unwind$_ZN6System8Generics11Collections8TList__1IN7Strlist14TStringList__1INS_15DelphiInterfaceIN10Umodulelib22IContextRequestHandlerEEEE11TStringItemEE5ErrorEPNS_13TResStringRecEx
 0002:000021A4       context.handlers.$unwind$_ZN6System8Generics11Collections8TList__1IN7Strlist14TStringList__1INS_15DelphiInterfaceIN10Umodulelib22IContextRequestHandlerEEEE11TStringItemEE5FirstEv
 0002:000020E0       context.handlers.$unwind$_ZN6System8Generics11Collections8TList__1IN7Strlist14TStringList__1INS_15DelphiInterfaceIN10Umodulelib22IContextRequestHandlerEEEE11TStringItemEE6DeleteEi
 0002:00002244       context.handlers.$unwind$_ZN6System8Generics11Collections8TList__1IN7Strlist14TStringList__1INS_15DelphiInterfaceIN10Umodulelib22IContextRequestHandlerEEEE11TStringItemEE6ExpandEv
 0002:00001FB0       context.handlers.$unwind$_ZN6System8Generics11Collections8TList__1IN7Strlist14TStringList__1INS_15DelphiInterfaceIN10Umodulelib22IContextRequestHandlerEEEE11TStringItemEE6InsertEiRKSA_
 0002:00001E50       context.handlers.$unwind$_ZN6System8Generics11Collections8TList__1IN7Strlist14TStringList__1INS_15DelphiInterfaceIN10Umodulelib22IContextRequestHandlerEEEE11TStringItemEE6NotifyERKSA_NS1_23TCollectionNotificationE
 0002:000020C8       context.handlers.$unwind$_ZN6System8Generics11Collections8TList__1IN7Strlist14TStringList__1INS_15DelphiInterfaceIN10Umodulelib22IContextRequestHandlerEEEE11TStringItemEE6RemoveERKSA_
 0002:000020FC       context.handlers.$unwind$_ZN6System8Generics11Collections8TList__1IN7Strlist14TStringList__1INS_15DelphiInterfaceIN10Umodulelib22IContextRequestHandlerEEEE11TStringItemEE7ExtractERKSA_
 0002:00001DF0       context.handlers.$unwind$_ZN6System8Generics11Collections8TList__1IN7Strlist14TStringList__1INS_15DelphiInterfaceIN10Umodulelib22IContextRequestHandlerEEEE11TStringItemEE7GetItemEi
 0002:00001DCC       context.handlers.$unwind$_ZN6System8Generics11Collections8TList__1IN7Strlist14TStringList__1INS_15DelphiInterfaceIN10Umodulelib22IContextRequestHandlerEEEE11TStringItemEE7GetListEv
 0002:00002258       context.handlers.$unwind$_ZN6System8Generics11Collections8TList__1IN7Strlist14TStringList__1INS_15DelphiInterfaceIN10Umodulelib22IContextRequestHandlerEEEE11TStringItemEE7IndexOfERKSA_
 0002:0000227C       context.handlers.$unwind$_ZN6System8Generics11Collections8TList__1IN7Strlist14TStringList__1INS_15DelphiInterfaceIN10Umodulelib22IContextRequestHandlerEEEE11TStringItemEE7ReverseEv
 0002:00001DFC       context.handlers.$unwind$_ZN6System8Generics11Collections8TList__1IN7Strlist14TStringList__1INS_15DelphiInterfaceIN10Umodulelib22IContextRequestHandlerEEEE11TStringItemEE7SetItemEiRKSA_
 0002:000022BC       context.handlers.$unwind$_ZN6System8Generics11Collections8TList__1IN7Strlist14TStringList__1INS_15DelphiInterfaceIN10Umodulelib22IContextRequestHandlerEEEE11TStringItemEE7ToArrayEv
 0002:00001FA0       context.handlers.$unwind$_ZN6System8Generics11Collections8TList__1IN7Strlist14TStringList__1INS_15DelphiInterfaceIN10Umodulelib22IContextRequestHandlerEEEE11TStringItemEE8AddRangeENS5_INS_14IEnumerable__1ISA_EEEE
 0002:00001F98       context.handlers.$unwind$_ZN6System8Generics11Collections8TList__1IN7Strlist14TStringList__1INS_15DelphiInterfaceIN10Umodulelib22IContextRequestHandlerEEEE11TStringItemEE8AddRangeEPKSA_i
 0002:00001FA8       context.handlers.$unwind$_ZN6System8Generics11Collections8TList__1IN7Strlist14TStringList__1INS_15DelphiInterfaceIN10Umodulelib22IContextRequestHandlerEEEE11TStringItemEE8AddRangeEPNS1_14TEnumerable__1ISA_EE
 0002:0000224C       context.handlers.$unwind$_ZN6System8Generics11Collections8TList__1IN7Strlist14TStringList__1INS_15DelphiInterfaceIN10Umodulelib22IContextRequestHandlerEEEE11TStringItemEE8ContainsERKSA_
 0002:00001E0C       context.handlers.$unwind$_ZN6System8Generics11Collections8TList__1IN7Strlist14TStringList__1INS_15DelphiInterfaceIN10Umodulelib22IContextRequestHandlerEEEE11TStringItemEE8DoDeleteEiNS1_23TCollectionNotificationE
 0002:00002194       context.handlers.$unwind$_ZN6System8Generics11Collections8TList__1IN7Strlist14TStringList__1INS_15DelphiInterfaceIN10Umodulelib22IContextRequestHandlerEEEE11TStringItemEE8ExchangeEii
 0002:00001DD4       context.handlers.$unwind$_ZN6System8Generics11Collections8TList__1IN7Strlist14TStringList__1INS_15DelphiInterfaceIN10Umodulelib22IContextRequestHandlerEEEE11TStringItemEE8GetPListEv
 0002:00001DE8       context.handlers.$unwind$_ZN6System8Generics11Collections8TList__1IN7Strlist14TStringList__1INS_15DelphiInterfaceIN10Umodulelib22IContextRequestHandlerEEEE11TStringItemEE8SetCountEi
 0002:00002148       context.handlers.$unwind$_ZN6System8Generics11Collections8TList__1IN7Strlist14TStringList__1INS_15DelphiInterfaceIN10Umodulelib22IContextRequestHandlerEEEE11TStringItemEE9ExtractAtEi
 0002:00001E04       context.handlers.$unwind$_ZN6System8Generics11Collections8TList__1IN7Strlist14TStringList__1INS_15DelphiInterfaceIN10Umodulelib22IContextRequestHandlerEEEE11TStringItemEE9GrowCheckEi
 0002:00001E44       context.handlers.$unwind$_ZN6System8Generics11Collections8TList__1IN7Strlist14TStringList__1INS_15DelphiInterfaceIN10Umodulelib22IContextRequestHandlerEEEE11TStringItemEE9ItemValueERKSA_
 0002:00001E94       context.handlers.$unwind$_ZN6System8Generics11Collections8TList__1IN7Strlist14TStringList__1INS_15DelphiInterfaceIN10Umodulelib22IContextRequestHandlerEEEE11TStringItemEEC3ENS5_INS0_8Defaults12IComparer__1ISA_EEEE
 0002:00001F0C       context.handlers.$unwind$_ZN6System8Generics11Collections8TList__1IN7Strlist14TStringList__1INS_15DelphiInterfaceIN10Umodulelib22IContextRequestHandlerEEEE11TStringItemEEC3EPKSA_i
 0002:00001ED0       context.handlers.$unwind$_ZN6System8Generics11Collections8TList__1IN7Strlist14TStringList__1INS_15DelphiInterfaceIN10Umodulelib22IContextRequestHandlerEEEE11TStringItemEEC3EPNS1_14TEnumerable__1ISA_EE
 0002:00001E58       context.handlers.$unwind$_ZN6System8Generics11Collections8TList__1IN7Strlist14TStringList__1INS_15DelphiInterfaceIN10Umodulelib22IContextRequestHandlerEEEE11TStringItemEEC3Ev
 0002:00001F48       context.handlers.$unwind$_ZN6System8Generics11Collections8TList__1IN7Strlist14TStringList__1INS_15DelphiInterfaceIN10Umodulelib22IContextRequestHandlerEEEE11TStringItemEED0Ev
 0002:00001894       context.handlers.$unwind$_ZN6System8Generics11Collections8TList__1IN7Strlist14TStringList__1IU9__closurePFvNS_15DelphiInterfaceIN10Umodulelib15IRequestContextEEEEE11TStringItemEE10RemoveItemERKSD_NS_5Types10TDirectionE
 0002:00001A74       context.handlers.$unwind$_ZN6System8Generics11Collections8TList__1IN7Strlist14TStringList__1IU9__closurePFvNS_15DelphiInterfaceIN10Umodulelib15IRequestContextEEEEE11TStringItemEE10TrimExcessEv
 0002:000018A8       context.handlers.$unwind$_ZN6System8Generics11Collections8TList__1IN7Strlist14TStringList__1IU9__closurePFvNS_15DelphiInterfaceIN10Umodulelib15IRequestContextEEEEE11TStringItemEE11DeleteRangeEii
 0002:000018B0       context.handlers.$unwind$_ZN6System8Generics11Collections8TList__1IN7Strlist14TStringList__1IU9__closurePFvNS_15DelphiInterfaceIN10Umodulelib15IRequestContextEEEEE11TStringItemEE11ExtractItemERKSD_NS_5Types10TDirectionE
 0002:00001588       context.handlers.$unwind$_ZN6System8Generics11Collections8TList__1IN7Strlist14TStringList__1IU9__closurePFvNS_15DelphiInterfaceIN10Umodulelib15IRequestContextEEEEE11TStringItemEE11FListHelperEv
 0002:00001598       context.handlers.$unwind$_ZN6System8Generics11Collections8TList__1IN7Strlist14TStringList__1IU9__closurePFvNS_15DelphiInterfaceIN10Umodulelib15IRequestContextEEEEE11TStringItemEE11GetCapacityEv
 0002:00001A24       context.handlers.$unwind$_ZN6System8Generics11Collections8TList__1IN7Strlist14TStringList__1IU9__closurePFvNS_15DelphiInterfaceIN10Umodulelib15IRequestContextEEEEE11TStringItemEE11IndexOfItemERKSD_NS_5Types10TDirectionE
 0002:00001788       context.handlers.$unwind$_ZN6System8Generics11Collections8TList__1IN7Strlist14TStringList__1IU9__closurePFvNS_15DelphiInterfaceIN10Umodulelib15IRequestContextEEEEE11TStringItemEE11InsertRangeEiNS5_INS_14IEnumerable__1ISD_EEEE
 0002:00001780       context.handlers.$unwind$_ZN6System8Generics11Collections8TList__1IN7Strlist14TStringList__1IU9__closurePFvNS_15DelphiInterfaceIN10Umodulelib15IRequestContextEEEEE11TStringItemEE11InsertRangeEiPKSD_i
 0002:00001778       context.handlers.$unwind$_ZN6System8Generics11Collections8TList__1IN7Strlist14TStringList__1IU9__closurePFvNS_15DelphiInterfaceIN10Umodulelib15IRequestContextEEEEE11TStringItemEE11InsertRangeEiPKSD_ii
 0002:000017D4       context.handlers.$unwind$_ZN6System8Generics11Collections8TList__1IN7Strlist14TStringList__1IU9__closurePFvNS_15DelphiInterfaceIN10Umodulelib15IRequestContextEEEEE11TStringItemEE11InsertRangeEiPNS1_14TEnumerable__1ISD_EE
 0002:00001A30       context.handlers.$unwind$_ZN6System8Generics11Collections8TList__1IN7Strlist14TStringList__1IU9__closurePFvNS_15DelphiInterfaceIN10Umodulelib15IRequestContextEEEEE11TStringItemEE11LastIndexOfERKSD_
 0002:0000159C       context.handlers.$unwind$_ZN6System8Generics11Collections8TList__1IN7Strlist14TStringList__1IU9__closurePFvNS_15DelphiInterfaceIN10Umodulelib15IRequestContextEEEEE11TStringItemEE11SetCapacityEi
 0002:000015E8       context.handlers.$unwind$_ZN6System8Generics11Collections8TList__1IN7Strlist14TStringList__1IU9__closurePFvNS_15DelphiInterfaceIN10Umodulelib15IRequestContextEEEEE11TStringItemEE11SetOnNotifyEU9__closurePFvPNS_7TObjectERKSD_NS1_23TCollectionNotificationEE
 0002:00001AE0       context.handlers.$unwind$_ZN6System8Generics11Collections8TList__1IN7Strlist14TStringList__1IU9__closurePFvNS_15DelphiInterfaceIN10Umodulelib15IRequestContextEEEEE11TStringItemEE11TEnumerator10DoMoveNextEv
 0002:00001A8C       context.handlers.$unwind$_ZN6System8Generics11Collections8TList__1IN7Strlist14TStringList__1IU9__closurePFvNS_15DelphiInterfaceIN10Umodulelib15IRequestContextEEEEE11TStringItemEE11TEnumerator10GetCurrentEv
 0002:00001A94       context.handlers.$unwind$_ZN6System8Generics11Collections8TList__1IN7Strlist14TStringList__1IU9__closurePFvNS_15DelphiInterfaceIN10Umodulelib15IRequestContextEEEEE11TStringItemEE11TEnumerator12DoGetCurrentEv
 0002:00001B20       context.handlers.$unwind$_ZN6System8Generics11Collections8TList__1IN7Strlist14TStringList__1IU9__closurePFvNS_15DelphiInterfaceIN10Umodulelib15IRequestContextEEEEE11TStringItemEE11TEnumerator8MoveNextEv
 0002:00001AE4       context.handlers.$unwind$_ZN6System8Generics11Collections8TList__1IN7Strlist14TStringList__1IU9__closurePFvNS_15DelphiInterfaceIN10Umodulelib15IRequestContextEEEEE11TStringItemEE11TEnumeratorC3EPSE_
 0002:00001A5C       context.handlers.$unwind$_ZN6System8Generics11Collections8TList__1IN7Strlist14TStringList__1IU9__closurePFvNS_15DelphiInterfaceIN10Umodulelib15IRequestContextEEEEE11TStringItemEE12BinarySearchERKSD_Ri
 0002:00001A64       context.handlers.$unwind$_ZN6System8Generics11Collections8TList__1IN7Strlist14TStringList__1IU9__closurePFvNS_15DelphiInterfaceIN10Umodulelib15IRequestContextEEEEE11TStringItemEE12BinarySearchERKSD_RiNS5_INS0_8Defaults12IComparer__1ISD_EEEE
 0002:00001A6C       context.handlers.$unwind$_ZN6System8Generics11Collections8TList__1IN7Strlist14TStringList__1IU9__closurePFvNS_15DelphiInterfaceIN10Umodulelib15IRequestContextEEEEE11TStringItemEE12BinarySearchERKSD_RiNS5_INS0_8Defaults12IComparer__1ISD_EEEEii
 0002:000015DC       context.handlers.$unwind$_ZN6System8Generics11Collections8TList__1IN7Strlist14TStringList__1IU9__closurePFvNS_15DelphiInterfaceIN10Umodulelib15IRequestContextEEEEE11TStringItemEE12UpdateNotifyEv
 0002:00001A84       context.handlers.$unwind$_ZN6System8Generics11Collections8TList__1IN7Strlist14TStringList__1IU9__closurePFvNS_15DelphiInterfaceIN10Umodulelib15IRequestContextEEEEE11TStringItemEE13GetEnumeratorEv
 0002:000015D4       context.handlers.$unwind$_ZN6System8Generics11Collections8TList__1IN7Strlist14TStringList__1IU9__closurePFvNS_15DelphiInterfaceIN10Umodulelib15IRequestContextEEEEE11TStringItemEE14InternalNotifyEPKvNS1_23TCollectionNotificationE
 0002:000015FC       context.handlers.$unwind$_ZN6System8Generics11Collections8TList__1IN7Strlist14TStringList__1IU9__closurePFvNS_15DelphiInterfaceIN10Umodulelib15IRequestContextEEEEE11TStringItemEE14UpdateComparerENS5_INS0_8Defaults12IComparer__1ISD_EEEE
 0002:00001608       context.handlers.$unwind$_ZN6System8Generics11Collections8TList__1IN7Strlist14TStringList__1IU9__closurePFvNS_15DelphiInterfaceIN10Umodulelib15IRequestContextEEEEE11TStringItemEE15DoGetEnumeratorEv
 0002:000015F4       context.handlers.$unwind$_ZN6System8Generics11Collections8TList__1IN7Strlist14TStringList__1IU9__closurePFvNS_15DelphiInterfaceIN10Umodulelib15IRequestContextEEEEE11TStringItemEE15InternalCompareEPKvSG_
 0002:00001750       context.handlers.$unwind$_ZN6System8Generics11Collections8TList__1IN7Strlist14TStringList__1IU9__closurePFvNS_15DelphiInterfaceIN10Umodulelib15IRequestContextEEEEE11TStringItemEE3AddERKSD_
 0002:000019B0       context.handlers.$unwind$_ZN6System8Generics11Collections8TList__1IN7Strlist14TStringList__1IU9__closurePFvNS_15DelphiInterfaceIN10Umodulelib15IRequestContextEEEEE11TStringItemEE4LastEv
 0002:0000195C       context.handlers.$unwind$_ZN6System8Generics11Collections8TList__1IN7Strlist14TStringList__1IU9__closurePFvNS_15DelphiInterfaceIN10Umodulelib15IRequestContextEEEEE11TStringItemEE4MoveEii
 0002:00001858       context.handlers.$unwind$_ZN6System8Generics11Collections8TList__1IN7Strlist14TStringList__1IU9__closurePFvNS_15DelphiInterfaceIN10Umodulelib15IRequestContextEEEEE11TStringItemEE4PackENS5_INSE_10TEmptyFuncEEE
 0002:00001824       context.handlers.$unwind$_ZN6System8Generics11Collections8TList__1IN7Strlist14TStringList__1IU9__closurePFvNS_15DelphiInterfaceIN10Umodulelib15IRequestContextEEEEE11TStringItemEE4PackEv
 0002:00001A4C       context.handlers.$unwind$_ZN6System8Generics11Collections8TList__1IN7Strlist14TStringList__1IU9__closurePFvNS_15DelphiInterfaceIN10Umodulelib15IRequestContextEEEEE11TStringItemEE4SortENS5_INS0_8Defaults12IComparer__1ISD_EEEE
 0002:00001A54       context.handlers.$unwind$_ZN6System8Generics11Collections8TList__1IN7Strlist14TStringList__1IU9__closurePFvNS_15DelphiInterfaceIN10Umodulelib15IRequestContextEEEEE11TStringItemEE4SortENS5_INS0_8Defaults12IComparer__1ISD_EEEEii
 0002:00001A44       context.handlers.$unwind$_ZN6System8Generics11Collections8TList__1IN7Strlist14TStringList__1IU9__closurePFvNS_15DelphiInterfaceIN10Umodulelib15IRequestContextEEEEE11TStringItemEE4SortEv
 0002:000019FC       context.handlers.$unwind$_ZN6System8Generics11Collections8TList__1IN7Strlist14TStringList__1IU9__closurePFvNS_15DelphiInterfaceIN10Umodulelib15IRequestContextEEEEE11TStringItemEE5ClearEv
 0002:00001714       context.handlers.$unwind$_ZN6System8Generics11Collections8TList__1IN7Strlist14TStringList__1IU9__closurePFvNS_15DelphiInterfaceIN10Umodulelib15IRequestContextEEEEE11TStringItemEE5ErrorENS_13UnicodeStringEx
 0002:00001720       context.handlers.$unwind$_ZN6System8Generics11Collections8TList__1IN7Strlist14TStringList__1IU9__closurePFvNS_15DelphiInterfaceIN10Umodulelib15IRequestContextEEEEE11TStringItemEE5ErrorEPNS_13TResStringRecEx
 0002:00001964       context.handlers.$unwind$_ZN6System8Generics11Collections8TList__1IN7Strlist14TStringList__1IU9__closurePFvNS_15DelphiInterfaceIN10Umodulelib15IRequestContextEEEEE11TStringItemEE5FirstEv
 0002:000018A0       context.handlers.$unwind$_ZN6System8Generics11Collections8TList__1IN7Strlist14TStringList__1IU9__closurePFvNS_15DelphiInterfaceIN10Umodulelib15IRequestContextEEEEE11TStringItemEE6DeleteEi
 0002:00001A04       context.handlers.$unwind$_ZN6System8Generics11Collections8TList__1IN7Strlist14TStringList__1IU9__closurePFvNS_15DelphiInterfaceIN10Umodulelib15IRequestContextEEEEE11TStringItemEE6ExpandEv
 0002:00001770       context.handlers.$unwind$_ZN6System8Generics11Collections8TList__1IN7Strlist14TStringList__1IU9__closurePFvNS_15DelphiInterfaceIN10Umodulelib15IRequestContextEEEEE11TStringItemEE6InsertEiRKSD_
 0002:00001610       context.handlers.$unwind$_ZN6System8Generics11Collections8TList__1IN7Strlist14TStringList__1IU9__closurePFvNS_15DelphiInterfaceIN10Umodulelib15IRequestContextEEEEE11TStringItemEE6NotifyERKSD_NS1_23TCollectionNotificationE
 0002:00001888       context.handlers.$unwind$_ZN6System8Generics11Collections8TList__1IN7Strlist14TStringList__1IU9__closurePFvNS_15DelphiInterfaceIN10Umodulelib15IRequestContextEEEEE11TStringItemEE6RemoveERKSD_
 0002:000018BC       context.handlers.$unwind$_ZN6System8Generics11Collections8TList__1IN7Strlist14TStringList__1IU9__closurePFvNS_15DelphiInterfaceIN10Umodulelib15IRequestContextEEEEE11TStringItemEE7ExtractERKSD_
 0002:000015B0       context.handlers.$unwind$_ZN6System8Generics11Collections8TList__1IN7Strlist14TStringList__1IU9__closurePFvNS_15DelphiInterfaceIN10Umodulelib15IRequestContextEEEEE11TStringItemEE7GetItemEi
 0002:0000158C       context.handlers.$unwind$_ZN6System8Generics11Collections8TList__1IN7Strlist14TStringList__1IU9__closurePFvNS_15DelphiInterfaceIN10Umodulelib15IRequestContextEEEEE11TStringItemEE7GetListEv
 0002:00001A18       context.handlers.$unwind$_ZN6System8Generics11Collections8TList__1IN7Strlist14TStringList__1IU9__closurePFvNS_15DelphiInterfaceIN10Umodulelib15IRequestContextEEEEE11TStringItemEE7IndexOfERKSD_
 0002:00001A3C       context.handlers.$unwind$_ZN6System8Generics11Collections8TList__1IN7Strlist14TStringList__1IU9__closurePFvNS_15DelphiInterfaceIN10Umodulelib15IRequestContextEEEEE11TStringItemEE7ReverseEv
 0002:000015BC       context.handlers.$unwind$_ZN6System8Generics11Collections8TList__1IN7Strlist14TStringList__1IU9__closurePFvNS_15DelphiInterfaceIN10Umodulelib15IRequestContextEEEEE11TStringItemEE7SetItemEiRKSD_
 0002:00001A7C       context.handlers.$unwind$_ZN6System8Generics11Collections8TList__1IN7Strlist14TStringList__1IU9__closurePFvNS_15DelphiInterfaceIN10Umodulelib15IRequestContextEEEEE11TStringItemEE7ToArrayEv
 0002:00001760       context.handlers.$unwind$_ZN6System8Generics11Collections8TList__1IN7Strlist14TStringList__1IU9__closurePFvNS_15DelphiInterfaceIN10Umodulelib15IRequestContextEEEEE11TStringItemEE8AddRangeENS5_INS_14IEnumerable__1ISD_EEEE
 0002:00001758       context.handlers.$unwind$_ZN6System8Generics11Collections8TList__1IN7Strlist14TStringList__1IU9__closurePFvNS_15DelphiInterfaceIN10Umodulelib15IRequestContextEEEEE11TStringItemEE8AddRangeEPKSD_i
 0002:00001768       context.handlers.$unwind$_ZN6System8Generics11Collections8TList__1IN7Strlist14TStringList__1IU9__closurePFvNS_15DelphiInterfaceIN10Umodulelib15IRequestContextEEEEE11TStringItemEE8AddRangeEPNS1_14TEnumerable__1ISD_EE
 0002:00001A0C       context.handlers.$unwind$_ZN6System8Generics11Collections8TList__1IN7Strlist14TStringList__1IU9__closurePFvNS_15DelphiInterfaceIN10Umodulelib15IRequestContextEEEEE11TStringItemEE8ContainsERKSD_
 0002:000015CC       context.handlers.$unwind$_ZN6System8Generics11Collections8TList__1IN7Strlist14TStringList__1IU9__closurePFvNS_15DelphiInterfaceIN10Umodulelib15IRequestContextEEEEE11TStringItemEE8DoDeleteEiNS1_23TCollectionNotificationE
 0002:00001954       context.handlers.$unwind$_ZN6System8Generics11Collections8TList__1IN7Strlist14TStringList__1IU9__closurePFvNS_15DelphiInterfaceIN10Umodulelib15IRequestContextEEEEE11TStringItemEE8ExchangeEii
 0002:00001594       context.handlers.$unwind$_ZN6System8Generics11Collections8TList__1IN7Strlist14TStringList__1IU9__closurePFvNS_15DelphiInterfaceIN10Umodulelib15IRequestContextEEEEE11TStringItemEE8GetPListEv
 0002:000015A8       context.handlers.$unwind$_ZN6System8Generics11Collections8TList__1IN7Strlist14TStringList__1IU9__closurePFvNS_15DelphiInterfaceIN10Umodulelib15IRequestContextEEEEE11TStringItemEE8SetCountEi
 0002:00001908       context.handlers.$unwind$_ZN6System8Generics11Collections8TList__1IN7Strlist14TStringList__1IU9__closurePFvNS_15DelphiInterfaceIN10Umodulelib15IRequestContextEEEEE11TStringItemEE9ExtractAtEi
 0002:000015C4       context.handlers.$unwind$_ZN6System8Generics11Collections8TList__1IN7Strlist14TStringList__1IU9__closurePFvNS_15DelphiInterfaceIN10Umodulelib15IRequestContextEEEEE11TStringItemEE9GrowCheckEi
 0002:00001604       context.handlers.$unwind$_ZN6System8Generics11Collections8TList__1IN7Strlist14TStringList__1IU9__closurePFvNS_15DelphiInterfaceIN10Umodulelib15IRequestContextEEEEE11TStringItemEE9ItemValueERKSD_
 0002:00001654       context.handlers.$unwind$_ZN6System8Generics11Collections8TList__1IN7Strlist14TStringList__1IU9__closurePFvNS_15DelphiInterfaceIN10Umodulelib15IRequestContextEEEEE11TStringItemEEC3ENS5_INS0_8Defaults12IComparer__1ISD_EEEE
 0002:000016CC       context.handlers.$unwind$_ZN6System8Generics11Collections8TList__1IN7Strlist14TStringList__1IU9__closurePFvNS_15DelphiInterfaceIN10Umodulelib15IRequestContextEEEEE11TStringItemEEC3EPKSD_i
 0002:00001690       context.handlers.$unwind$_ZN6System8Generics11Collections8TList__1IN7Strlist14TStringList__1IU9__closurePFvNS_15DelphiInterfaceIN10Umodulelib15IRequestContextEEEEE11TStringItemEEC3EPNS1_14TEnumerable__1ISD_EE
 0002:00001618       context.handlers.$unwind$_ZN6System8Generics11Collections8TList__1IN7Strlist14TStringList__1IU9__closurePFvNS_15DelphiInterfaceIN10Umodulelib15IRequestContextEEEEE11TStringItemEEC3Ev
 0002:00001708       context.handlers.$unwind$_ZN6System8Generics11Collections8TList__1IN7Strlist14TStringList__1IU9__closurePFvNS_15DelphiInterfaceIN10Umodulelib15IRequestContextEEEEE11TStringItemEED0Ev
 0002:000028A4       context.handlers.$unwind$_ZN6System8Generics11Collections8TList__1IPNS_7TObjectEE10RemoveItemES4_NS_5Types10TDirectionE
 0002:0000298C       context.handlers.$unwind$_ZN6System8Generics11Collections8TList__1IPNS_7TObjectEE10TrimExcessEv
 0002:000028B8       context.handlers.$unwind$_ZN6System8Generics11Collections8TList__1IPNS_7TObjectEE11DeleteRangeEii
 0002:000028C0       context.handlers.$unwind$_ZN6System8Generics11Collections8TList__1IPNS_7TObjectEE11ExtractItemES4_NS_5Types10TDirectionE
 0002:000025B0       context.handlers.$unwind$_ZN6System8Generics11Collections8TList__1IPNS_7TObjectEE11FListHelperEv
 0002:000025C0       context.handlers.$unwind$_ZN6System8Generics11Collections8TList__1IPNS_7TObjectEE11GetCapacityEv
 0002:0000293C       context.handlers.$unwind$_ZN6System8Generics11Collections8TList__1IPNS_7TObjectEE11IndexOfItemES4_NS_5Types10TDirectionE
 0002:000027B4       context.handlers.$unwind$_ZN6System8Generics11Collections8TList__1IPNS_7TObjectEE11InsertRangeEiNS_15DelphiInterfaceINS_14IEnumerable__1IS4_EEEE
 0002:000027AC       context.handlers.$unwind$_ZN6System8Generics11Collections8TList__1IPNS_7TObjectEE11InsertRangeEiPKS4_i
 0002:000027A4       context.handlers.$unwind$_ZN6System8Generics11Collections8TList__1IPNS_7TObjectEE11InsertRangeEiPKS4_ii
 0002:00002800       context.handlers.$unwind$_ZN6System8Generics11Collections8TList__1IPNS_7TObjectEE11InsertRangeEiPNS1_14TEnumerable__1IS4_EE
 0002:00002948       context.handlers.$unwind$_ZN6System8Generics11Collections8TList__1IPNS_7TObjectEE11LastIndexOfES4_
 0002:000025C4       context.handlers.$unwind$_ZN6System8Generics11Collections8TList__1IPNS_7TObjectEE11SetCapacityEi
 0002:00002610       context.handlers.$unwind$_ZN6System8Generics11Collections8TList__1IPNS_7TObjectEE11SetOnNotifyEU9__closurePFvS4_S4_NS1_23TCollectionNotificationEE
 0002:000029B4       context.handlers.$unwind$_ZN6System8Generics11Collections8TList__1IPNS_7TObjectEE11TEnumerator10DoMoveNextEv
 0002:000029A4       context.handlers.$unwind$_ZN6System8Generics11Collections8TList__1IPNS_7TObjectEE11TEnumerator10GetCurrentEv
 0002:000029A8       context.handlers.$unwind$_ZN6System8Generics11Collections8TList__1IPNS_7TObjectEE11TEnumerator12DoGetCurrentEv
 0002:000029F4       context.handlers.$unwind$_ZN6System8Generics11Collections8TList__1IPNS_7TObjectEE11TEnumerator8MoveNextEv
 0002:000029B8       context.handlers.$unwind$_ZN6System8Generics11Collections8TList__1IPNS_7TObjectEE11TEnumeratorC3EPS5_
 0002:00002974       context.handlers.$unwind$_ZN6System8Generics11Collections8TList__1IPNS_7TObjectEE12BinarySearchES4_Ri
 0002:0000297C       context.handlers.$unwind$_ZN6System8Generics11Collections8TList__1IPNS_7TObjectEE12BinarySearchES4_RiNS_15DelphiInterfaceINS0_8Defaults12IComparer__1IS4_EEEE
 0002:00002984       context.handlers.$unwind$_ZN6System8Generics11Collections8TList__1IPNS_7TObjectEE12BinarySearchES4_RiNS_15DelphiInterfaceINS0_8Defaults12IComparer__1IS4_EEEEii
 0002:00002604       context.handlers.$unwind$_ZN6System8Generics11Collections8TList__1IPNS_7TObjectEE12UpdateNotifyEv
 0002:0000299C       context.handlers.$unwind$_ZN6System8Generics11Collections8TList__1IPNS_7TObjectEE13GetEnumeratorEv
 0002:000025FC       context.handlers.$unwind$_ZN6System8Generics11Collections8TList__1IPNS_7TObjectEE14InternalNotifyEPKvNS1_23TCollectionNotificationE
 0002:00002624       context.handlers.$unwind$_ZN6System8Generics11Collections8TList__1IPNS_7TObjectEE14UpdateComparerENS_15DelphiInterfaceINS0_8Defaults12IComparer__1IS4_EEEE
 0002:00002634       context.handlers.$unwind$_ZN6System8Generics11Collections8TList__1IPNS_7TObjectEE15DoGetEnumeratorEv
 0002:0000261C       context.handlers.$unwind$_ZN6System8Generics11Collections8TList__1IPNS_7TObjectEE15InternalCompareEPKvS7_
 0002:0000277C       context.handlers.$unwind$_ZN6System8Generics11Collections8TList__1IPNS_7TObjectEE3AddES4_
 0002:00002904       context.handlers.$unwind$_ZN6System8Generics11Collections8TList__1IPNS_7TObjectEE4LastEv
 0002:000028F0       context.handlers.$unwind$_ZN6System8Generics11Collections8TList__1IPNS_7TObjectEE4MoveEii
 0002:00002868       context.handlers.$unwind$_ZN6System8Generics11Collections8TList__1IPNS_7TObjectEE4PackENS_15DelphiInterfaceINS5_10TEmptyFuncEEE
 0002:00002834       context.handlers.$unwind$_ZN6System8Generics11Collections8TList__1IPNS_7TObjectEE4PackEv
 0002:00002964       context.handlers.$unwind$_ZN6System8Generics11Collections8TList__1IPNS_7TObjectEE4SortENS_15DelphiInterfaceINS0_8Defaults12IComparer__1IS4_EEEE
 0002:0000296C       context.handlers.$unwind$_ZN6System8Generics11Collections8TList__1IPNS_7TObjectEE4SortENS_15DelphiInterfaceINS0_8Defaults12IComparer__1IS4_EEEEii
 0002:0000295C       context.handlers.$unwind$_ZN6System8Generics11Collections8TList__1IPNS_7TObjectEE4SortEv
 0002:00002914       context.handlers.$unwind$_ZN6System8Generics11Collections8TList__1IPNS_7TObjectEE5ClearEv
 0002:00002740       context.handlers.$unwind$_ZN6System8Generics11Collections8TList__1IPNS_7TObjectEE5ErrorENS_13UnicodeStringEx
 0002:0000274C       context.handlers.$unwind$_ZN6System8Generics11Collections8TList__1IPNS_7TObjectEE5ErrorEPNS_13TResStringRecEx
 0002:000028F8       context.handlers.$unwind$_ZN6System8Generics11Collections8TList__1IPNS_7TObjectEE5FirstEv
 0002:000028B0       context.handlers.$unwind$_ZN6System8Generics11Collections8TList__1IPNS_7TObjectEE6DeleteEi
 0002:0000291C       context.handlers.$unwind$_ZN6System8Generics11Collections8TList__1IPNS_7TObjectEE6ExpandEv
 0002:0000279C       context.handlers.$unwind$_ZN6System8Generics11Collections8TList__1IPNS_7TObjectEE6InsertEiS4_
 0002:0000263C       context.handlers.$unwind$_ZN6System8Generics11Collections8TList__1IPNS_7TObjectEE6NotifyES4_NS1_23TCollectionNotificationE
 0002:00002898       context.handlers.$unwind$_ZN6System8Generics11Collections8TList__1IPNS_7TObjectEE6RemoveES4_
 0002:000028CC       context.handlers.$unwind$_ZN6System8Generics11Collections8TList__1IPNS_7TObjectEE7ExtractES4_
 0002:000025D8       context.handlers.$unwind$_ZN6System8Generics11Collections8TList__1IPNS_7TObjectEE7GetItemEi
 0002:000025B4       context.handlers.$unwind$_ZN6System8Generics11Collections8TList__1IPNS_7TObjectEE7GetListEv
 0002:00002930       context.handlers.$unwind$_ZN6System8Generics11Collections8TList__1IPNS_7TObjectEE7IndexOfES4_
 0002:00002954       context.handlers.$unwind$_ZN6System8Generics11Collections8TList__1IPNS_7TObjectEE7ReverseEv
 0002:000025E4       context.handlers.$unwind$_ZN6System8Generics11Collections8TList__1IPNS_7TObjectEE7SetItemEiS4_
 0002:00002994       context.handlers.$unwind$_ZN6System8Generics11Collections8TList__1IPNS_7TObjectEE7ToArrayEv
 0002:0000278C       context.handlers.$unwind$_ZN6System8Generics11Collections8TList__1IPNS_7TObjectEE8AddRangeENS_15DelphiInterfaceINS_14IEnumerable__1IS4_EEEE
 0002:00002784       context.handlers.$unwind$_ZN6System8Generics11Collections8TList__1IPNS_7TObjectEE8AddRangeEPKS4_i
 0002:00002794       context.handlers.$unwind$_ZN6System8Generics11Collections8TList__1IPNS_7TObjectEE8AddRangeEPNS1_14TEnumerable__1IS4_EE
 0002:00002924       context.handlers.$unwind$_ZN6System8Generics11Collections8TList__1IPNS_7TObjectEE8ContainsES4_
 0002:000025F4       context.handlers.$unwind$_ZN6System8Generics11Collections8TList__1IPNS_7TObjectEE8DoDeleteEiNS1_23TCollectionNotificationE
 0002:000028E8       context.handlers.$unwind$_ZN6System8Generics11Collections8TList__1IPNS_7TObjectEE8ExchangeEii
 0002:000025BC       context.handlers.$unwind$_ZN6System8Generics11Collections8TList__1IPNS_7TObjectEE8GetPListEv
 0002:000025D0       context.handlers.$unwind$_ZN6System8Generics11Collections8TList__1IPNS_7TObjectEE8SetCountEi
 0002:000028D8       context.handlers.$unwind$_ZN6System8Generics11Collections8TList__1IPNS_7TObjectEE9ExtractAtEi
 0002:000025EC       context.handlers.$unwind$_ZN6System8Generics11Collections8TList__1IPNS_7TObjectEE9GrowCheckEi
 0002:00002630       context.handlers.$unwind$_ZN6System8Generics11Collections8TList__1IPNS_7TObjectEE9ItemValueES4_
 0002:00002680       context.handlers.$unwind$_ZN6System8Generics11Collections8TList__1IPNS_7TObjectEEC3ENS_15DelphiInterfaceINS0_8Defaults12IComparer__1IS4_EEEE
 0002:000026F8       context.handlers.$unwind$_ZN6System8Generics11Collections8TList__1IPNS_7TObjectEEC3EPKS4_i
 0002:000026BC       context.handlers.$unwind$_ZN6System8Generics11Collections8TList__1IPNS_7TObjectEEC3EPNS1_14TEnumerable__1IS4_EE
 0002:00002644       context.handlers.$unwind$_ZN6System8Generics11Collections8TList__1IPNS_7TObjectEEC3Ev
 0002:00002734       context.handlers.$unwind$_ZN6System8Generics11Collections8TList__1IPNS_7TObjectEED0Ev
 0002:00002C0C       context.handlers.$unwind$_ZN6System8Generics8Defaults12TComparer__1IN7Strlist14TStringList__1INS_15DelphiInterfaceIN10Umodulelib22IContextRequestHandlerEEEE11TStringItemEE8_DefaultEv
 0002:00002B44       context.handlers.$unwind$_ZN6System8Generics8Defaults12TComparer__1IN7Strlist14TStringList__1IU9__closurePFvNS_15DelphiInterfaceIN10Umodulelib15IRequestContextEEEEE11TStringItemEE8_DefaultEv
 0002:00002C90       context.handlers.$unwind$_ZN6System8Generics8Defaults12TComparer__1IPNS_7TObjectEE8_DefaultEv
 0002:000012BC       context.handlers.$unwind$_ZN7Context8Handlers12FinalizationEv
 0002:000012C0       context.handlers.$unwind$_ZN7Context8Handlers14initializationEv
 0002:00000CC0       context.handlers.$unwind$_ZN7Context8Handlers15TContextRequest13GetRespStreamEv
 0002:00000CC4       context.handlers.$unwind$_ZN7Context8Handlers15TContextRequest13SetRespByJsonEN6System15DelphiInterfaceIN11Superobject12ISuperObjectEEE
 0002:00000D08       context.handlers.$unwind$_ZN7Context8Handlers15TContextRequest13SetRespByJsonEPKN6System7TVarRecEi
 0002:00000D68       context.handlers.$unwind$_ZN7Context8Handlers15TContextRequest13SetRespStreamEPN6System7Classes7TStreamE
 0002:00000C94       context.handlers.$unwind$_ZN7Context8Handlers15TContextRequest17ExtractRespStreamEv
 0002:00000D74       context.handlers.$unwind$_ZN7Context8Handlers15TContextRequest17SetRespWithStatusEiN6System13UnicodeStringENS2_15DelphiInterfaceIN11Superobject12ISuperObjectEEE
 0002:00000D80       context.handlers.$unwind$_ZN7Context8Handlers15TContextRequest17SetRespWithStatusEiN6System15DelphiInterfaceIN11Superobject12ISuperObjectEEE
 0002:00000D38       context.handlers.$unwind$_ZN7Context8Handlers15TContextRequest19SetRespByStreamProcEN6System15DelphiInterfaceINS2_8Sysutils8TProc__1IPNS2_7Classes7TStreamEEEEE
 0002:00000C9C       context.handlers.$unwind$_ZN7Context8Handlers15TContextRequest6FailedEN6System13UnicodeStringE
 0002:00000CB4       context.handlers.$unwind$_ZN7Context8Handlers15TContextRequest7GetPathEv
 0002:00000CBC       context.handlers.$unwind$_ZN7Context8Handlers15TContextRequest7GetRespEv
 0002:00000D00       context.handlers.$unwind$_ZN7Context8Handlers15TContextRequest7SetRespEN6System15DelphiInterfaceIN11Superobject12ISuperObjectEEE
 0002:00000CA4       context.handlers.$unwind$_ZN7Context8Handlers15TContextRequest9GetErrMsgEv
 0002:00000CAC       context.handlers.$unwind$_ZN7Context8Handlers15TContextRequest9GetParamsEv
 0002:00000CF8       context.handlers.$unwind$_ZN7Context8Handlers15TContextRequest9SetParamsEN6System15DelphiInterfaceIN11Superobject12ISuperObjectEEE
 0002:00000C30       context.handlers.$unwind$_ZN7Context8Handlers15TContextRequestC3EN6System13UnicodeStringENS2_15DelphiInterfaceIN11Superobject12ISuperObjectEEE
 0002:00000C88       context.handlers.$unwind$_ZN7Context8Handlers15TContextRequestD0Ev
 0002:00000D9C       context.handlers.$unwind$_ZN7Context8Handlers18TContextRequestMap10AddHandlerEN6System13UnicodeStringENS2_15DelphiInterfaceIN10Umodulelib22IContextRequestHandlerEEE
 0002:00000F24       context.handlers.$unwind$_ZN7Context8Handlers18TContextRequestMap14ProcessRequestEN6System13UnicodeStringENS2_15DelphiInterfaceIN11Superobject12ISuperObjectEEEb
 0002:00000D8C       context.handlers.$unwind$_ZN7Context8Handlers18TContextRequestMap17AddDefaultHandlerEU9__closurePFvN6System15DelphiInterfaceIN10Umodulelib15IRequestContextEEEE
 0002:00000E48       context.handlers.$unwind$_ZN7Context8Handlers18TContextRequestMap20ProcessAsyncRequestsEv
 0002:00000E94       context.handlers.$unwind$_ZN7Context8Handlers18TContextRequestMap22ProcessHandlerResquestEN6System15DelphiInterfaceIN10Umodulelib15IRequestContextEEE
 0002:00000DCC       context.handlers.$unwind$_ZN7Context8Handlers18TContextRequestMap6AddMapEN6System13UnicodeStringEU9__closurePFvNS2_15DelphiInterfaceIN10Umodulelib15IRequestContextEEEE
 0002:000012CC       context.handlers.$unwind$_ZN7Context8Handlers18TContextRequestMap6ToJsonEPN11Superobject17TSuperRttiContextE
 0002:00000E00       context.handlers.$unwind$_ZN7Context8Handlers18TContextRequestMapC3EPNS0_18TContextResManagerE
 0002:00000E3C       context.handlers.$unwind$_ZN7Context8Handlers18TContextRequestMapD0Ev
 0002:00000FB4       context.handlers.$unwind$_ZN7Context8Handlers18TContextResManager13AddControllerEPN6System7TObjectE
 0002:00001018       context.handlers.$unwind$_ZN7Context8Handlers18TContextResManager13AutoAddActionEPN6System7TObjectENS2_13UnicodeStringE
 0002:00001160       context.handlers.$unwind$_ZN7Context8Handlers18TContextResManager14InitDependencyEv
 0002:000011B0       context.handlers.$unwind$_ZN7Context8Handlers18TContextResManager14InitMsgHandlerEN6System15DelphiInterfaceIN10Umodulelib12IPostMessageEEE
 0002:00001254       context.handlers.$unwind$_ZN7Context8Handlers18TContextResManager14ProcessRequestEN6System13UnicodeStringENS2_15DelphiInterfaceIN11Superobject12ISuperObjectEEEb
 0002:0000108C       context.handlers.$unwind$_ZN7Context8Handlers18TContextResManager15ClearDependencyEv
 0002:00001054       context.handlers.$unwind$_ZN7Context8Handlers18TContextResManager18AutoInitRouterPathEPN6System7TObjectE
 0002:0000124C       context.handlers.$unwind$_ZN7Context8Handlers18TContextResManager20ProcessAsyncRequestsEv
 0002:00000F84       context.handlers.$unwind$_ZN7Context8Handlers18TContextResManager24AddContextRequestHandlerEN6System13UnicodeStringENS2_15DelphiInterfaceIN10Umodulelib22IContextRequestHandlerEEE
 0002:00001124       context.handlers.$unwind$_ZN7Context8Handlers18TContextResManager25GetControllerRelativePathEPN6System7TObjectE
 0002:00001088       context.handlers.$unwind$_ZN7Context8Handlers18TContextResManager5CheckEv
 0002:00000FE4       context.handlers.$unwind$_ZN7Context8Handlers18TContextResManager6AddMapEN6System13UnicodeStringEU9__closurePFvNS2_15DelphiInterfaceIN10Umodulelib15IRequestContextEEEE
 0002:00001158       context.handlers.$unwind$_ZN7Context8Handlers18TContextResManager7GetPathEv
 0002:00001218       context.handlers.$unwind$_ZN7Context8Handlers18TContextResManager7ProcessEN6System13UnicodeStringES3_
 0002:000011E4       context.handlers.$unwind$_ZN7Context8Handlers18TContextResManager7ProcessEv
 0002:00001284       context.handlers.$unwind$_ZN7Context8Handlers18TContextResManager7SetPathEN6System13UnicodeStringE
 0002:0000128C       context.handlers.$unwind$_ZN7Context8Handlers18TContextResManager7SetRespEPNS0_15TContextRequestEiN6System15DelphiInterfaceIN11Superobject12ISuperObjectEEE
 0002:000010DC       context.handlers.$unwind$_ZN7Context8Handlers18TContextResManagerC3EPN6System7TObjectE
 0002:00001118       context.handlers.$unwind$_ZN7Context8Handlers18TContextResManagerD0Ev
 0002:000012C4       context.handlers.$unwind$_ZN7Context8Handlers23TContextRequestWithProc6ToJsonEPN11Superobject17TSuperRttiContextE
 0002:00001BF8       context.handlers.$unwind$_ZN7Strlist14TStringList__1IN6System15DelphiInterfaceIN10Umodulelib22IContextRequestHandlerEEEE10InsertItemEiNS1_13UnicodeStringES5_
 0002:00001B24       context.handlers.$unwind$_ZN7Strlist14TStringList__1IN6System15DelphiInterfaceIN10Umodulelib22IContextRequestHandlerEEEE14CompareItemStrENS1_13UnicodeStringES7_
 0002:00001C2C       context.handlers.$unwind$_ZN7Strlist14TStringList__1IN6System15DelphiInterfaceIN10Umodulelib22IContextRequestHandlerEEEE16SetCaseSensitiveEb
 0002:00002C04       context.handlers.$unwind$_ZN7Strlist14TStringList__1IN6System15DelphiInterfaceIN10Umodulelib22IContextRequestHandlerEEEE19TStringItemComparer7CompareERKNS6_11TStringItemESA_
 0002:00002BC8       context.handlers.$unwind$_ZN7Strlist14TStringList__1IN6System15DelphiInterfaceIN10Umodulelib22IContextRequestHandlerEEEE19TStringItemComparerC3Eb
 0002:00001C7C       context.handlers.$unwind$_ZN7Strlist14TStringList__1IN6System15DelphiInterfaceIN10Umodulelib22IContextRequestHandlerEEEE3AddENS1_13UnicodeStringES5_
 0002:00001B2C       context.handlers.$unwind$_ZN7Strlist14TStringList__1IN6System15DelphiInterfaceIN10Umodulelib22IContextRequestHandlerEEEE3GetEi
 0002:00001B8C       context.handlers.$unwind$_ZN7Strlist14TStringList__1IN6System15DelphiInterfaceIN10Umodulelib22IContextRequestHandlerEEEE3PutEiNS1_13UnicodeStringE
 0002:00001CAC       context.handlers.$unwind$_ZN7Strlist14TStringList__1IN6System15DelphiInterfaceIN10Umodulelib22IContextRequestHandlerEEEE4FindENS1_13UnicodeStringERi
 0002:00001D0C       context.handlers.$unwind$_ZN7Strlist14TStringList__1IN6System15DelphiInterfaceIN10Umodulelib22IContextRequestHandlerEEEE4SortEv
 0002:00001CDC       context.handlers.$unwind$_ZN7Strlist14TStringList__1IN6System15DelphiInterfaceIN10Umodulelib22IContextRequestHandlerEEEE7IndexOfENS1_13UnicodeStringE
 0002:00001C28       context.handlers.$unwind$_ZN7Strlist14TStringList__1IN6System15DelphiInterfaceIN10Umodulelib22IContextRequestHandlerEEEE8GetCountEv
 0002:00001B5C       context.handlers.$unwind$_ZN7Strlist14TStringList__1IN6System15DelphiInterfaceIN10Umodulelib22IContextRequestHandlerEEEE9GetObjectEi
 0002:00001BBC       context.handlers.$unwind$_ZN7Strlist14TStringList__1IN6System15DelphiInterfaceIN10Umodulelib22IContextRequestHandlerEEEE9PutObjectEiS5_
 0002:00001BEC       context.handlers.$unwind$_ZN7Strlist14TStringList__1IN6System15DelphiInterfaceIN10Umodulelib22IContextRequestHandlerEEEE9SetSortedEb
 0002:00001C34       context.handlers.$unwind$_ZN7Strlist14TStringList__1IN6System15DelphiInterfaceIN10Umodulelib22IContextRequestHandlerEEEEC3Eb
 0002:00001C70       context.handlers.$unwind$_ZN7Strlist14TStringList__1IN6System15DelphiInterfaceIN10Umodulelib22IContextRequestHandlerEEEED0Ev
 0002:000013B0       context.handlers.$unwind$_ZN7Strlist14TStringList__1IU9__closurePFvN6System15DelphiInterfaceIN10Umodulelib15IRequestContextEEEEE10InsertItemEiNS1_13UnicodeStringES8_
 0002:000012D4       context.handlers.$unwind$_ZN7Strlist14TStringList__1IU9__closurePFvN6System15DelphiInterfaceIN10Umodulelib15IRequestContextEEEEE14CompareItemStrENS1_13UnicodeStringESA_
 0002:000013E8       context.handlers.$unwind$_ZN7Strlist14TStringList__1IU9__closurePFvN6System15DelphiInterfaceIN10Umodulelib15IRequestContextEEEEE16SetCaseSensitiveEb
 0002:00002B3C       context.handlers.$unwind$_ZN7Strlist14TStringList__1IU9__closurePFvN6System15DelphiInterfaceIN10Umodulelib15IRequestContextEEEEE19TStringItemComparer7CompareERKNS9_11TStringItemESD_
 0002:00002B00       context.handlers.$unwind$_ZN7Strlist14TStringList__1IU9__closurePFvN6System15DelphiInterfaceIN10Umodulelib15IRequestContextEEEEE19TStringItemComparerC3Eb
 0002:00001438       context.handlers.$unwind$_ZN7Strlist14TStringList__1IU9__closurePFvN6System15DelphiInterfaceIN10Umodulelib15IRequestContextEEEEE3AddENS1_13UnicodeStringES8_
 0002:000012DC       context.handlers.$unwind$_ZN7Strlist14TStringList__1IU9__closurePFvN6System15DelphiInterfaceIN10Umodulelib15IRequestContextEEEEE3GetEi
 0002:00001340       context.handlers.$unwind$_ZN7Strlist14TStringList__1IU9__closurePFvN6System15DelphiInterfaceIN10Umodulelib15IRequestContextEEEEE3PutEiNS1_13UnicodeStringE
 0002:0000146C       context.handlers.$unwind$_ZN7Strlist14TStringList__1IU9__closurePFvN6System15DelphiInterfaceIN10Umodulelib15IRequestContextEEEEE4FindENS1_13UnicodeStringERi
 0002:000014CC       context.handlers.$unwind$_ZN7Strlist14TStringList__1IU9__closurePFvN6System15DelphiInterfaceIN10Umodulelib15IRequestContextEEEEE4SortEv
 0002:0000149C       context.handlers.$unwind$_ZN7Strlist14TStringList__1IU9__closurePFvN6System15DelphiInterfaceIN10Umodulelib15IRequestContextEEEEE7IndexOfENS1_13UnicodeStringE
 0002:000013E4       context.handlers.$unwind$_ZN7Strlist14TStringList__1IU9__closurePFvN6System15DelphiInterfaceIN10Umodulelib15IRequestContextEEEEE8GetCountEv
 0002:0000130C       context.handlers.$unwind$_ZN7Strlist14TStringList__1IU9__closurePFvN6System15DelphiInterfaceIN10Umodulelib15IRequestContextEEEEE9GetObjectEi
 0002:00001370       context.handlers.$unwind$_ZN7Strlist14TStringList__1IU9__closurePFvN6System15DelphiInterfaceIN10Umodulelib15IRequestContextEEEEE9PutObjectEiS8_
 0002:000013A4       context.handlers.$unwind$_ZN7Strlist14TStringList__1IU9__closurePFvN6System15DelphiInterfaceIN10Umodulelib15IRequestContextEEEEE9SetSortedEb
 0002:000013F0       context.handlers.$unwind$_ZN7Strlist14TStringList__1IU9__closurePFvN6System15DelphiInterfaceIN10Umodulelib15IRequestContextEEEEEC3Eb
 0002:0000142C       context.handlers.$unwind$_ZN7Strlist14TStringList__1IU9__closurePFvN6System15DelphiInterfaceIN10Umodulelib15IRequestContextEEEEED0Ev
 0002:00000EC4       context.handlers.$unwind$_ZZN7Context8Handlers18TContextRequestMap14ProcessRequestEN6System13UnicodeStringENS2_15DelphiInterfaceIN11Superobject12ISuperObjectEEEbE11IsSubPathOfPvS3_S3_
 0002:00000EF4       context.handlers.$unwind$_ZZN7Context8Handlers18TContextRequestMap14ProcessRequestEN6System13UnicodeStringENS2_15DelphiInterfaceIN11Superobject12ISuperObjectEEEbE11RemoveQueryPvS3_
 0001:0000B030       context.handlers...TContextRequest
 0001:0000C1D8       context.handlers...TContextResManager
 0001:0001F7B0       context.handlers...{StrList}TStringList<context.handlers.TContextRequestProc>.TStringItemComparer
 0001:000200F8       context.handlers...{StrList}TStringList<uModuleLib.IContextRequestHandler>.TStringItemComparer
 0001:0001FE68       context.handlers...{System.Generics.Collections}@TList`1.Pack[0]$ActRec<StrList.TStringList<context.handlers.TContextRequestProc>.TStringItem>
 0001:00020798       context.handlers...{System.Generics.Collections}@TList`1.Pack[0]$ActRec<StrList.TStringList<uModuleLib.IContextRequestHandler>.TStringItem>
 0001:00020D00       context.handlers...{System.Generics.Collections}@TList`1.Pack[0]$ActRec<System.TObject>
 0001:0001FB50       context.handlers...{System.Generics.Collections}@TList`1.Pack[1]$ActRec<StrList.TStringList<context.handlers.TContextRequestProc>.TStringItem>
 0001:00020488       context.handlers...{System.Generics.Collections}@TList`1.Pack[1]$ActRec<StrList.TStringList<uModuleLib.IContextRequestHandler>.TStringItem>
 0001:00020A90       context.handlers...{System.Generics.Collections}@TList`1.Pack[1]$ActRec<System.TObject>
 0003:0000010C       context.handlers..5
 0001:0000B168       context.handlers..TContextRequest
 0001:0000BD20       context.handlers..TContextRequestMap
 0001:0000BB38       context.handlers..TContextRequestWithProc
 0001:0000C300       context.handlers..TContextResManager
 0001:000125C0       context.handlers..{fsLib}TFifo<context.handlers.TContextRequestWithProc>
 0001:00012398       context.handlers..{fsLib}TFifo<context.handlers.TContextRequestWithProc>.TEnumerator
 0001:0000ED78       context.handlers..{StrList}TStringList<context.handlers.TContextRequestProc>
 0001:0001F830       context.handlers..{StrList}TStringList<context.handlers.TContextRequestProc>.TStringItemComparer
 0001:00011658       context.handlers..{StrList}TStringList<uModuleLib.IContextRequestHandler>
 0001:00020178       context.handlers..{StrList}TStringList<uModuleLib.IContextRequestHandler>.TStringItemComparer
 0001:0001FEE8       context.handlers..{System.Generics.Collections}@TList`1.Pack[0]$ActRec<StrList.TStringList<context.handlers.TContextRequestProc>.TStringItem>
 0001:00020818       context.handlers..{System.Generics.Collections}@TList`1.Pack[0]$ActRec<StrList.TStringList<uModuleLib.IContextRequestHandler>.TStringItem>
 0001:00020D80       context.handlers..{System.Generics.Collections}@TList`1.Pack[0]$ActRec<System.TObject>
 0001:0001FBD0       context.handlers..{System.Generics.Collections}@TList`1.Pack[1]$ActRec<StrList.TStringList<context.handlers.TContextRequestProc>.TStringItem>
 0001:00020508       context.handlers..{System.Generics.Collections}@TList`1.Pack[1]$ActRec<StrList.TStringList<uModuleLib.IContextRequestHandler>.TStringItem>
 0001:00020B10       context.handlers..{System.Generics.Collections}@TList`1.Pack[1]$ActRec<System.TObject>
 0001:00011F50       context.handlers..{System.Generics.Collections}TEnumerable<context.handlers.TContextRequestWithProc>
 0001:0000CEF0       context.handlers..{System.Generics.Collections}TEnumerable<StrList.TStringList<context.handlers.TContextRequestProc>.TStringItem>
 0001:0000F800       context.handlers..{System.Generics.Collections}TEnumerable<StrList.TStringList<uModuleLib.IContextRequestHandler>.TStringItem>
 0001:00012CE0       context.handlers..{System.Generics.Collections}TEnumerable<System.TObject>
 0001:00011D40       context.handlers..{System.Generics.Collections}TEnumerator<context.handlers.TContextRequestWithProc>
 0001:0000CCA8       context.handlers..{System.Generics.Collections}TEnumerator<StrList.TStringList<context.handlers.TContextRequestProc>.TStringItem>
 0001:0000F5C0       context.handlers..{System.Generics.Collections}TEnumerator<StrList.TStringList<uModuleLib.IContextRequestHandler>.TStringItem>
 0001:00012B08       context.handlers..{System.Generics.Collections}TEnumerator<System.TObject>
 0001:0000D868       context.handlers..{System.Generics.Collections}TList<StrList.TStringList<context.handlers.TContextRequestProc>.TStringItem>
 0001:0000D590       context.handlers..{System.Generics.Collections}TList<StrList.TStringList<context.handlers.TContextRequestProc>.TStringItem>.TEnumerator
 0001:00010150       context.handlers..{System.Generics.Collections}TList<StrList.TStringList<uModuleLib.IContextRequestHandler>.TStringItem>
 0001:0000FE78       context.handlers..{System.Generics.Collections}TList<StrList.TStringList<uModuleLib.IContextRequestHandler>.TStringItem>.TEnumerator
 0001:00013458       context.handlers..{System.Generics.Collections}TList<System.TObject>
 0001:000131F0       context.handlers..{System.Generics.Collections}TList<System.TObject>.TEnumerator
 0001:000148A0       context.handlers..{System.Generics.Collections}TObjectList<System.TObject>
 0001:000176C0       context.handlers.context.handlers
 0001:000176B0       context.handlers.Finalization
 0001:000156C0       context.handlers.IsSubPathOf
 0001:00015800       context.handlers.RemoveQuery
 0001:0001E810       context.handlers.TArray.BinarySearch<StrList.TStringList<context.handlers.TContextRequestProc>.TStringItem>
 0001:0001EC20       context.handlers.TArray.BinarySearch<StrList.TStringList<uModuleLib.IContextRequestHandler>.TStringItem>
 0001:0001EE80       context.handlers.TArray.BinarySearch<System.TObject>
 0001:0001EFE0       context.handlers.TArray.QuickSort<StrList.TStringList<context.handlers.TContextRequestProc>.TStringItem>
 0001:0001F2F0       context.handlers.TArray.QuickSort<StrList.TStringList<uModuleLib.IContextRequestHandler>.TStringItem>
 0001:0001F5F0       context.handlers.TArray.QuickSort<System.TObject>
 0001:0001E790       context.handlers.TArray.Sort<StrList.TStringList<context.handlers.TContextRequestProc>.TStringItem>
 0001:0001EBA0       context.handlers.TArray.Sort<StrList.TStringList<uModuleLib.IContextRequestHandler>.TStringItem>
 0001:0001EE00       context.handlers.TArray.Sort<System.TObject>
 0001:00014C30       context.handlers.TContextRequest.Create
 0001:00014D40       context.handlers.TContextRequest.Destroy
 0001:00014D90       context.handlers.TContextRequest.ExtractRespStream
 0001:00014DC0       context.handlers.TContextRequest.Failed
 0001:00014DE0       context.handlers.TContextRequest.GetErrMsg
 0001:00014E00       context.handlers.TContextRequest.GetParams
 0001:00014E20       context.handlers.TContextRequest.GetPath
 0001:00014E40       context.handlers.TContextRequest.GetResp
 0001:00014E50       context.handlers.TContextRequest.GetRespStream
 0001:00014FA0       context.handlers.TContextRequest.SetParams
 0001:00014FC0       context.handlers.TContextRequest.SetResp
 0001:00014FD0       context.handlers.TContextRequest.SetRespByJson
 0001:00014E60       context.handlers.TContextRequest.SetRespByJson
 0001:00015040       context.handlers.TContextRequest.SetRespByStreamProc
 0001:000150D0       context.handlers.TContextRequest.SetRespStream
 0001:00015200       context.handlers.TContextRequest.SetRespWithStatus
 0001:000150F0       context.handlers.TContextRequest.SetRespWithStatus
 0001:00015280       context.handlers.TContextRequestMap.AddDefaultHandler
 0001:000152B0       context.handlers.TContextRequestMap.AddHandler
 0001:00015360       context.handlers.TContextRequestMap.AddMap
 0001:000153D0       context.handlers.TContextRequestMap.Create
 0001:000154C0       context.handlers.TContextRequestMap.Destroy
 0001:00015520       context.handlers.TContextRequestMap.ProcessAsyncRequests
 0001:000155D0       context.handlers.TContextRequestMap.ProcessHandlerResquest
 0001:000158B0       context.handlers.TContextRequestMap.ProcessRequest
 0001:000176F0       context.handlers.TContextRequestMap.ToJson
 0001:000176D0       context.handlers.TContextRequestWithProc.ToJson
 0001:00015D40       context.handlers.TContextResManager.AddContextRequestHandler
 0001:00015DD0       context.handlers.TContextResManager.AddController
 0001:00015EC0       context.handlers.TContextResManager.AddMap
 0001:00015F70       context.handlers.TContextResManager.AutoAddAction
 0001:000166A0       context.handlers.TContextResManager.AutoInitRouterPath
 0001:000168D0       context.handlers.TContextResManager.Check
 0001:000168E0       context.handlers.TContextResManager.ClearDependency
 0001:00016B40       context.handlers.TContextResManager.Create
 0001:00016C30       context.handlers.TContextResManager.Destroy
 0001:00016C90       context.handlers.TContextResManager.GetControllerRelativePath
 0001:00016EB0       context.handlers.TContextResManager.GetPath
 0001:00016ED0       context.handlers.TContextResManager.InitDependency
 0001:00017130       context.handlers.TContextResManager.InitMsgHandler
 0001:00017280       context.handlers.TContextResManager.Process
 0001:000173B0       context.handlers.TContextResManager.Process
 0001:000174F0       context.handlers.TContextResManager.ProcessAsyncRequests
 0001:00017510       context.handlers.TContextResManager.ProcessRequest
 0001:000175B0       context.handlers.TContextResManager.SetPath
 0001:000175D0       context.handlers.TContextResManager.SetResp
 0001:0001C7E0       context.handlers.{fsLib}TFifo<context.handlers.TContextRequestWithProc>.Clear
 0001:0001C730       context.handlers.{fsLib}TFifo<context.handlers.TContextRequestWithProc>.Clear
 0001:0001C5D0       context.handlers.{fsLib}TFifo<context.handlers.TContextRequestWithProc>.Create
 0001:0001C7F0       context.handlers.{fsLib}TFifo<context.handlers.TContextRequestWithProc>.Dequeue
 0001:0001C6B0       context.handlers.{fsLib}TFifo<context.handlers.TContextRequestWithProc>.Destroy
 0001:0001C5B0       context.handlers.{fsLib}TFifo<context.handlers.TContextRequestWithProc>.DoGetEnumerator
 0001:0001C810       context.handlers.{fsLib}TFifo<context.handlers.TContextRequestWithProc>.Empty
 0001:0001C820       context.handlers.{fsLib}TFifo<context.handlers.TContextRequestWithProc>.Enqueue
 0001:0001CAA0       context.handlers.{fsLib}TFifo<context.handlers.TContextRequestWithProc>.GetEnumerator
 0001:0001C5C0       context.handlers.{fsLib}TFifo<context.handlers.TContextRequestWithProc>.NotifyDelete
 0001:0001CA00       context.handlers.{fsLib}TFifo<context.handlers.TContextRequestWithProc>.Peek
 0001:0001C940       context.handlers.{fsLib}TFifo<context.handlers.TContextRequestWithProc>.Pop
 0001:0001C830       context.handlers.{fsLib}TFifo<context.handlers.TContextRequestWithProc>.Push
 0001:0001CB00       context.handlers.{fsLib}TFifo<context.handlers.TContextRequestWithProc>.TEnumerator.DoGetCurrent
 0001:0001CB30       context.handlers.{fsLib}TFifo<context.handlers.TContextRequestWithProc>.TEnumerator.DoMoveNext
 0001:0001CAD0       context.handlers.{fsLib}TFifo<context.handlers.TContextRequestWithProc>.TEnumerator.GetCurrent
 0001:0001CB50       context.handlers.{fsLib}TFifo<context.handlers.TContextRequestWithProc>.TEnumerator.MoveNext
 0001:00017DC0       context.handlers.{StrList}TStringList<context.handlers.TContextRequestProc>.Add
 0001:00017810       context.handlers.{StrList}TStringList<context.handlers.TContextRequestProc>.CompareItemStr
 0001:00017C60       context.handlers.{StrList}TStringList<context.handlers.TContextRequestProc>.Create
 0001:00017D50       context.handlers.{StrList}TStringList<context.handlers.TContextRequestProc>.Destroy
 0001:00017EE0       context.handlers.{StrList}TStringList<context.handlers.TContextRequestProc>.Find
 0001:00017840       context.handlers.{StrList}TStringList<context.handlers.TContextRequestProc>.Get
 0001:00017BF0       context.handlers.{StrList}TStringList<context.handlers.TContextRequestProc>.GetCount
 0001:000178D0       context.handlers.{StrList}TStringList<context.handlers.TContextRequestProc>.GetObject
 0001:00017F80       context.handlers.{StrList}TStringList<context.handlers.TContextRequestProc>.IndexOf
 0001:00017B50       context.handlers.{StrList}TStringList<context.handlers.TContextRequestProc>.InsertItem
 0001:00017960       context.handlers.{StrList}TStringList<context.handlers.TContextRequestProc>.Put
 0001:00017A80       context.handlers.{StrList}TStringList<context.handlers.TContextRequestProc>.PutObject
 0001:00017C00       context.handlers.{StrList}TStringList<context.handlers.TContextRequestProc>.SetCaseSensitive
 0001:00017B20       context.handlers.{StrList}TStringList<context.handlers.TContextRequestProc>.SetSorted
 0001:000180A0       context.handlers.{StrList}TStringList<context.handlers.TContextRequestProc>.Sort
 0001:0001E600       context.handlers.{StrList}TStringList<context.handlers.TContextRequestProc>.TStringItemComparer.Compare
 0001:0001E560       context.handlers.{StrList}TStringList<context.handlers.TContextRequestProc>.TStringItemComparer.Create
 0001:0001A350       context.handlers.{StrList}TStringList<uModuleLib.IContextRequestHandler>.Add
 0001:00019D90       context.handlers.{StrList}TStringList<uModuleLib.IContextRequestHandler>.CompareItemStr
 0001:0001A1F0       context.handlers.{StrList}TStringList<uModuleLib.IContextRequestHandler>.Create
 0001:0001A2E0       context.handlers.{StrList}TStringList<uModuleLib.IContextRequestHandler>.Destroy
 0001:0001A4A0       context.handlers.{StrList}TStringList<uModuleLib.IContextRequestHandler>.Find
 0001:00019DC0       context.handlers.{StrList}TStringList<uModuleLib.IContextRequestHandler>.Get
 0001:0001A180       context.handlers.{StrList}TStringList<uModuleLib.IContextRequestHandler>.GetCount
 0001:00019E50       context.handlers.{StrList}TStringList<uModuleLib.IContextRequestHandler>.GetObject
 0001:0001A530       context.handlers.{StrList}TStringList<uModuleLib.IContextRequestHandler>.IndexOf
 0001:0001A0D0       context.handlers.{StrList}TStringList<uModuleLib.IContextRequestHandler>.InsertItem
 0001:00019EE0       context.handlers.{StrList}TStringList<uModuleLib.IContextRequestHandler>.Put
 0001:0001A000       context.handlers.{StrList}TStringList<uModuleLib.IContextRequestHandler>.PutObject
 0001:0001A190       context.handlers.{StrList}TStringList<uModuleLib.IContextRequestHandler>.SetCaseSensitive
 0001:0001A0A0       context.handlers.{StrList}TStringList<uModuleLib.IContextRequestHandler>.SetSorted
 0001:0001A640       context.handlers.{StrList}TStringList<uModuleLib.IContextRequestHandler>.Sort
 0001:0001EA20       context.handlers.{StrList}TStringList<uModuleLib.IContextRequestHandler>.TStringItemComparer.Compare
 0001:0001E980       context.handlers.{StrList}TStringList<uModuleLib.IContextRequestHandler>.TStringItemComparer.Create
 0001:0001E6F0       context.handlers.{System.Generics.Collections}@TList`1.Pack[0]$ActRec<StrList.TStringList<context.handlers.TContextRequestProc>.TStringItem>.$0$Body
 0001:0001EB10       context.handlers.{System.Generics.Collections}@TList`1.Pack[0]$ActRec<StrList.TStringList<uModuleLib.IContextRequestHandler>.TStringItem>.$0$Body
 0001:0001EDE0       context.handlers.{System.Generics.Collections}@TList`1.Pack[0]$ActRec<System.TObject>.$0$Body
 0001:0001E650       context.handlers.{System.Generics.Collections}@TList`1.Pack[1]$ActRec<StrList.TStringList<context.handlers.TContextRequestProc>.TStringItem>.$0$Body
 0001:0001EA70       context.handlers.{System.Generics.Collections}@TList`1.Pack[1]$ActRec<StrList.TStringList<uModuleLib.IContextRequestHandler>.TStringItem>.$0$Body
 0001:0001EDB0       context.handlers.{System.Generics.Collections}@TList`1.Pack[1]$ActRec<System.TObject>.$0$Body
 0001:0001C390       context.handlers.{System.Generics.Collections}TEnumerable<context.handlers.TContextRequestWithProc>.Destroy
 0001:0001C3D0       context.handlers.{System.Generics.Collections}TEnumerable<context.handlers.TContextRequestWithProc>.GetEnumerator
 0001:0001C3F0       context.handlers.{System.Generics.Collections}TEnumerable<context.handlers.TContextRequestWithProc>.ToArray
 0001:0001C2A0       context.handlers.{System.Generics.Collections}TEnumerable<context.handlers.TContextRequestWithProc>.ToArrayImpl
 0001:00018210       context.handlers.{System.Generics.Collections}TEnumerable<StrList.TStringList<context.handlers.TContextRequestProc>.TStringItem>.Destroy
 0001:00018250       context.handlers.{System.Generics.Collections}TEnumerable<StrList.TStringList<context.handlers.TContextRequestProc>.TStringItem>.GetEnumerator
 0001:00018270       context.handlers.{System.Generics.Collections}TEnumerable<StrList.TStringList<context.handlers.TContextRequestProc>.TStringItem>.ToArray
 0001:000180C0       context.handlers.{System.Generics.Collections}TEnumerable<StrList.TStringList<context.handlers.TContextRequestProc>.TStringItem>.ToArrayImpl
 0001:0001A7A0       context.handlers.{System.Generics.Collections}TEnumerable<StrList.TStringList<uModuleLib.IContextRequestHandler>.TStringItem>.Destroy
 0001:0001A7E0       context.handlers.{System.Generics.Collections}TEnumerable<StrList.TStringList<uModuleLib.IContextRequestHandler>.TStringItem>.GetEnumerator
 0001:0001A800       context.handlers.{System.Generics.Collections}TEnumerable<StrList.TStringList<uModuleLib.IContextRequestHandler>.TStringItem>.ToArray
 0001:0001A660       context.handlers.{System.Generics.Collections}TEnumerable<StrList.TStringList<uModuleLib.IContextRequestHandler>.TStringItem>.ToArrayImpl
 0001:0001CC60       context.handlers.{System.Generics.Collections}TEnumerable<System.TObject>.Destroy
 0001:0001CCA0       context.handlers.{System.Generics.Collections}TEnumerable<System.TObject>.GetEnumerator
 0001:0001CCC0       context.handlers.{System.Generics.Collections}TEnumerable<System.TObject>.ToArray
 0001:0001CB70       context.handlers.{System.Generics.Collections}TEnumerable<System.TObject>.ToArrayImpl
 0001:0001C590       context.handlers.{System.Generics.Collections}TEnumerator<context.handlers.TContextRequestWithProc>.MoveNext
 0001:00018480       context.handlers.{System.Generics.Collections}TEnumerator<StrList.TStringList<context.handlers.TContextRequestProc>.TStringItem>.MoveNext
 0001:0001AA10       context.handlers.{System.Generics.Collections}TEnumerator<StrList.TStringList<uModuleLib.IContextRequestHandler>.TStringItem>.MoveNext
 0001:0001CE60       context.handlers.{System.Generics.Collections}TEnumerator<System.TObject>.MoveNext
 0001:00018C10       context.handlers.{System.Generics.Collections}TList<StrList.TStringList<context.handlers.TContextRequestProc>.TStringItem>.Add
 0001:00018C90       context.handlers.{System.Generics.Collections}TList<StrList.TStringList<context.handlers.TContextRequestProc>.TStringItem>.AddRange
 0001:00018C30       context.handlers.{System.Generics.Collections}TList<StrList.TStringList<context.handlers.TContextRequestProc>.TStringItem>.AddRange
 0001:00018C60       context.handlers.{System.Generics.Collections}TList<StrList.TStringList<context.handlers.TContextRequestProc>.TStringItem>.AddRange
 0001:000199D0       context.handlers.{System.Generics.Collections}TList<StrList.TStringList<context.handlers.TContextRequestProc>.TStringItem>.BinarySearch
 0001:00019A30       context.handlers.{System.Generics.Collections}TList<StrList.TStringList<context.handlers.TContextRequestProc>.TStringItem>.BinarySearch
 0001:00019A80       context.handlers.{System.Generics.Collections}TList<StrList.TStringList<context.handlers.TContextRequestProc>.TStringItem>.BinarySearch
 0001:000197C0       context.handlers.{System.Generics.Collections}TList<StrList.TStringList<context.handlers.TContextRequestProc>.TStringItem>.Clear
 0001:00019820       context.handlers.{System.Generics.Collections}TList<StrList.TStringList<context.handlers.TContextRequestProc>.TStringItem>.Contains
 0001:00018960       context.handlers.{System.Generics.Collections}TList<StrList.TStringList<context.handlers.TContextRequestProc>.TStringItem>.Create
 0001:00018A10       context.handlers.{System.Generics.Collections}TList<StrList.TStringList<context.handlers.TContextRequestProc>.TStringItem>.Create
 0001:000187F0       context.handlers.{System.Generics.Collections}TList<StrList.TStringList<context.handlers.TContextRequestProc>.TStringItem>.Create
 0001:00018890       context.handlers.{System.Generics.Collections}TList<StrList.TStringList<context.handlers.TContextRequestProc>.TStringItem>.Create
 0001:00019250       context.handlers.{System.Generics.Collections}TList<StrList.TStringList<context.handlers.TContextRequestProc>.TStringItem>.Delete
 0001:00019270       context.handlers.{System.Generics.Collections}TList<StrList.TStringList<context.handlers.TContextRequestProc>.TStringItem>.DeleteRange
 0001:00018AC0       context.handlers.{System.Generics.Collections}TList<StrList.TStringList<context.handlers.TContextRequestProc>.TStringItem>.Destroy
 0001:000185F0       context.handlers.{System.Generics.Collections}TList<StrList.TStringList<context.handlers.TContextRequestProc>.TStringItem>.DoDelete
 0001:00018790       context.handlers.{System.Generics.Collections}TList<StrList.TStringList<context.handlers.TContextRequestProc>.TStringItem>.DoGetEnumerator
 0001:00018B20       context.handlers.{System.Generics.Collections}TList<StrList.TStringList<context.handlers.TContextRequestProc>.TStringItem>.Error
 0001:00018B70       context.handlers.{System.Generics.Collections}TList<StrList.TStringList<context.handlers.TContextRequestProc>.TStringItem>.Error
 0001:00019560       context.handlers.{System.Generics.Collections}TList<StrList.TStringList<context.handlers.TContextRequestProc>.TStringItem>.Exchange
 0001:000197E0       context.handlers.{System.Generics.Collections}TList<StrList.TStringList<context.handlers.TContextRequestProc>.TStringItem>.Expand
 0001:00019300       context.handlers.{System.Generics.Collections}TList<StrList.TStringList<context.handlers.TContextRequestProc>.TStringItem>.Extract
 0001:00019420       context.handlers.{System.Generics.Collections}TList<StrList.TStringList<context.handlers.TContextRequestProc>.TStringItem>.ExtractAt
 0001:00019290       context.handlers.{System.Generics.Collections}TList<StrList.TStringList<context.handlers.TContextRequestProc>.TStringItem>.ExtractItem
 0001:000195A0       context.handlers.{System.Generics.Collections}TList<StrList.TStringList<context.handlers.TContextRequestProc>.TStringItem>.First
 0001:000184A0       context.handlers.{System.Generics.Collections}TList<StrList.TStringList<context.handlers.TContextRequestProc>.TStringItem>.FListHelper
 0001:000184F0       context.handlers.{System.Generics.Collections}TList<StrList.TStringList<context.handlers.TContextRequestProc>.TStringItem>.GetCapacity
 0001:00019B20       context.handlers.{System.Generics.Collections}TList<StrList.TStringList<context.handlers.TContextRequestProc>.TStringItem>.GetEnumerator
 0001:00018550       context.handlers.{System.Generics.Collections}TList<StrList.TStringList<context.handlers.TContextRequestProc>.TStringItem>.GetItem
 0001:000184B0       context.handlers.{System.Generics.Collections}TList<StrList.TStringList<context.handlers.TContextRequestProc>.TStringItem>.GetList
 0001:000184E0       context.handlers.{System.Generics.Collections}TList<StrList.TStringList<context.handlers.TContextRequestProc>.TStringItem>.GetPList
 0001:000185D0       context.handlers.{System.Generics.Collections}TList<StrList.TStringList<context.handlers.TContextRequestProc>.TStringItem>.GrowCheck
 0001:00019850       context.handlers.{System.Generics.Collections}TList<StrList.TStringList<context.handlers.TContextRequestProc>.TStringItem>.IndexOf
 0001:00019880       context.handlers.{System.Generics.Collections}TList<StrList.TStringList<context.handlers.TContextRequestProc>.TStringItem>.IndexOfItem
 0001:00018CC0       context.handlers.{System.Generics.Collections}TList<StrList.TStringList<context.handlers.TContextRequestProc>.TStringItem>.Insert
 0001:00018CE0       context.handlers.{System.Generics.Collections}TList<StrList.TStringList<context.handlers.TContextRequestProc>.TStringItem>.InsertRange
 0001:00018D10       context.handlers.{System.Generics.Collections}TList<StrList.TStringList<context.handlers.TContextRequestProc>.TStringItem>.InsertRange
 0001:00018E70       context.handlers.{System.Generics.Collections}TList<StrList.TStringList<context.handlers.TContextRequestProc>.TStringItem>.InsertRange
 0001:00018D40       context.handlers.{System.Generics.Collections}TList<StrList.TStringList<context.handlers.TContextRequestProc>.TStringItem>.InsertRange
 0001:000186A0       context.handlers.{System.Generics.Collections}TList<StrList.TStringList<context.handlers.TContextRequestProc>.TStringItem>.InternalCompare
 0001:00018610       context.handlers.{System.Generics.Collections}TList<StrList.TStringList<context.handlers.TContextRequestProc>.TStringItem>.InternalNotify
 0001:00018700       context.handlers.{System.Generics.Collections}TList<StrList.TStringList<context.handlers.TContextRequestProc>.TStringItem>.ItemValue
 0001:000196A0       context.handlers.{System.Generics.Collections}TList<StrList.TStringList<context.handlers.TContextRequestProc>.TStringItem>.Last
 0001:000198C0       context.handlers.{System.Generics.Collections}TList<StrList.TStringList<context.handlers.TContextRequestProc>.TStringItem>.LastIndexOf
 0001:00019580       context.handlers.{System.Generics.Collections}TList<StrList.TStringList<context.handlers.TContextRequestProc>.TStringItem>.Move
 0001:000187B0       context.handlers.{System.Generics.Collections}TList<StrList.TStringList<context.handlers.TContextRequestProc>.TStringItem>.Notify
 0001:00019040       context.handlers.{System.Generics.Collections}TList<StrList.TStringList<context.handlers.TContextRequestProc>.TStringItem>.Pack
 0001:00019110       context.handlers.{System.Generics.Collections}TList<StrList.TStringList<context.handlers.TContextRequestProc>.TStringItem>.Pack
 0001:000191E0       context.handlers.{System.Generics.Collections}TList<StrList.TStringList<context.handlers.TContextRequestProc>.TStringItem>.Remove
 0001:00019210       context.handlers.{System.Generics.Collections}TList<StrList.TStringList<context.handlers.TContextRequestProc>.TStringItem>.RemoveItem
 0001:000198F0       context.handlers.{System.Generics.Collections}TList<StrList.TStringList<context.handlers.TContextRequestProc>.TStringItem>.Reverse
 0001:00018500       context.handlers.{System.Generics.Collections}TList<StrList.TStringList<context.handlers.TContextRequestProc>.TStringItem>.SetCapacity
 0001:00018530       context.handlers.{System.Generics.Collections}TList<StrList.TStringList<context.handlers.TContextRequestProc>.TStringItem>.SetCount
 0001:000185A0       context.handlers.{System.Generics.Collections}TList<StrList.TStringList<context.handlers.TContextRequestProc>.TStringItem>.SetItem
 0001:00018680       context.handlers.{System.Generics.Collections}TList<StrList.TStringList<context.handlers.TContextRequestProc>.TStringItem>.SetOnNotify
 0001:00019910       context.handlers.{System.Generics.Collections}TList<StrList.TStringList<context.handlers.TContextRequestProc>.TStringItem>.Sort
 0001:00019950       context.handlers.{System.Generics.Collections}TList<StrList.TStringList<context.handlers.TContextRequestProc>.TStringItem>.Sort
 0001:00019990       context.handlers.{System.Generics.Collections}TList<StrList.TStringList<context.handlers.TContextRequestProc>.TStringItem>.Sort
 0001:00019CB0       context.handlers.{System.Generics.Collections}TList<StrList.TStringList<context.handlers.TContextRequestProc>.TStringItem>.TEnumerator.Create
 0001:00019B80       context.handlers.{System.Generics.Collections}TList<StrList.TStringList<context.handlers.TContextRequestProc>.TStringItem>.TEnumerator.DoGetCurrent
 0001:00019C90       context.handlers.{System.Generics.Collections}TList<StrList.TStringList<context.handlers.TContextRequestProc>.TStringItem>.TEnumerator.DoMoveNext
 0001:00019B40       context.handlers.{System.Generics.Collections}TList<StrList.TStringList<context.handlers.TContextRequestProc>.TStringItem>.TEnumerator.GetCurrent
 0001:00019D70       context.handlers.{System.Generics.Collections}TList<StrList.TStringList<context.handlers.TContextRequestProc>.TStringItem>.TEnumerator.MoveNext
 0001:00019AF0       context.handlers.{System.Generics.Collections}TList<StrList.TStringList<context.handlers.TContextRequestProc>.TStringItem>.ToArray
 0001:00019AD0       context.handlers.{System.Generics.Collections}TList<StrList.TStringList<context.handlers.TContextRequestProc>.TStringItem>.TrimExcess
 0001:000186C0       context.handlers.{System.Generics.Collections}TList<StrList.TStringList<context.handlers.TContextRequestProc>.TStringItem>.UpdateComparer
 0001:00018630       context.handlers.{System.Generics.Collections}TList<StrList.TStringList<context.handlers.TContextRequestProc>.TStringItem>.UpdateNotify
 0001:0001B1A0       context.handlers.{System.Generics.Collections}TList<StrList.TStringList<uModuleLib.IContextRequestHandler>.TStringItem>.Add
 0001:0001B1C0       context.handlers.{System.Generics.Collections}TList<StrList.TStringList<uModuleLib.IContextRequestHandler>.TStringItem>.AddRange
 0001:0001B1F0       context.handlers.{System.Generics.Collections}TList<StrList.TStringList<uModuleLib.IContextRequestHandler>.TStringItem>.AddRange
 0001:0001B220       context.handlers.{System.Generics.Collections}TList<StrList.TStringList<uModuleLib.IContextRequestHandler>.TStringItem>.AddRange
 0001:0001BF40       context.handlers.{System.Generics.Collections}TList<StrList.TStringList<uModuleLib.IContextRequestHandler>.TStringItem>.BinarySearch
 0001:0001BEE0       context.handlers.{System.Generics.Collections}TList<StrList.TStringList<uModuleLib.IContextRequestHandler>.TStringItem>.BinarySearch
 0001:0001BF90       context.handlers.{System.Generics.Collections}TList<StrList.TStringList<uModuleLib.IContextRequestHandler>.TStringItem>.BinarySearch
 0001:0001BCD0       context.handlers.{System.Generics.Collections}TList<StrList.TStringList<uModuleLib.IContextRequestHandler>.TStringItem>.Clear
 0001:0001BD30       context.handlers.{System.Generics.Collections}TList<StrList.TStringList<uModuleLib.IContextRequestHandler>.TStringItem>.Contains
 0001:0001AFA0       context.handlers.{System.Generics.Collections}TList<StrList.TStringList<uModuleLib.IContextRequestHandler>.TStringItem>.Create
 0001:0001AEF0       context.handlers.{System.Generics.Collections}TList<StrList.TStringList<uModuleLib.IContextRequestHandler>.TStringItem>.Create
 0001:0001AD80       context.handlers.{System.Generics.Collections}TList<StrList.TStringList<uModuleLib.IContextRequestHandler>.TStringItem>.Create
 0001:0001AE20       context.handlers.{System.Generics.Collections}TList<StrList.TStringList<uModuleLib.IContextRequestHandler>.TStringItem>.Create
 0001:0001B7B0       context.handlers.{System.Generics.Collections}TList<StrList.TStringList<uModuleLib.IContextRequestHandler>.TStringItem>.Delete
 0001:0001B7D0       context.handlers.{System.Generics.Collections}TList<StrList.TStringList<uModuleLib.IContextRequestHandler>.TStringItem>.DeleteRange
 0001:0001B050       context.handlers.{System.Generics.Collections}TList<StrList.TStringList<uModuleLib.IContextRequestHandler>.TStringItem>.Destroy
 0001:0001AB80       context.handlers.{System.Generics.Collections}TList<StrList.TStringList<uModuleLib.IContextRequestHandler>.TStringItem>.DoDelete
 0001:0001AD20       context.handlers.{System.Generics.Collections}TList<StrList.TStringList<uModuleLib.IContextRequestHandler>.TStringItem>.DoGetEnumerator
 0001:0001B0B0       context.handlers.{System.Generics.Collections}TList<StrList.TStringList<uModuleLib.IContextRequestHandler>.TStringItem>.Error
 0001:0001B100       context.handlers.{System.Generics.Collections}TList<StrList.TStringList<uModuleLib.IContextRequestHandler>.TStringItem>.Error
 0001:0001BA90       context.handlers.{System.Generics.Collections}TList<StrList.TStringList<uModuleLib.IContextRequestHandler>.TStringItem>.Exchange
 0001:0001BCF0       context.handlers.{System.Generics.Collections}TList<StrList.TStringList<uModuleLib.IContextRequestHandler>.TStringItem>.Expand
 0001:0001B860       context.handlers.{System.Generics.Collections}TList<StrList.TStringList<uModuleLib.IContextRequestHandler>.TStringItem>.Extract
 0001:0001B970       context.handlers.{System.Generics.Collections}TList<StrList.TStringList<uModuleLib.IContextRequestHandler>.TStringItem>.ExtractAt
 0001:0001B7F0       context.handlers.{System.Generics.Collections}TList<StrList.TStringList<uModuleLib.IContextRequestHandler>.TStringItem>.ExtractItem
 0001:0001BAD0       context.handlers.{System.Generics.Collections}TList<StrList.TStringList<uModuleLib.IContextRequestHandler>.TStringItem>.First
 0001:0001AA30       context.handlers.{System.Generics.Collections}TList<StrList.TStringList<uModuleLib.IContextRequestHandler>.TStringItem>.FListHelper
 0001:0001AA80       context.handlers.{System.Generics.Collections}TList<StrList.TStringList<uModuleLib.IContextRequestHandler>.TStringItem>.GetCapacity
 0001:0001C030       context.handlers.{System.Generics.Collections}TList<StrList.TStringList<uModuleLib.IContextRequestHandler>.TStringItem>.GetEnumerator
 0001:0001AAE0       context.handlers.{System.Generics.Collections}TList<StrList.TStringList<uModuleLib.IContextRequestHandler>.TStringItem>.GetItem
 0001:0001AA40       context.handlers.{System.Generics.Collections}TList<StrList.TStringList<uModuleLib.IContextRequestHandler>.TStringItem>.GetList
 0001:0001AA70       context.handlers.{System.Generics.Collections}TList<StrList.TStringList<uModuleLib.IContextRequestHandler>.TStringItem>.GetPList
 0001:0001AB60       context.handlers.{System.Generics.Collections}TList<StrList.TStringList<uModuleLib.IContextRequestHandler>.TStringItem>.GrowCheck
 0001:0001BD60       context.handlers.{System.Generics.Collections}TList<StrList.TStringList<uModuleLib.IContextRequestHandler>.TStringItem>.IndexOf
 0001:0001BD90       context.handlers.{System.Generics.Collections}TList<StrList.TStringList<uModuleLib.IContextRequestHandler>.TStringItem>.IndexOfItem
 0001:0001B250       context.handlers.{System.Generics.Collections}TList<StrList.TStringList<uModuleLib.IContextRequestHandler>.TStringItem>.Insert
 0001:0001B2D0       context.handlers.{System.Generics.Collections}TList<StrList.TStringList<uModuleLib.IContextRequestHandler>.TStringItem>.InsertRange
 0001:0001B2A0       context.handlers.{System.Generics.Collections}TList<StrList.TStringList<uModuleLib.IContextRequestHandler>.TStringItem>.InsertRange
 0001:0001B3F0       context.handlers.{System.Generics.Collections}TList<StrList.TStringList<uModuleLib.IContextRequestHandler>.TStringItem>.InsertRange
 0001:0001B270       context.handlers.{System.Generics.Collections}TList<StrList.TStringList<uModuleLib.IContextRequestHandler>.TStringItem>.InsertRange
 0001:0001AC30       context.handlers.{System.Generics.Collections}TList<StrList.TStringList<uModuleLib.IContextRequestHandler>.TStringItem>.InternalCompare
 0001:0001ABA0       context.handlers.{System.Generics.Collections}TList<StrList.TStringList<uModuleLib.IContextRequestHandler>.TStringItem>.InternalNotify
 0001:0001AC90       context.handlers.{System.Generics.Collections}TList<StrList.TStringList<uModuleLib.IContextRequestHandler>.TStringItem>.ItemValue
 0001:0001BBC0       context.handlers.{System.Generics.Collections}TList<StrList.TStringList<uModuleLib.IContextRequestHandler>.TStringItem>.Last
 0001:0001BDD0       context.handlers.{System.Generics.Collections}TList<StrList.TStringList<uModuleLib.IContextRequestHandler>.TStringItem>.LastIndexOf
 0001:0001BAB0       context.handlers.{System.Generics.Collections}TList<StrList.TStringList<uModuleLib.IContextRequestHandler>.TStringItem>.Move
 0001:0001AD40       context.handlers.{System.Generics.Collections}TList<StrList.TStringList<uModuleLib.IContextRequestHandler>.TStringItem>.Notify
 0001:0001B670       context.handlers.{System.Generics.Collections}TList<StrList.TStringList<uModuleLib.IContextRequestHandler>.TStringItem>.Pack
 0001:0001B5A0       context.handlers.{System.Generics.Collections}TList<StrList.TStringList<uModuleLib.IContextRequestHandler>.TStringItem>.Pack
 0001:0001B740       context.handlers.{System.Generics.Collections}TList<StrList.TStringList<uModuleLib.IContextRequestHandler>.TStringItem>.Remove
 0001:0001B770       context.handlers.{System.Generics.Collections}TList<StrList.TStringList<uModuleLib.IContextRequestHandler>.TStringItem>.RemoveItem
 0001:0001BE00       context.handlers.{System.Generics.Collections}TList<StrList.TStringList<uModuleLib.IContextRequestHandler>.TStringItem>.Reverse
 0001:0001AA90       context.handlers.{System.Generics.Collections}TList<StrList.TStringList<uModuleLib.IContextRequestHandler>.TStringItem>.SetCapacity
 0001:0001AAC0       context.handlers.{System.Generics.Collections}TList<StrList.TStringList<uModuleLib.IContextRequestHandler>.TStringItem>.SetCount
 0001:0001AB30       context.handlers.{System.Generics.Collections}TList<StrList.TStringList<uModuleLib.IContextRequestHandler>.TStringItem>.SetItem
 0001:0001AC10       context.handlers.{System.Generics.Collections}TList<StrList.TStringList<uModuleLib.IContextRequestHandler>.TStringItem>.SetOnNotify
 0001:0001BE20       context.handlers.{System.Generics.Collections}TList<StrList.TStringList<uModuleLib.IContextRequestHandler>.TStringItem>.Sort
 0001:0001BE60       context.handlers.{System.Generics.Collections}TList<StrList.TStringList<uModuleLib.IContextRequestHandler>.TStringItem>.Sort
 0001:0001BEA0       context.handlers.{System.Generics.Collections}TList<StrList.TStringList<uModuleLib.IContextRequestHandler>.TStringItem>.Sort
 0001:0001C1C0       context.handlers.{System.Generics.Collections}TList<StrList.TStringList<uModuleLib.IContextRequestHandler>.TStringItem>.TEnumerator.Create
 0001:0001C090       context.handlers.{System.Generics.Collections}TList<StrList.TStringList<uModuleLib.IContextRequestHandler>.TStringItem>.TEnumerator.DoGetCurrent
 0001:0001C1A0       context.handlers.{System.Generics.Collections}TList<StrList.TStringList<uModuleLib.IContextRequestHandler>.TStringItem>.TEnumerator.DoMoveNext
 0001:0001C050       context.handlers.{System.Generics.Collections}TList<StrList.TStringList<uModuleLib.IContextRequestHandler>.TStringItem>.TEnumerator.GetCurrent
 0001:0001C280       context.handlers.{System.Generics.Collections}TList<StrList.TStringList<uModuleLib.IContextRequestHandler>.TStringItem>.TEnumerator.MoveNext
 0001:0001C000       context.handlers.{System.Generics.Collections}TList<StrList.TStringList<uModuleLib.IContextRequestHandler>.TStringItem>.ToArray
 0001:0001BFE0       context.handlers.{System.Generics.Collections}TList<StrList.TStringList<uModuleLib.IContextRequestHandler>.TStringItem>.TrimExcess
 0001:0001AC50       context.handlers.{System.Generics.Collections}TList<StrList.TStringList<uModuleLib.IContextRequestHandler>.TStringItem>.UpdateComparer
 0001:0001ABC0       context.handlers.{System.Generics.Collections}TList<StrList.TStringList<uModuleLib.IContextRequestHandler>.TStringItem>.UpdateNotify
 0001:0001D5D0       context.handlers.{System.Generics.Collections}TList<System.TObject>.Add
 0001:0001D650       context.handlers.{System.Generics.Collections}TList<System.TObject>.AddRange
 0001:0001D5F0       context.handlers.{System.Generics.Collections}TList<System.TObject>.AddRange
 0001:0001D620       context.handlers.{System.Generics.Collections}TList<System.TObject>.AddRange
 0001:0001DF70       context.handlers.{System.Generics.Collections}TList<System.TObject>.BinarySearch
 0001:0001E020       context.handlers.{System.Generics.Collections}TList<System.TObject>.BinarySearch
 0001:0001DFD0       context.handlers.{System.Generics.Collections}TList<System.TObject>.BinarySearch
 0001:0001DD60       context.handlers.{System.Generics.Collections}TList<System.TObject>.Clear
 0001:0001DDC0       context.handlers.{System.Generics.Collections}TList<System.TObject>.Contains
 0001:0001D3D0       context.handlers.{System.Generics.Collections}TList<System.TObject>.Create
 0001:0001D320       context.handlers.{System.Generics.Collections}TList<System.TObject>.Create
 0001:0001D250       context.handlers.{System.Generics.Collections}TList<System.TObject>.Create
 0001:0001D1B0       context.handlers.{System.Generics.Collections}TList<System.TObject>.Create
 0001:0001DB70       context.handlers.{System.Generics.Collections}TList<System.TObject>.Delete
 0001:0001DB90       context.handlers.{System.Generics.Collections}TList<System.TObject>.DeleteRange
 0001:0001D480       context.handlers.{System.Generics.Collections}TList<System.TObject>.Destroy
 0001:0001CFB0       context.handlers.{System.Generics.Collections}TList<System.TObject>.DoDelete
 0001:0001D150       context.handlers.{System.Generics.Collections}TList<System.TObject>.DoGetEnumerator
 0001:0001D530       context.handlers.{System.Generics.Collections}TList<System.TObject>.Error
 0001:0001D4E0       context.handlers.{System.Generics.Collections}TList<System.TObject>.Error
 0001:0001DC90       context.handlers.{System.Generics.Collections}TList<System.TObject>.Exchange
 0001:0001DD80       context.handlers.{System.Generics.Collections}TList<System.TObject>.Expand
 0001:0001DC00       context.handlers.{System.Generics.Collections}TList<System.TObject>.Extract
 0001:0001DC40       context.handlers.{System.Generics.Collections}TList<System.TObject>.ExtractAt
 0001:0001DBB0       context.handlers.{System.Generics.Collections}TList<System.TObject>.ExtractItem
 0001:0001DCD0       context.handlers.{System.Generics.Collections}TList<System.TObject>.First
 0001:0001CE80       context.handlers.{System.Generics.Collections}TList<System.TObject>.FListHelper
 0001:0001CED0       context.handlers.{System.Generics.Collections}TList<System.TObject>.GetCapacity
 0001:0001E0C0       context.handlers.{System.Generics.Collections}TList<System.TObject>.GetEnumerator
 0001:0001CF30       context.handlers.{System.Generics.Collections}TList<System.TObject>.GetItem
 0001:0001CE90       context.handlers.{System.Generics.Collections}TList<System.TObject>.GetList
 0001:0001CEC0       context.handlers.{System.Generics.Collections}TList<System.TObject>.GetPList
 0001:0001CF90       context.handlers.{System.Generics.Collections}TList<System.TObject>.GrowCheck
 0001:0001DDF0       context.handlers.{System.Generics.Collections}TList<System.TObject>.IndexOf
 0001:0001DE20       context.handlers.{System.Generics.Collections}TList<System.TObject>.IndexOfItem
 0001:0001D680       context.handlers.{System.Generics.Collections}TList<System.TObject>.Insert
 0001:0001D700       context.handlers.{System.Generics.Collections}TList<System.TObject>.InsertRange
 0001:0001D6D0       context.handlers.{System.Generics.Collections}TList<System.TObject>.InsertRange
 0001:0001D6A0       context.handlers.{System.Generics.Collections}TList<System.TObject>.InsertRange
 0001:0001D7F0       context.handlers.{System.Generics.Collections}TList<System.TObject>.InsertRange
 0001:0001D060       context.handlers.{System.Generics.Collections}TList<System.TObject>.InternalCompare
 0001:0001CFD0       context.handlers.{System.Generics.Collections}TList<System.TObject>.InternalNotify
 0001:0001D0E0       context.handlers.{System.Generics.Collections}TList<System.TObject>.ItemValue
 0001:0001DD10       context.handlers.{System.Generics.Collections}TList<System.TObject>.Last
 0001:0001DE60       context.handlers.{System.Generics.Collections}TList<System.TObject>.LastIndexOf
 0001:0001DCB0       context.handlers.{System.Generics.Collections}TList<System.TObject>.Move
 0001:0001D170       context.handlers.{System.Generics.Collections}TList<System.TObject>.Notify
 0001:0001DA30       context.handlers.{System.Generics.Collections}TList<System.TObject>.Pack
 0001:0001D960       context.handlers.{System.Generics.Collections}TList<System.TObject>.Pack
 0001:0001DB00       context.handlers.{System.Generics.Collections}TList<System.TObject>.Remove
 0001:0001DB30       context.handlers.{System.Generics.Collections}TList<System.TObject>.RemoveItem
 0001:0001DE90       context.handlers.{System.Generics.Collections}TList<System.TObject>.Reverse
 0001:0001CEE0       context.handlers.{System.Generics.Collections}TList<System.TObject>.SetCapacity
 0001:0001CF10       context.handlers.{System.Generics.Collections}TList<System.TObject>.SetCount
 0001:0001CF60       context.handlers.{System.Generics.Collections}TList<System.TObject>.SetItem
 0001:0001D040       context.handlers.{System.Generics.Collections}TList<System.TObject>.SetOnNotify
 0001:0001DEF0       context.handlers.{System.Generics.Collections}TList<System.TObject>.Sort
 0001:0001DF30       context.handlers.{System.Generics.Collections}TList<System.TObject>.Sort
 0001:0001DEB0       context.handlers.{System.Generics.Collections}TList<System.TObject>.Sort
 0001:0001E150       context.handlers.{System.Generics.Collections}TList<System.TObject>.TEnumerator.Create
 0001:0001E100       context.handlers.{System.Generics.Collections}TList<System.TObject>.TEnumerator.DoGetCurrent
 0001:0001E130       context.handlers.{System.Generics.Collections}TList<System.TObject>.TEnumerator.DoMoveNext
 0001:0001E0E0       context.handlers.{System.Generics.Collections}TList<System.TObject>.TEnumerator.GetCurrent
 0001:0001E210       context.handlers.{System.Generics.Collections}TList<System.TObject>.TEnumerator.MoveNext
 0001:0001E090       context.handlers.{System.Generics.Collections}TList<System.TObject>.ToArray
 0001:0001E070       context.handlers.{System.Generics.Collections}TList<System.TObject>.TrimExcess
 0001:0001D080       context.handlers.{System.Generics.Collections}TList<System.TObject>.UpdateComparer
 0001:0001CFF0       context.handlers.{System.Generics.Collections}TList<System.TObject>.UpdateNotify
 0001:0001E3C0       context.handlers.{System.Generics.Collections}TObjectList<System.TObject>.Create
 0001:0001E310       context.handlers.{System.Generics.Collections}TObjectList<System.TObject>.Create
 0001:0001E270       context.handlers.{System.Generics.Collections}TObjectList<System.TObject>.Create
 0001:0001E470       context.handlers.{System.Generics.Collections}TObjectList<System.TObject>.Create
 0001:0001E520       context.handlers.{System.Generics.Collections}TObjectList<System.TObject>.Destroy
 0001:0001E230       context.handlers.{System.Generics.Collections}TObjectList<System.TObject>.Notify
 0001:0001E630       context.handlers.{System.Generics.Defaults}TComparer<StrList.TStringList<context.handlers.TContextRequestProc>.TStringItem>._Default
 0001:0001EA50       context.handlers.{System.Generics.Defaults}TComparer<StrList.TStringList<uModuleLib.IContextRequestHandler>.TStringItem>._Default
 0001:0001ED90       context.handlers.{System.Generics.Defaults}TComparer<System.TObject>._Default
 0001:00003FB0       CSIdAntiFreezeBase.CSIdAntiFreezeBase
 0001:00003FA0       CSIdAntiFreezeBase.Finalization
 0001:000040B0       CSIdAssignedNumbers.CSIdAssignedNumbers
 0001:000040A0       CSIdAssignedNumbers.Finalization
 0001:00003F90       CSIdBaseComponent.CSIdBaseComponent
 0001:00003F80       CSIdBaseComponent.Finalization
 0001:00003FF0       CSIdBuffer.CSIdBuffer
 0001:00003FE0       CSIdBuffer.Finalization
 0001:00004010       CSIdComponent.CSIdComponent
 0001:00004000       CSIdComponent.Finalization
 0001:00004090       CSIdCustomTransparentProxy.CSIdCustomTransparentProxy
 0001:00004080       CSIdCustomTransparentProxy.Finalization
 0001:00003D90       CSIdException.CSIdException
 0001:00003D80       CSIdException.Finalization
 0001:00003F70       CSIdExceptionCore.CSIdExceptionCore
 0001:00003F60       CSIdExceptionCore.Finalization
 0001:00003E10       CSIdGlobal.CSIdGlobal
 0001:00003E00       CSIdGlobal.Finalization
 0001:00003EB0       CSIdIDN.CSIdIDN
 0001:00003EA0       CSIdIDN.Finalization
 0001:00004030       CSIdIntercept.CSIdIntercept
 0001:00004020       CSIdIntercept.Finalization
 0001:00004050       CSIdIOHandler.CSIdIOHandler
 0001:00004040       CSIdIOHandler.Finalization
 0001:00004130       CSIdIOHandlerSocket.CSIdIOHandlerSocket
 0001:00004120       CSIdIOHandlerSocket.Finalization
 0001:000040F0       CSIdIOHandlerStack.CSIdIOHandlerStack
 0001:000040E0       CSIdIOHandlerStack.Finalization
 0001:000040D0       CSIdIPAddress.CSIdIPAddress
 0001:000040C0       CSIdIPAddress.Finalization
 0001:00004150       CSIdReply.CSIdReply
 0001:00004140       CSIdReply.Finalization
 0001:00004170       CSIdReplyRFC.CSIdReplyRFC
 0001:00004160       CSIdReplyRFC.Finalization
 0001:00003DB0       CSIdResourceStrings.CSIdResourceStrings
 0001:00003DA0       CSIdResourceStrings.Finalization
 0001:00003FD0       CSIdResourceStringsCore.CSIdResourceStringsCore
 0001:00003FC0       CSIdResourceStringsCore.Finalization
 0001:00004070       CSIdSocketHandle.CSIdSocketHandle
 0001:00004060       CSIdSocketHandle.Finalization
 0001:00004110       CSIdSocks.CSIdSocks
 0001:00004100       CSIdSocks.Finalization
 0001:00003F50       CSIdStack.CSIdStack
 0001:00003F40       CSIdStack.Finalization
 0001:00003E90       CSIdStackBSDBase.CSIdStackBSDBase
 0001:00003E80       CSIdStackBSDBase.Finalization
 0001:00003E70       CSIdStackConsts.CSIdStackConsts
 0001:00003E60       CSIdStackConsts.Finalization
 0001:00003F30       CSIdStackWindows.CSIdStackWindows
 0001:00003F20       CSIdStackWindows.Finalization
 0001:00003DF0       CSIdStream.CSIdStream
 0001:00003DE0       CSIdStream.Finalization
 0001:00003DD0       CSIdStreamVCL.CSIdStreamVCL
 0001:00003DC0       CSIdStreamVCL.Finalization
 0001:000041B0       CSIdTCPClient.CSIdTCPClient
 0001:000041A0       CSIdTCPClient.Finalization
 0001:00004190       CSIdTCPConnection.CSIdTCPConnection
 0001:00004180       CSIdTCPConnection.Finalization
 0001:00003E30       CSIdWinsock2.CSIdWinsock2
 0001:00003E20       CSIdWinsock2.Finalization
 0001:00003E50       CSIdWship6.CSIdWship6
 0001:00003E40       CSIdWship6.Finalization
 0001:00004340       DispWrap.DispWrap
 0001:00004330       DispWrap.Finalization
 0001:00004C90       EventBus.Consts.EventBus.Consts
 0001:00004C80       EventBus.Consts.Finalization
 0001:00004D90       EventBus.Core.EventBus.Core
 0001:00004D80       EventBus.Core.Finalization
 0001:00004CB0       EventBus.Event.EventBus.Event
 0001:00004CA0       EventBus.Event.Finalization
 0001:00004D10       EventBus.Handler.EventBus.Handler
 0001:00004D00       EventBus.Handler.Finalization
 0001:00004CF0       EventBus.Helper.EventBus.Helper
 0001:00004CE0       EventBus.Helper.Finalization
 0001:00004CC0       EventBus.Helper.TRttiHelper.Create@
 0001:00004CD0       EventBus.Helper.TRttiHelper.Destroy@
 0001:00004E00       EventBus.Intf.EventBus.Intf
 0001:00004DD0       EventBus.Intf.EventBusAttribute.Create
 0001:00004DF0       EventBus.Intf.Finalization
 0001:00004DE0       EventBus.Intf.SubscribeAttribute.Create
 0001:00004DA0       EventBus.Intf.TBaseEvent.AfterConstruction
 0001:00004DB0       EventBus.Intf.TBaseEvent.Create
 0001:00004DC0       EventBus.Intf.TBaseEvent.Desc
 0001:00004D70       EventBus.Log.EventBus.Log
 0001:00004D60       EventBus.Log.Finalization
 0001:00004D50       EventBus.Util.EventBus.Util
 0001:00004D40       EventBus.Util.Finalization
 0001:00004D20       EventBus.Util.TEventBuseService.Create@
 0001:00004D30       EventBus.Util.TEventBuseService.Destroy@
 0001:00004F20       fcIntf.fcIntf
 0001:00004F10       fcIntf.Finalization
 0001:000051C0       fsApplc.Finalization
 0001:000051D0       fsApplc.fsApplc
 0001:00005170       fsApplc.TAppSystem.RegisterProc
 0001:00005180       fsApplc.TAppSystem.RegisterService
 0001:000051B0       fsApplc.TAppSystem.ShowMsg
 0001:00005190       fsApplc.TAppSystem.ShowMsg
 0001:000051A0       fsApplc.TAppSystem.Supports
 0001:000050B0       fsConfig.Finalization
 0001:000050C0       fsConfig.fsConfig
 0001:000044D0       fsLib.Finalization
 0001:000044E0       fsLib.fsLib
 0001:000044B0       fsLib.Json
 0001:000044C0       fsLib.Json
 0001:000044A0       fsLib.TRefCheckInterfacedPersistent.Create@
 0001:00004490       fsLib.TRefCheckInterfacedPersistent.Destroy@
 0001:00004EF0       fsMUI.Finalization
 0001:00004F00       fsMUI.fsMUI
 0001:00005030       fsOEM.Finalization
 0001:00005040       fsOEM.fsOEM
 0001:00005070       fsSettings.Finalization
 0001:00005080       fsSettings.fsSettings
 0001:00005110       fsSocket.Finalization
 0001:00005120       fsSocket.fsSocket
 0001:00005050       fsStrs.Finalization
 0001:00005060       fsStrs.fsStrs
 0001:000050F0       IpHlpApi0.Finalization
 0001:00005100       IpHlpApi0.IpHlpApi0
 0001:00005130       md5.Finalization
 0001:00005140       md5.md5
 0001:00004E10       MVCFramework.beans.factory.Finalization
 0001:00004E20       MVCFramework.beans.factory.MVCFramework.beans.factory
 0001:00005280       MVCFramework.beans.factory.util.Finalization
 0001:00005290       MVCFramework.beans.factory.util.MVCFramework.beans.factory.util
 0001:00005250       MVCFramework.beans.factory.util.TBeanFactoryUtils.Create@
 0001:00005260       MVCFramework.beans.factory.util.TBeanFactoryUtils.Destroy@
 0001:00005270       MVCFramework.beans.factory.util.TBeanFactoryUtils.GetBeanFactory
 0001:00004E30       MVCFramework.context.event.Finalization
 0001:00004E40       MVCFramework.context.event.MVCFramework.context.event
 0001:00005210       MVCFramework.context.support.Finalization
 0001:00005220       MVCFramework.context.support.MVCFramework.context.support
 0001:000051E0       MVCFramework.context.support.TApplicationContext.Create@
 0001:000051F0       MVCFramework.context.support.TApplicationContext.Destroy@
 0001:00005200       MVCFramework.context.support.TApplicationContext.RegisterBean
 0001:00004E50       MVCFramework.core.annotation.Finalization
 0001:00004E60       MVCFramework.core.annotation.MVCFramework.core.annotation
 0001:00005230       MVCFramework.json.util.Finalization
 0001:00005240       MVCFramework.json.util.MVCFramework.json.util
 0001:00004E70       MVCFramework.servlet.Finalization
 0001:00004E80       MVCFramework.servlet.MVCFramework.servlet
 0001:00004E90       MVCFramework.stereotype.Finalization
 0001:00004EA0       MVCFramework.stereotype.MVCFramework.stereotype
 0001:00004ED0       MVCFramework.util.Finalization
 0001:00004EE0       MVCFramework.util.MVCFramework.util
 0001:00004EB0       MVCFramework.web.bind.annotation.Finalization
 0001:00004EC0       MVCFramework.web.bind.annotation.MVCFramework.web.bind.annotation
 0001:000042B0       NativeXml.Finalization
 0001:000042C0       NativeXml.NativeXml
 0001:00004250       sdDebug.Finalization
 0001:00004260       sdDebug.sdDebug
 0001:00004270       sdStreams.Finalization
 0001:00004280       sdStreams.sdStreams
 0001:00004290       sdStringTable.Finalization
 0001:000042A0       sdStringTable.sdStringTable
 0001:000043F0       SetupAPI.Finalization
 0001:00004400       SetupAPI.SetupAPI
 0001:00005010       sevenzip.Finalization
 0001:00005020       sevenzip.sevenzip
 0001:00004430       Sockets2010.Finalization
 0001:00004440       Sockets2010.Sockets2010
 0005:00000168       StrList.$pdata$_ZN7Strlist12FinalizationEv
 0005:00000174       StrList.$pdata$_ZN7Strlist14initializationEv
 0002:000001B8       StrList.$unwind$_ZN7Strlist12FinalizationEv
 0002:000001BC       StrList.$unwind$_ZN7Strlist14initializationEv
 0003:00000078       StrList..3
 0001:00002BD0       StrList.Finalization
 0001:00002BE0       StrList.StrList
 0001:00002C40       superobject.Finalization
 0001:00002C20       superobject.SO
 0001:00002C10       superobject.SO
 0001:00002C50       superobject.superobject
 0001:00002C30       superobject.TSuperObjectHelper.ToJson
 0005:000000B4       SysInit.$pdata$delayhlp
 0005:0000000C       SysInit.$pdata$_ZN7Sysinit10GetTlsSizeEv
 0005:000000E4       SysInit.$pdata$_ZN7Sysinit12FinalizationEv
 0005:0000009C       SysInit.$pdata$_ZN7Sysinit12_PackageLoadEPN6System16PackageInfoTableE
 0005:00000030       SysInit.$pdata$_ZN7Sysinit13ExitThreadTLSEv
 0005:00000018       SysInit.$pdata$_ZN7Sysinit13InitThreadTLSEv
 0005:00000000       SysInit.$pdata$_ZN7Sysinit14AllocTlsBufferEi
 0005:0000003C       SysInit.$pdata$_ZN7Sysinit14ExitProcessTLSEv
 0005:000000F0       SysInit.$pdata$_ZN7Sysinit14initializationEv
 0005:00000024       SysInit.$pdata$_ZN7Sysinit14InitProcessTLSEv
 0005:000000A8       SysInit.$pdata$_ZN7Sysinit14_PackageUnloadEPN6System16PackageInfoTableE
 0005:00000060       SysInit.$pdata$_ZN7Sysinit14__dbkDummyProcEv
 0005:0000006C       SysInit.$pdata$_ZN7Sysinit14__dbkFCallArgsEPvS0_S0_S0_S0_S0_S0_S0_S0_S0_S0_S0_S0_S0_S0_S0_S0_S0_S0_S0_S0_S0_S0_S0_S0_S0_S0_S0_S0_S0_
 0005:00000048       SysInit.$pdata$_ZN7Sysinit16InitializeModuleEv
 0005:00000054       SysInit.$pdata$_ZN7Sysinit18UninitializeModuleEv
 0005:00000078       SysInit.$pdata$_ZN7Sysinit19__dbk_fcall_wrapperEv
 0005:00000090       SysInit.$pdata$_ZN7Sysinit8_InitPkgEyiPv
 0002:0000010C       SysInit.$unwind$delayhlp
 0002:00000050       SysInit.$unwind$_ZN7Sysinit10GetTlsSizeEv
 0002:0000016C       SysInit.$unwind$_ZN7Sysinit12FinalizationEv
 0002:000000FC       SysInit.$unwind$_ZN7Sysinit12_PackageLoadEPN6System16PackageInfoTableE
 0002:00000064       SysInit.$unwind$_ZN7Sysinit13ExitThreadTLSEv
 0002:00000054       SysInit.$unwind$_ZN7Sysinit13InitThreadTLSEv
 0002:00000010       SysInit.$unwind$_ZN7Sysinit14AllocTlsBufferEi
 0002:0000006C       SysInit.$unwind$_ZN7Sysinit14ExitProcessTLSEv
 0002:00000174       SysInit.$unwind$_ZN7Sysinit14initializationEv
 0002:0000005C       SysInit.$unwind$_ZN7Sysinit14InitProcessTLSEv
 0002:00000104       SysInit.$unwind$_ZN7Sysinit14_PackageUnloadEPN6System16PackageInfoTableE
 0002:000000A8       SysInit.$unwind$_ZN7Sysinit14__dbkDummyProcEv
 0002:000000AC       SysInit.$unwind$_ZN7Sysinit14__dbkFCallArgsEPvS0_S0_S0_S0_S0_S0_S0_S0_S0_S0_S0_S0_S0_S0_S0_S0_S0_S0_S0_S0_S0_S0_S0_S0_S0_S0_S0_S0_S0_
 0002:00000098       SysInit.$unwind$_ZN7Sysinit16InitializeModuleEv
 0002:000000A0       SysInit.$unwind$_ZN7Sysinit18UninitializeModuleEv
 0002:000000B4       SysInit.$unwind$_ZN7Sysinit19__dbk_fcall_wrapperEv
 0002:000000F0       SysInit.$unwind$_ZN7Sysinit8_InitPkgEyiPv
 0003:00000048       SysInit...__puiHead
 0003:00000030       SysInit..1
 0003:00000048       SysInit..bss.delayhlp
 0001:00000EE0       SysInit..text.delayhlp
 0001:00000E20       SysInit.@InitPkg
 0001:00000EA0       SysInit.@PackageLoad
 0001:00000EC0       SysInit.@PackageUnload
 0001:000006C0       SysInit.@_dbkDummyProc
 0001:000006D0       SysInit.@_dbkFCallArgs
 0001:00000AD0       SysInit.@_dbk_fcall_wrapper
 0001:00000EE0       SysInit.@_delayLoadHelper2
 0001:000011C0       SysInit.@_FUnloadDelayLoadedDLL2
 0001:00001870       SysInit.@_HrLoadAllImportsForDll
 0003:00000028       SysInit.@_pfnDliFailureHook2
 0003:00000020       SysInit.@_pfnDliNotifyHook2
 0001:00000520       SysInit.AllocTlsBuffer
 0003:00000018       SysInit.dbkFCallWrapperAddr
 0001:00000630       SysInit.ExitProcessTLS
 0001:000005E0       SysInit.ExitThreadTLS
 0001:00001D00       SysInit.Finalization
 0001:00000470       SysInit.FreeLibrary
 0001:000004E0       SysInit.GetLastError
 0001:00000510       SysInit.GetProcAddress
 0001:00000540       SysInit.GetTlsSize
 0003:00000008       SysInit.HInstance
 0001:00000660       SysInit.InitializeModule
 0001:000005A0       SysInit.InitProcessTLS
 0001:00000550       SysInit.InitThreadTLS
 0001:000004F0       SysInit.LoadLibraryA
 0001:00000480       SysInit.LocalAlloc
 0001:00000490       SysInit.LocalFree
 0002:00000018       SysInit.Module
 0003:00000000       SysInit.ModuleIsLib
 0003:00000001       SysInit.ModuleIsPackage
 0002:00000008       SysInit.PtrToNil
 0001:00000500       SysInit.RaiseException
 0001:000019D0       SysInit.ShutdownDelayHelp2
 0001:00001D20       SysInit.SysInit
 0001:000004A0       SysInit.TlsAlloc
 0003:00000038       SysInit.tlsBuffer
 0001:000004B0       SysInit.TlsFree
 0001:000004C0       SysInit.TlsGetValue
 0002:00000000       SysInit.TlsIndex
 0004:00000000       SysInit.TlsLast
 0002:00000078       SysInit.TlsProc
 0001:000004D0       SysInit.TlsSetValue
 0001:00000680       SysInit.UninitializeModule
 0003:00000040       SysInit.UseTlsAPI
 0003:FFFBE000       SysInit.__ImageBase
 0001:00000050       System.@AbstractError
 0001:000001C0       System.@AfterConstruction
 0001:000001D0       System.@BeforeDestruction
 0001:000001A0       System.@ClassCreate
 0001:000001B0       System.@ClassDestroy
 0001:00000340       System.@CopyRecord
 0001:000001E0       System.@DelphiExceptionHandler
 0001:00000220       System.@DestroyException
 0001:00000230       System.@DoneExcept
 0001:00000380       System.@DynArrayAsg
 0001:00000370       System.@DynArrayClear
 0001:00000350       System.@DynArrayLength
 0001:00000360       System.@DynArraySetLength
 0001:00000330       System.@FinalizeArray
 0001:00000320       System.@FinalizeRecord
 0001:00000020       System.@FreeMem
 0001:00000010       System.@GetMem
 0001:00000310       System.@InitializeRecord
 0001:000003D0       System.@IntfAddRef
 0001:000003B0       System.@IntfClear
 0001:000003C0       System.@IntfCopy
 0001:00000120       System.@IsClass
 0001:00000240       System.@PackageLoad
 0001:00000250       System.@PackageUnload
 0001:00000210       System.@RaiseAgain
 0001:000001F0       System.@RaiseAtExcept
 0001:00000200       System.@RaiseExcept
 0001:00000260       System.@RunError
 0001:00000130       System.@SafeIntfAsClass
 0001:00000290       System.@UStrAddRef
 0001:00000280       System.@UStrArrayClr
 0001:000002A0       System.@UStrAsg
 0001:000002D0       System.@UStrCat
 0001:000002E0       System.@UStrCat3
 0001:000002F0       System.@UStrCatN
 0001:00000270       System.@UStrClr
 0001:00000300       System.@UStrCopy
 0001:000002B0       System.@UStrLAsg
 0001:000002C0       System.@UStrLen
 0001:00000450       System.Finalization
 0001:00000040       System.HPPGENAttribute.Create
 0001:00000440       System.LoadResString
 0001:00000030       System.ParamStr
 0001:00000000       System.Pos
 0001:00000390       System.RegisterModule
 0001:00000460       System.System
 0001:000003E0       System.TInterfacedObject.AfterConstruction
 0001:000003F0       System.TInterfacedObject.BeforeDestruction
 0001:00000400       System.TInterfacedObject.NewInstance
 0001:00000410       System.TInterfacedObject.QueryInterface
 0001:00000420       System.TInterfacedObject._AddRef
 0001:00000430       System.TInterfacedObject._Release
 0001:00000170       System.TObject.AfterConstruction
 0001:00000180       System.TObject.BeforeDestruction
 0001:00000060       System.TObject.ClassInfo
 0001:00000070       System.TObject.ClassName
 0001:000000A0       System.TObject.CPP_ABI_1
 0001:000000B0       System.TObject.CPP_ABI_2
 0001:000000C0       System.TObject.CPP_ABI_3
 0001:000000D0       System.TObject.Create
 0001:00000160       System.TObject.DefaultHandler
 0001:000000E0       System.TObject.Destroy
 0001:00000190       System.TObject.Dispatch
 0001:00000100       System.TObject.Equals
 0001:000000F0       System.TObject.Free
 0001:00000090       System.TObject.FreeInstance
 0001:00000110       System.TObject.GetHashCode
 0001:00000080       System.TObject.NewInstance
 0001:00000140       System.TObject.SafeCallException
 0001:00000150       System.TObject.ToString
 0001:000003A0       System.UnregisterModule
 0001:000030B0       System.Actions.Finalization
 0001:000030C0       System.Actions.System.Actions
 0001:00003A30       System.AnsiStrings.Finalization
 0001:00003A40       System.AnsiStrings.System.AnsiStrings
 0001:00002230       System.Character.Finalization
 0001:00002240       System.Character.System.Character
 0001:00002BB0       System.Classes.Finalization
 0001:00002BC0       System.Classes.System.Classes
 0001:00002B90       System.Classes.TBaseAsyncResult.Create@
 0001:00002BA0       System.Classes.TBaseAsyncResult.Destroy@
 0001:00002A50       System.Classes.TBinaryWriter.Create@
 0001:00002B50       System.Classes.TBinaryWriter.Destroy@
 0001:00002B40       System.Classes.TComponent.Create@
 0001:00002A40       System.Classes.TComponent.Destroy@
 0001:00002A60       System.Classes.TFieldsCache.Create@
 0001:00002A70       System.Classes.TFieldsCache.Destroy@
 0001:00002AC0       System.Classes.TInterfacedPersistent.AfterConstruction
 0001:00002AF0       System.Classes.TInterfacedPersistent.QueryInterface
 0001:00002AD0       System.Classes.TInterfacedPersistent._AddRef
 0001:00002AE0       System.Classes.TInterfacedPersistent._Release
 0001:00002B60       System.Classes.TLoginCredentialService.Create@
 0001:00002B70       System.Classes.TLoginCredentialService.Destroy@
 0001:00002A30       System.Classes.TObserverMapping.Create@
 0001:00002B80       System.Classes.TObserverMapping.Destroy@
 0001:00002A90       System.Classes.TPersistent.Assign
 0001:00002AA0       System.Classes.TPersistent.AssignTo
 0001:00002AB0       System.Classes.TPersistent.DefineProperties
 0001:00002A80       System.Classes.TPersistent.Destroy
 0001:00002B10       System.Classes.TStream.SetPosition
 0001:00002B00       System.Classes.TStringList.Create
 0001:00002B20       System.Classes.TThread.Create@
 0001:00002B30       System.Classes.TThread.Destroy@
 0001:00003030       System.Contnrs.Finalization
 0001:00003040       System.Contnrs.System.Contnrs
 0001:000042F0       System.ConvUtils.Finalization
 0001:00004300       System.ConvUtils.System.ConvUtils
 0001:00002ED0       System.DateUtils.Finalization
 0001:00002EE0       System.DateUtils.System.DateUtils
 0001:00002EB0       System.DateUtils.TTimeZone.Create@
 0001:00002EC0       System.DateUtils.TTimeZone.Destroy@
 0001:00002A10       System.Diagnostics.Finalization
 0001:00002A20       System.Diagnostics.System.Diagnostics
 0001:000025C0       System.Generics.Collections.ErrorArgumentOutOfRange
 0001:00002950       System.Generics.Collections.Finalization
 0001:00002960       System.Generics.Collections.System.Generics.Collections
 0001:00002630       System.Generics.Collections.TListHelper.DoAddInterface
 0001:00002640       System.Generics.Collections.TListHelper.DoExchangeInterface
 0001:00002650       System.Generics.Collections.TListHelper.DoExtractItemFwd8
 0001:00002670       System.Generics.Collections.TListHelper.DoExtractItemFwdInterface
 0001:00002690       System.Generics.Collections.TListHelper.DoExtractItemFwdManaged
 0001:00002660       System.Generics.Collections.TListHelper.DoExtractItemRev8
 0001:00002680       System.Generics.Collections.TListHelper.DoExtractItemRevInterface
 0001:000026A0       System.Generics.Collections.TListHelper.DoExtractItemRevManaged
 0001:000026B0       System.Generics.Collections.TListHelper.DoIndexOfFwd8
 0001:000026C0       System.Generics.Collections.TListHelper.DoIndexOfFwdMRef
 0001:000026D0       System.Generics.Collections.TListHelper.DoIndexOfFwdN
 0001:000026E0       System.Generics.Collections.TListHelper.DoIndexOfRev8
 0001:000026F0       System.Generics.Collections.TListHelper.DoIndexOfRevMRef
 0001:00002700       System.Generics.Collections.TListHelper.DoIndexOfRevN
 0001:00002710       System.Generics.Collections.TListHelper.DoInsertInterface
 0001:00002720       System.Generics.Collections.TListHelper.DoRemoveFwd8
 0001:00002740       System.Generics.Collections.TListHelper.DoRemoveFwdManaged
 0001:00002730       System.Generics.Collections.TListHelper.DoRemoveFwdMRef
 0001:00002750       System.Generics.Collections.TListHelper.DoRemoveRev8
 0001:00002770       System.Generics.Collections.TListHelper.DoRemoveRevManaged
 0001:00002760       System.Generics.Collections.TListHelper.DoRemoveRevMRef
 0001:00002780       System.Generics.Collections.TListHelper.DoReverseInterface
 0001:000025F0       System.Generics.Collections.TListHelper.DoSetItemInterface
 0001:00002790       System.Generics.Collections.TListHelper.InternalAdd8
 0001:000027A0       System.Generics.Collections.TListHelper.InternalAddManaged
 0001:000027B0       System.Generics.Collections.TListHelper.InternalClear8
 0001:000027C0       System.Generics.Collections.TListHelper.InternalClearManaged
 0001:000027D0       System.Generics.Collections.TListHelper.InternalClearMRef
 0001:000027E0       System.Generics.Collections.TListHelper.InternalDeleteRange8
 0001:000027F0       System.Generics.Collections.TListHelper.InternalDeleteRangeManaged
 0001:00002800       System.Generics.Collections.TListHelper.InternalDeleteRangeMRef
 0001:00002810       System.Generics.Collections.TListHelper.InternalDoDelete8
 0001:00002820       System.Generics.Collections.TListHelper.InternalDoDeleteManaged
 0001:00002830       System.Generics.Collections.TListHelper.InternalDoDeleteMRef
 0001:00002610       System.Generics.Collections.TListHelper.InternalExchange8
 0001:00002620       System.Generics.Collections.TListHelper.InternalExchangeN
 0001:000025D0       System.Generics.Collections.TListHelper.InternalGrowCheck
 0001:00002840       System.Generics.Collections.TListHelper.InternalInsert8
 0001:00002850       System.Generics.Collections.TListHelper.InternalInsertManaged
 0001:00002860       System.Generics.Collections.TListHelper.InternalInsertRange8
 0001:00002870       System.Generics.Collections.TListHelper.InternalInsertRangeManaged
 0001:00002880       System.Generics.Collections.TListHelper.InternalMove8
 0001:00002890       System.Generics.Collections.TListHelper.InternalMoveMRef
 0001:000028A0       System.Generics.Collections.TListHelper.InternalMoveN
 0001:000028B0       System.Generics.Collections.TListHelper.InternalPack8
 0001:000028C0       System.Generics.Collections.TListHelper.InternalPackManaged
 0001:000028D0       System.Generics.Collections.TListHelper.InternalReverse8
 0001:000028E0       System.Generics.Collections.TListHelper.InternalReverseN
 0001:000028F0       System.Generics.Collections.TListHelper.InternalSetCapacity
 0001:00002900       System.Generics.Collections.TListHelper.InternalSetCount8
 0001:00002910       System.Generics.Collections.TListHelper.InternalSetCountManaged
 0001:00002920       System.Generics.Collections.TListHelper.InternalSetCountMRef
 0001:00002930       System.Generics.Collections.TListHelper.InternalToArray
 0001:00002940       System.Generics.Collections.TListHelper.InternalToArrayManaged
 0001:000025E0       System.Generics.Collections.TListHelper.SetItem8
 0001:00002600       System.Generics.Collections.TListHelper.SetItemManaged
 0001:000025A0       System.Generics.Defaults.Finalization
 0001:000025B0       System.Generics.Defaults.System.Generics.Defaults
 0001:00002560       System.Generics.Defaults.TIStringComparer.Create@
 0001:00002590       System.Generics.Defaults.TIStringComparer.Destroy@
 0001:00002550       System.Generics.Defaults.TStringComparer.Create@
 0001:00002580       System.Generics.Defaults.TStringComparer.Destroy@
 0001:00002570       System.Generics.Defaults._LookupVtableInfo
 0001:00002510       System.Hash.Finalization
 0001:00002520       System.Hash.System.Hash
 0001:00003110       System.HelpIntfs.Finalization
 0001:00003120       System.HelpIntfs.System.HelpIntfs
 0001:00003050       System.ImageList.Finalization
 0001:00003060       System.ImageList.System.ImageList
 0001:00002F30       System.IniFiles.Finalization
 0001:00002F40       System.IniFiles.System.IniFiles
 0001:00002250       System.Internal.ExcUtils.Finalization
 0001:00002260       System.Internal.ExcUtils.System.Internal.ExcUtils
 0001:00002F10       System.IOUtils.Finalization
 0001:00002F20       System.IOUtils.System.IOUtils
 0001:00002F00       System.IOUtils.TPath.Create@
 0001:00002EF0       System.IOUtils.TPath.Destroy@
 0001:00002E60       System.Masks.Finalization
 0001:00002E70       System.Masks.System.Masks
 0001:00003430       System.MaskUtils.Finalization
 0001:00003440       System.MaskUtils.System.MaskUtils
 0001:00002530       System.Math.Finalization
 0001:00002540       System.Math.System.Math
 0001:00003090       System.Messaging.Finalization
 0001:000030A0       System.Messaging.System.Messaging
 0001:00003070       System.Messaging.TMessageManager.Create@
 0001:00003080       System.Messaging.TMessageManager.UnInitialize@
 0001:000043D0       System.RegularExpressions.Finalization
 0001:000043E0       System.RegularExpressions.System.RegularExpressions
 0005:00000450       System.RegularExpressionsAPI.$pdata$_ZN6System21Regularexpressionsapi12FinalizationEv
 0005:0000045C       System.RegularExpressionsAPI.$pdata$_ZN6System21Regularexpressionsapi14initializationEv
 0002:000002C8       System.RegularExpressionsAPI.$unwind$_ZN6System21Regularexpressionsapi12FinalizationEv
 0002:000002CC       System.RegularExpressionsAPI.$unwind$_ZN6System21Regularexpressionsapi14initializationEv
 0003:000000F0       System.RegularExpressionsAPI..1
 0001:00004370       System.RegularExpressionsAPI.Finalization
 0001:00004380       System.RegularExpressionsAPI.System.RegularExpressionsAPI
 0001:00004390       System.RegularExpressionsConsts.Finalization
 0001:000043A0       System.RegularExpressionsConsts.System.RegularExpressionsConsts
 0001:000043B0       System.RegularExpressionsCore.Finalization
 0001:000043C0       System.RegularExpressionsCore.System.RegularExpressionsCore
 0001:00002210       System.RTLConsts.Finalization
 0001:00002220       System.RTLConsts.System.RTLConsts
 0001:000029B0       System.Rtti.Finalization
 0001:000029C0       System.Rtti.System.Rtti
 0001:00002990       System.Rtti.TRttiContext.Create
 0001:000029A0       System.Rtti.TRttiContext.GetType
 0001:00002980       System.Rtti.TValue.Create@
 0001:00002970       System.Rtti.TValue.Destroy@
 0001:00002E90       System.StrUtils.Finalization
 0001:00002E80       System.StrUtils.RightStr
 0001:00002EA0       System.StrUtils.System.StrUtils
 0001:00002C60       System.SyncObjs.Finalization
 0001:00002C70       System.SyncObjs.System.SyncObjs
 0001:00002160       System.SysConst.Finalization
 0001:00002170       System.SysConst.System.SysConst
 0001:000022B0       System.SysUtils.CompareStr
 0001:000022D0       System.SysUtils.CompareText
 0001:00002330       System.SysUtils.Exception.Create
 0001:000023A0       System.SysUtils.Exception.Create@
 0001:00002340       System.SysUtils.Exception.CreateFmt
 0001:00002350       System.SysUtils.Exception.CreateRes
 0001:00002360       System.SysUtils.Exception.Destroy
 0001:000023B0       System.SysUtils.Exception.Destroy@
 0001:00002370       System.SysUtils.Exception.GetBaseException
 0001:00002380       System.SysUtils.Exception.RaisingException
 0001:00002390       System.SysUtils.Exception.ToString
 0001:00002300       System.SysUtils.ExtractFilePath
 0001:000022F0       System.SysUtils.FileExists
 0001:00002450       System.SysUtils.Finalization
 0001:00002310       System.SysUtils.Format
 0001:000023C0       System.SysUtils.FreeAndNil
 0001:000022A0       System.SysUtils.LowerCase
 0001:00002320       System.SysUtils.OutOfMemoryError
 0001:00002400       System.SysUtils.SafeLoadLibrary
 0001:000022C0       System.SysUtils.SameStr
 0001:000022E0       System.SysUtils.SameText
 0001:000023D0       System.SysUtils.Supports
 0001:000023E0       System.SysUtils.Supports
 0001:00002460       System.SysUtils.System.SysUtils
 0001:00002280       System.SysUtils.TEncoding.Create@
 0001:00002410       System.SysUtils.TEncoding.Destroy@
 0001:00002420       System.SysUtils.TEncoding.GetBytes
 0001:00002430       System.SysUtils.TEncoding.GetUTF8
 0001:00002270       System.SysUtils.TLanguages.Create@
 0001:000023F0       System.SysUtils.TLanguages.Destroy@
 0001:00002440       System.SysUtils.TOSVersion.Create@
 0001:00002290       System.SysUtils.TOSVersion.Destroy@
 0001:000029F0       System.TimeSpan.Finalization
 0001:00002A00       System.TimeSpan.System.TimeSpan
 0001:000029E0       System.TimeSpan.TTimeSpan.Create@
 0001:000029D0       System.TimeSpan.TTimeSpan.Destroy@
 0001:00001D30       System.Types.Finalization
 0001:00001D40       System.Types.System.Types
 0001:000024F0       System.TypInfo.Finalization
 0001:00002500       System.TypInfo.System.TypInfo
 0001:00002F90       System.UIConsts.Finalization
 0001:00002FA0       System.UIConsts.System.UIConsts
 0001:00001D50       System.UITypes.Finalization
 0001:00001D60       System.UITypes.System.UITypes
 0001:000042D0       System.VarCmplx.Finalization
 0001:000042E0       System.VarCmplx.System.VarCmplx
 0001:00004310       System.VarConv.Finalization
 0001:00004320       System.VarConv.System.VarConv
 0001:000024B0       System.Variants.Finalization
 0001:000024C0       System.Variants.System.Variants
 0001:00002490       System.VarUtils.Finalization
 0001:000024A0       System.VarUtils.System.VarUtils
 0001:00003D60       System.WideStrings.Finalization
 0001:00003D70       System.WideStrings.System.WideStrings
 0001:000038B0       System.WideStrUtils.Finalization
 0001:000038C0       System.WideStrUtils.System.WideStrUtils
 0001:00003A50       System.Win.ComConst.Finalization
 0001:00003A60       System.Win.ComConst.System.Win.ComConst
 0001:00003A90       System.Win.ComObj.Finalization
 0001:00003AA0       System.Win.ComObj.System.Win.ComObj
 0001:00003A80       System.Win.ComObj.TComServerObject.Create@
 0001:00003A70       System.Win.ComObj.TComServerObject.Destroy@
 0005:00000300       System.Win.Crtl.$pdata$_ZN6System3Win4Crtl12FinalizationEv
 0005:0000030C       System.Win.Crtl.$pdata$_ZN6System3Win4Crtl14initializationEv
 0002:00000240       System.Win.Crtl.$unwind$_ZN6System3Win4Crtl12FinalizationEv
 0002:00000244       System.Win.Crtl.$unwind$_ZN6System3Win4Crtl14initializationEv
 0003:000000BC       System.Win.Crtl..1
 0001:00003170       System.Win.Crtl.Finalization
 0001:00003180       System.Win.Crtl.System.Win.Crtl
 0001:00002F70       System.Win.Registry.Finalization
 0001:00002F80       System.Win.Registry.System.Win.Registry
 0001:00002F60       System.Win.Registry.TRegistry.Create@
 0001:00002F50       System.Win.Registry.TRegistry.Destroy@
 0001:00003AB0       System.Win.Taskbar.Finalization
 0001:00003AC0       System.Win.Taskbar.System.Win.Taskbar
 0001:00003AD0       System.Win.TaskbarCore.Finalization
 0001:00003AE0       System.Win.TaskbarCore.System.Win.TaskbarCore
 0001:00003190       System.ZLib.Finalization
 0001:000031A0       System.ZLib.System.ZLib
 0001:00004FD0       uAES.Finalization
 0001:00004FE0       uAES.uAES
 0005:00002988       uCustomController.$pdata$_ZN17Ucustomcontroller12FinalizationEv
 0005:00002994       uCustomController.$pdata$_ZN17Ucustomcontroller14initializationEv
 0005:00002928       uCustomController.$pdata$_ZN17Ucustomcontroller14TCustomContext13GetRespStreamEv
 0005:0000294C       uCustomController.$pdata$_ZN17Ucustomcontroller14TCustomContext13SetRespStreamEPN6System7Classes7TStreamE
 0005:000028E0       uCustomController.$pdata$_ZN17Ucustomcontroller14TCustomContext17ExtractRespStreamEv
 0005:00002958       uCustomController.$pdata$_ZN17Ucustomcontroller14TCustomContext17SetRespWithStatusEiN6System13UnicodeStringENS1_15DelphiInterfaceIN11Superobject12ISuperObjectEEE
 0005:00002970       uCustomController.$pdata$_ZN17Ucustomcontroller14TCustomContext17SetRespWithStatusEiN6System15DelphiInterfaceIN11Superobject12ISuperObjectEEE
 0005:000028EC       uCustomController.$pdata$_ZN17Ucustomcontroller14TCustomContext6FailedEN6System13UnicodeStringE
 0005:00002910       uCustomController.$pdata$_ZN17Ucustomcontroller14TCustomContext7GetPathEv
 0005:0000291C       uCustomController.$pdata$_ZN17Ucustomcontroller14TCustomContext7GetRespEv
 0005:00002940       uCustomController.$pdata$_ZN17Ucustomcontroller14TCustomContext7SetRespEN6System15DelphiInterfaceIN11Superobject12ISuperObjectEEE
 0005:000028F8       uCustomController.$pdata$_ZN17Ucustomcontroller14TCustomContext9GetErrMsgEv
 0005:00002904       uCustomController.$pdata$_ZN17Ucustomcontroller14TCustomContext9GetParamsEv
 0005:00002934       uCustomController.$pdata$_ZN17Ucustomcontroller14TCustomContext9SetParamsEN6System15DelphiInterfaceIN11Superobject12ISuperObjectEEE
 0005:000028BC       uCustomController.$pdata$_ZN17Ucustomcontroller14TCustomContextC3Ev
 0002:000039B0       uCustomController.$unwind$_ZN17Ucustomcontroller12FinalizationEv
 0002:000039B4       uCustomController.$unwind$_ZN17Ucustomcontroller14initializationEv
 0002:00003930       uCustomController.$unwind$_ZN17Ucustomcontroller14TCustomContext13GetRespStreamEv
 0002:00003944       uCustomController.$unwind$_ZN17Ucustomcontroller14TCustomContext13SetRespStreamEPN6System7Classes7TStreamE
 0002:0000390C       uCustomController.$unwind$_ZN17Ucustomcontroller14TCustomContext17ExtractRespStreamEv
 0002:00003950       uCustomController.$unwind$_ZN17Ucustomcontroller14TCustomContext17SetRespWithStatusEiN6System13UnicodeStringENS1_15DelphiInterfaceIN11Superobject12ISuperObjectEEE
 0002:00003980       uCustomController.$unwind$_ZN17Ucustomcontroller14TCustomContext17SetRespWithStatusEiN6System15DelphiInterfaceIN11Superobject12ISuperObjectEEE
 0002:00003914       uCustomController.$unwind$_ZN17Ucustomcontroller14TCustomContext6FailedEN6System13UnicodeStringE
 0002:00003924       uCustomController.$unwind$_ZN17Ucustomcontroller14TCustomContext7GetPathEv
 0002:00003928       uCustomController.$unwind$_ZN17Ucustomcontroller14TCustomContext7GetRespEv
 0002:0000393C       uCustomController.$unwind$_ZN17Ucustomcontroller14TCustomContext7SetRespEN6System15DelphiInterfaceIN11Superobject12ISuperObjectEEE
 0002:00003918       uCustomController.$unwind$_ZN17Ucustomcontroller14TCustomContext9GetErrMsgEv
 0002:0000391C       uCustomController.$unwind$_ZN17Ucustomcontroller14TCustomContext9GetParamsEv
 0002:00003934       uCustomController.$unwind$_ZN17Ucustomcontroller14TCustomContext9SetParamsEN6System15DelphiInterfaceIN11Superobject12ISuperObjectEEE
 0002:000038B4       uCustomController.$unwind$_ZN17Ucustomcontroller14TCustomContextC3Ev
 0001:00027600       uCustomController...TCustomContext
 0003:00000114       uCustomController..3
 0001:00027738       uCustomController..TCustomContext
 0001:00027E48       uCustomController..TRequestContext
 0001:000283D0       uCustomController.Finalization
 0001:00027F70       uCustomController.TCustomContext.Create
 0001:000280A0       uCustomController.TCustomContext.ExtractRespStream
 0001:000280D0       uCustomController.TCustomContext.Failed
 0001:000280E0       uCustomController.TCustomContext.GetErrMsg
 0001:000280F0       uCustomController.TCustomContext.GetParams
 0001:00028110       uCustomController.TCustomContext.GetPath
 0001:00028120       uCustomController.TCustomContext.GetResp
 0001:00028140       uCustomController.TCustomContext.GetRespStream
 0001:00028150       uCustomController.TCustomContext.SetParams
 0001:00028170       uCustomController.TCustomContext.SetResp
 0001:00028190       uCustomController.TCustomContext.SetRespStream
 0001:000281B0       uCustomController.TCustomContext.SetRespWithStatus
 0001:000282F0       uCustomController.TCustomContext.SetRespWithStatus
 0001:000283E0       uCustomController.uCustomController
 0005:00003A44       uDefaultApp.$pdata$_ZN11Udefaultapp11TDefaultApp10MsgHandlerEv
 0005:00003A50       uDefaultApp.$pdata$_ZN11Udefaultapp11TDefaultApp16NewNoticeHandlerEv
 0005:00003A5C       uDefaultApp.$pdata$_ZN11Udefaultapp11TDefaultApp17NewRequestContextEv
 0005:000039FC       uDefaultApp.$pdata$_ZN11Udefaultapp11TDefaultAppC3Ev
 0005:00003A2C       uDefaultApp.$pdata$_ZN11Udefaultapp11TDefaultAppD0Ev
 0005:00003AB0       uDefaultApp.$pdata$_ZN11Udefaultapp12FinalizationEv
 0005:00003A98       uDefaultApp.$pdata$_ZN11Udefaultapp14InitDefaultAppEv
 0005:00003ABC       uDefaultApp.$pdata$_ZN11Udefaultapp14initializationEv
 0005:00003A68       uDefaultApp.$pdata$_ZN11Udefaultapp14TNoticeHandler15HandleExceptionEN6System15DelphiInterfaceIN10Umodulelib15IRequestContextEEEPNS1_8Sysutils9ExceptionE
 0005:00003A8C       uDefaultApp.$pdata$_ZN11Udefaultapp14TNoticeHandler16NewNoticeMsgPackEN6System13UnicodeStringES2_b
 0005:00003A80       uDefaultApp.$pdata$_ZN11Udefaultapp14TNoticeHandler19NewExceptionMsgPackEPN6System8Sysutils9ExceptionE
 0005:00003AA4       uDefaultApp.$pdata$_ZN11Udefaultapp15ClearDefaultAppEv
 0002:00005344       uDefaultApp.$unwind$_ZN11Udefaultapp11TDefaultApp10MsgHandlerEv
 0002:0000534C       uDefaultApp.$unwind$_ZN11Udefaultapp11TDefaultApp16NewNoticeHandlerEv
 0002:00005354       uDefaultApp.$unwind$_ZN11Udefaultapp11TDefaultApp17NewRequestContextEv
 0002:000052A0       uDefaultApp.$unwind$_ZN11Udefaultapp11TDefaultAppC3Ev
 0002:00005314       uDefaultApp.$unwind$_ZN11Udefaultapp11TDefaultAppD0Ev
 0002:000053B8       uDefaultApp.$unwind$_ZN11Udefaultapp12FinalizationEv
 0002:000053A8       uDefaultApp.$unwind$_ZN11Udefaultapp14InitDefaultAppEv
 0002:000053BC       uDefaultApp.$unwind$_ZN11Udefaultapp14initializationEv
 0002:0000535C       uDefaultApp.$unwind$_ZN11Udefaultapp14TNoticeHandler15HandleExceptionEN6System15DelphiInterfaceIN10Umodulelib15IRequestContextEEEPNS1_8Sysutils9ExceptionE
 0002:00005398       uDefaultApp.$unwind$_ZN11Udefaultapp14TNoticeHandler16NewNoticeMsgPackEN6System13UnicodeStringES2_b
 0002:0000538C       uDefaultApp.$unwind$_ZN11Udefaultapp14TNoticeHandler19NewExceptionMsgPackEPN6System8Sysutils9ExceptionE
 0002:000053B0       uDefaultApp.$unwind$_ZN11Udefaultapp15ClearDefaultAppEv
 0001:00037580       uDefaultApp...TDefaultApp
 0001:00037258       uDefaultApp...TNoticeHandler
 0003:0000011C       uDefaultApp..3
 0001:00037688       uDefaultApp..TDefaultApp
 0001:000372F8       uDefaultApp..TNoticeHandler
 0001:00038090       uDefaultApp.ClearDefaultApp
 0001:000380D0       uDefaultApp.Finalization
 0001:00038040       uDefaultApp.InitDefaultApp
 0001:00037980       uDefaultApp.TDefaultApp.Create
 0001:00037C30       uDefaultApp.TDefaultApp.Destroy
 0001:00037D50       uDefaultApp.TDefaultApp.MsgHandler
 0001:00037D70       uDefaultApp.TDefaultApp.NewNoticeHandler
 0001:00037DB0       uDefaultApp.TDefaultApp.NewRequestContext
 0001:00037DF0       uDefaultApp.TNoticeHandler.HandleException
 0001:00037F10       uDefaultApp.TNoticeHandler.NewExceptionMsgPack
 0001:00037F70       uDefaultApp.TNoticeHandler.NewNoticeMsgPack
 0001:000380E0       uDefaultApp.uDefaultApp
 0001:00004450       uDES.Finalization
 0001:00004460       uDES.uDES
 0001:00005150       uDHK.Finalization
 0001:00005160       uDHK.uDHK
 0005:00003B40       uJsonConfig.$pdata$_ZN11Ujsonconfig12FinalizationEv
 0005:00003B4C       uJsonConfig.$pdata$_ZN11Ujsonconfig14initializationEv
 0005:00003AE0       uJsonConfig.$pdata$_ZN11Ujsonconfig17TCustomJsonConfig12LoadJsonFileEN6System13UnicodeStringE
 0005:00003B1C       uJsonConfig.$pdata$_ZN11Ujsonconfig17TCustomJsonConfig12LoadJsonTextEPN6System7Classes8TStringsE
 0005:00003B04       uJsonConfig.$pdata$_ZN11Ujsonconfig17TCustomJsonConfig14LoadJsonStreamEPN6System7Classes7TStreamE
 0005:00003AC8       uJsonConfig.$pdata$_ZN11Ujsonconfig17TCustomJsonConfig8LoadJsonEN6System15DelphiInterfaceIN11Superobject12ISuperObjectEEE
 0002:000054C8       uJsonConfig.$unwind$_ZN11Ujsonconfig12FinalizationEv
 0002:000054CC       uJsonConfig.$unwind$_ZN11Ujsonconfig14initializationEv
 0002:000053F4       uJsonConfig.$unwind$_ZN11Ujsonconfig17TCustomJsonConfig12LoadJsonFileEN6System13UnicodeStringE
 0002:00005470       uJsonConfig.$unwind$_ZN11Ujsonconfig17TCustomJsonConfig12LoadJsonTextEPN6System7Classes8TStringsE
 0002:00005440       uJsonConfig.$unwind$_ZN11Ujsonconfig17TCustomJsonConfig14LoadJsonStreamEPN6System7Classes7TStreamE
 0002:000053C4       uJsonConfig.$unwind$_ZN11Ujsonconfig17TCustomJsonConfig8LoadJsonEN6System15DelphiInterfaceIN11Superobject12ISuperObjectEEE
 0003:00000120       uJsonConfig..2
 0001:00038190       uJsonConfig..TCustomJsonConfig
 0001:00038770       uJsonConfig.Finalization
 0001:00038360       uJsonConfig.TCustomJsonConfig.LoadJson
 0001:000383C0       uJsonConfig.TCustomJsonConfig.LoadJsonFile
 0001:00038480       uJsonConfig.TCustomJsonConfig.LoadJsonStream
 0001:00038500       uJsonConfig.TCustomJsonConfig.LoadJsonText
 0001:00038780       uJsonConfig.uJsonConfig
 0005:000022C8       uMessageHandler.$pdata$_ZN15Umessagehandler12FinalizationEv
 0005:000022D4       uMessageHandler.$pdata$_ZN15Umessagehandler14initializationEv
 0005:00002244       uMessageHandler.$pdata$_ZN15Umessagehandler15TMessageHandler11PostMessageEN6System13UnicodeStringES2_
 0005:00002274       uMessageHandler.$pdata$_ZN15Umessagehandler15TMessageHandler12PostStateMsgEN6System15DelphiInterfaceIN11Superobject12ISuperObjectEEE
 0005:0000225C       uMessageHandler.$pdata$_ZN15Umessagehandler15TMessageHandler13PostNoticeMsgEN6System13UnicodeStringENS1_15DelphiInterfaceIN11Superobject12ISuperObjectEEE
 0005:00002238       uMessageHandler.$pdata$_ZN15Umessagehandler15TMessageHandler16NewNoticeMsgPackEN6System13UnicodeStringES2_b
 0005:0000222C       uMessageHandler.$pdata$_ZN15Umessagehandler15TMessageHandler19NewExceptionMsgPackEPN6System8Sysutils9ExceptionE
 0005:000022B0       uMessageHandler.$pdata$_ZN15Umessagehandler15TMessageHandler6RemoveEN6System13UnicodeStringE
 0005:0000228C       uMessageHandler.$pdata$_ZN15Umessagehandler15TMessageHandler7ProcessEN6System13UnicodeStringES2_
 0005:000021D8       uMessageHandler.$pdata$_ZN15Umessagehandler15TMessageHandler8AddOrSetEN6System13UnicodeStringENS1_15DelphiInterfaceIN10Umodulelib8IProcessEEE
 0005:000021F0       uMessageHandler.$pdata$_ZN15Umessagehandler15TMessageHandlerC3Ev
 0005:00002214       uMessageHandler.$pdata$_ZN15Umessagehandler15TMessageHandlerD0Ev
 0005:000023D0       uMessageHandler.$pdata$_ZN6System8Generics11Collections14TDictionary__2INS_13UnicodeStringENS_15DelphiInterfaceIN10Umodulelib8IProcessEEEE10DoSetValueEiS7_
 0005:000025C8       uMessageHandler.$pdata$_ZN6System8Generics11Collections14TDictionary__2INS_13UnicodeStringENS_15DelphiInterfaceIN10Umodulelib8IProcessEEEE10TrimExcessEv
 0005:000025F8       uMessageHandler.$pdata$_ZN6System8Generics11Collections14TDictionary__2INS_13UnicodeStringENS_15DelphiInterfaceIN10Umodulelib8IProcessEEEE11ContainsKeyES3_
 0005:00002580       uMessageHandler.$pdata$_ZN6System8Generics11Collections14TDictionary__2INS_13UnicodeStringENS_15DelphiInterfaceIN10Umodulelib8IProcessEEEE11ExtractPairES3_
 0005:00002400       uMessageHandler.$pdata$_ZN6System8Generics11Collections14TDictionary__2INS_13UnicodeStringENS_15DelphiInterfaceIN10Umodulelib8IProcessEEEE11GetCapacityEv
 0005:0000240C       uMessageHandler.$pdata$_ZN6System8Generics11Collections14TDictionary__2INS_13UnicodeStringENS_15DelphiInterfaceIN10Umodulelib8IProcessEEEE11SetCapacityEi
 0005:000025D4       uMessageHandler.$pdata$_ZN6System8Generics11Collections14TDictionary__2INS_13UnicodeStringENS_15DelphiInterfaceIN10Umodulelib8IProcessEEEE11TryGetValueES3_RS7_
 0005:0000243C       uMessageHandler.$pdata$_ZN6System8Generics11Collections14TDictionary__2INS_13UnicodeStringENS_15DelphiInterfaceIN10Umodulelib8IProcessEEEE11ValueNotifyES7_NS1_23TCollectionNotificationE
 0005:000025E0       uMessageHandler.$pdata$_ZN6System8Generics11Collections14TDictionary__2INS_13UnicodeStringENS_15DelphiInterfaceIN10Umodulelib8IProcessEEEE13AddOrSetValueES3_S7_
 0005:00002604       uMessageHandler.$pdata$_ZN6System8Generics11Collections14TDictionary__2INS_13UnicodeStringENS_15DelphiInterfaceIN10Umodulelib8IProcessEEEE13ContainsValueES7_
 0005:00002418       uMessageHandler.$pdata$_ZN6System8Generics11Collections14TDictionary__2INS_13UnicodeStringENS_15DelphiInterfaceIN10Umodulelib8IProcessEEEE13GetCollisionsEv
 0005:00002640       uMessageHandler.$pdata$_ZN6System8Generics11Collections14TDictionary__2INS_13UnicodeStringENS_15DelphiInterfaceIN10Umodulelib8IProcessEEEE13GetEnumeratorEv
 0005:00002388       uMessageHandler.$pdata$_ZN6System8Generics11Collections14TDictionary__2INS_13UnicodeStringENS_15DelphiInterfaceIN10Umodulelib8IProcessEEEE14GetBucketIndexES3_i
 0005:000026E8       uMessageHandler.$pdata$_ZN6System8Generics11Collections14TDictionary__2INS_13UnicodeStringENS_15DelphiInterfaceIN10Umodulelib8IProcessEEEE14TKeyCollection13GetEnumeratorEv
 0005:000026C4       uMessageHandler.$pdata$_ZN6System8Generics11Collections14TDictionary__2INS_13UnicodeStringENS_15DelphiInterfaceIN10Umodulelib8IProcessEEEE14TKeyCollection15DoGetEnumeratorEv
 0005:000026F4       uMessageHandler.$pdata$_ZN6System8Generics11Collections14TDictionary__2INS_13UnicodeStringENS_15DelphiInterfaceIN10Umodulelib8IProcessEEEE14TKeyCollection7ToArrayEv
 0005:000026B8       uMessageHandler.$pdata$_ZN6System8Generics11Collections14TDictionary__2INS_13UnicodeStringENS_15DelphiInterfaceIN10Umodulelib8IProcessEEEE14TKeyCollection8GetCountEv
 0005:000026D0       uMessageHandler.$pdata$_ZN6System8Generics11Collections14TDictionary__2INS_13UnicodeStringENS_15DelphiInterfaceIN10Umodulelib8IProcessEEEE14TKeyCollectionC3EPS8_
 0005:00002724       uMessageHandler.$pdata$_ZN6System8Generics11Collections14TDictionary__2INS_13UnicodeStringENS_15DelphiInterfaceIN10Umodulelib8IProcessEEEE14TKeyEnumerator10DoMoveNextEv
 0005:00002700       uMessageHandler.$pdata$_ZN6System8Generics11Collections14TDictionary__2INS_13UnicodeStringENS_15DelphiInterfaceIN10Umodulelib8IProcessEEEE14TKeyEnumerator10GetCurrentEv
 0005:0000270C       uMessageHandler.$pdata$_ZN6System8Generics11Collections14TDictionary__2INS_13UnicodeStringENS_15DelphiInterfaceIN10Umodulelib8IProcessEEEE14TKeyEnumerator12DoGetCurrentEv
 0005:00002748       uMessageHandler.$pdata$_ZN6System8Generics11Collections14TDictionary__2INS_13UnicodeStringENS_15DelphiInterfaceIN10Umodulelib8IProcessEEEE14TKeyEnumerator8MoveNextEv
 0005:00002730       uMessageHandler.$pdata$_ZN6System8Generics11Collections14TDictionary__2INS_13UnicodeStringENS_15DelphiInterfaceIN10Umodulelib8IProcessEEEE14TKeyEnumeratorC3EPS8_
 0005:00002424       uMessageHandler.$pdata$_ZN6System8Generics11Collections14TDictionary__2INS_13UnicodeStringENS_15DelphiInterfaceIN10Umodulelib8IProcessEEEE15DoGetEnumeratorEv
 0005:00002874       uMessageHandler.$pdata$_ZN6System8Generics11Collections14TDictionary__2INS_13UnicodeStringENS_15DelphiInterfaceIN10Umodulelib8IProcessEEEE15TPairEnumerator10DoMoveNextEv
 0005:0000285C       uMessageHandler.$pdata$_ZN6System8Generics11Collections14TDictionary__2INS_13UnicodeStringENS_15DelphiInterfaceIN10Umodulelib8IProcessEEEE15TPairEnumerator10GetCurrentEv
 0005:00002868       uMessageHandler.$pdata$_ZN6System8Generics11Collections14TDictionary__2INS_13UnicodeStringENS_15DelphiInterfaceIN10Umodulelib8IProcessEEEE15TPairEnumerator12DoGetCurrentEv
 0005:00002898       uMessageHandler.$pdata$_ZN6System8Generics11Collections14TDictionary__2INS_13UnicodeStringENS_15DelphiInterfaceIN10Umodulelib8IProcessEEEE15TPairEnumerator8MoveNextEv
 0005:00002880       uMessageHandler.$pdata$_ZN6System8Generics11Collections14TDictionary__2INS_13UnicodeStringENS_15DelphiInterfaceIN10Umodulelib8IProcessEEEE15TPairEnumeratorC3EPS8_
 0005:000027F0       uMessageHandler.$pdata$_ZN6System8Generics11Collections14TDictionary__2INS_13UnicodeStringENS_15DelphiInterfaceIN10Umodulelib8IProcessEEEE16TValueCollection13GetEnumeratorEv
 0005:000027CC       uMessageHandler.$pdata$_ZN6System8Generics11Collections14TDictionary__2INS_13UnicodeStringENS_15DelphiInterfaceIN10Umodulelib8IProcessEEEE16TValueCollection15DoGetEnumeratorEv
 0005:000027FC       uMessageHandler.$pdata$_ZN6System8Generics11Collections14TDictionary__2INS_13UnicodeStringENS_15DelphiInterfaceIN10Umodulelib8IProcessEEEE16TValueCollection7ToArrayEv
 0005:000027C0       uMessageHandler.$pdata$_ZN6System8Generics11Collections14TDictionary__2INS_13UnicodeStringENS_15DelphiInterfaceIN10Umodulelib8IProcessEEEE16TValueCollection8GetCountEv
 0005:000027D8       uMessageHandler.$pdata$_ZN6System8Generics11Collections14TDictionary__2INS_13UnicodeStringENS_15DelphiInterfaceIN10Umodulelib8IProcessEEEE16TValueCollectionC3EPS8_
 0005:0000282C       uMessageHandler.$pdata$_ZN6System8Generics11Collections14TDictionary__2INS_13UnicodeStringENS_15DelphiInterfaceIN10Umodulelib8IProcessEEEE16TValueEnumerator10DoMoveNextEv
 0005:00002808       uMessageHandler.$pdata$_ZN6System8Generics11Collections14TDictionary__2INS_13UnicodeStringENS_15DelphiInterfaceIN10Umodulelib8IProcessEEEE16TValueEnumerator10GetCurrentEv
 0005:00002814       uMessageHandler.$pdata$_ZN6System8Generics11Collections14TDictionary__2INS_13UnicodeStringENS_15DelphiInterfaceIN10Umodulelib8IProcessEEEE16TValueEnumerator12DoGetCurrentEv
 0005:00002850       uMessageHandler.$pdata$_ZN6System8Generics11Collections14TDictionary__2INS_13UnicodeStringENS_15DelphiInterfaceIN10Umodulelib8IProcessEEEE16TValueEnumerator8MoveNextEv
 0005:00002838       uMessageHandler.$pdata$_ZN6System8Generics11Collections14TDictionary__2INS_13UnicodeStringENS_15DelphiInterfaceIN10Umodulelib8IProcessEEEE16TValueEnumeratorC3EPS8_
 0005:00002358       uMessageHandler.$pdata$_ZN6System8Generics11Collections14TDictionary__2INS_13UnicodeStringENS_15DelphiInterfaceIN10Umodulelib8IProcessEEEE19InternalSetCapacityEi
 0005:0000255C       uMessageHandler.$pdata$_ZN6System8Generics11Collections14TDictionary__2INS_13UnicodeStringENS_15DelphiInterfaceIN10Umodulelib8IProcessEEEE3AddES3_S7_
 0005:0000237C       uMessageHandler.$pdata$_ZN6System8Generics11Collections14TDictionary__2INS_13UnicodeStringENS_15DelphiInterfaceIN10Umodulelib8IProcessEEEE4GrowEv
 0005:00002394       uMessageHandler.$pdata$_ZN6System8Generics11Collections14TDictionary__2INS_13UnicodeStringENS_15DelphiInterfaceIN10Umodulelib8IProcessEEEE4HashES3_
 0005:000025B0       uMessageHandler.$pdata$_ZN6System8Generics11Collections14TDictionary__2INS_13UnicodeStringENS_15DelphiInterfaceIN10Umodulelib8IProcessEEEE5ClearEv
 0005:000023C4       uMessageHandler.$pdata$_ZN6System8Generics11Collections14TDictionary__2INS_13UnicodeStringENS_15DelphiInterfaceIN10Umodulelib8IProcessEEEE5DoAddEiiS3_S7_
 0005:00002364       uMessageHandler.$pdata$_ZN6System8Generics11Collections14TDictionary__2INS_13UnicodeStringENS_15DelphiInterfaceIN10Umodulelib8IProcessEEEE6RehashEi
 0005:00002568       uMessageHandler.$pdata$_ZN6System8Generics11Collections14TDictionary__2INS_13UnicodeStringENS_15DelphiInterfaceIN10Umodulelib8IProcessEEEE6RemoveES3_
 0005:000025EC       uMessageHandler.$pdata$_ZN6System8Generics11Collections14TDictionary__2INS_13UnicodeStringENS_15DelphiInterfaceIN10Umodulelib8IProcessEEEE6TryAddES3_S7_
 0005:000023A0       uMessageHandler.$pdata$_ZN6System8Generics11Collections14TDictionary__2INS_13UnicodeStringENS_15DelphiInterfaceIN10Umodulelib8IProcessEEEE7GetItemES3_
 0005:00002628       uMessageHandler.$pdata$_ZN6System8Generics11Collections14TDictionary__2INS_13UnicodeStringENS_15DelphiInterfaceIN10Umodulelib8IProcessEEEE7GetKeysEv
 0005:000023AC       uMessageHandler.$pdata$_ZN6System8Generics11Collections14TDictionary__2INS_13UnicodeStringENS_15DelphiInterfaceIN10Umodulelib8IProcessEEEE7SetItemES3_S7_
 0005:0000261C       uMessageHandler.$pdata$_ZN6System8Generics11Collections14TDictionary__2INS_13UnicodeStringENS_15DelphiInterfaceIN10Umodulelib8IProcessEEEE7ToArrayEv
 0005:000023E8       uMessageHandler.$pdata$_ZN6System8Generics11Collections14TDictionary__2INS_13UnicodeStringENS_15DelphiInterfaceIN10Umodulelib8IProcessEEEE8DoRemoveES3_iNS1_23TCollectionNotificationE
 0005:00002634       uMessageHandler.$pdata$_ZN6System8Generics11Collections14TDictionary__2INS_13UnicodeStringENS_15DelphiInterfaceIN10Umodulelib8IProcessEEEE9GetValuesEv
 0005:00002430       uMessageHandler.$pdata$_ZN6System8Generics11Collections14TDictionary__2INS_13UnicodeStringENS_15DelphiInterfaceIN10Umodulelib8IProcessEEEE9KeyNotifyES3_NS1_23TCollectionNotificationE
 0005:00002460       uMessageHandler.$pdata$_ZN6System8Generics11Collections14TDictionary__2INS_13UnicodeStringENS_15DelphiInterfaceIN10Umodulelib8IProcessEEEEC3Ei
 0005:00002490       uMessageHandler.$pdata$_ZN6System8Generics11Collections14TDictionary__2INS_13UnicodeStringENS_15DelphiInterfaceIN10Umodulelib8IProcessEEEEC3EiNS4_INS0_8Defaults20IEqualityComparer__1IS3_EEEE
 0005:00002478       uMessageHandler.$pdata$_ZN6System8Generics11Collections14TDictionary__2INS_13UnicodeStringENS_15DelphiInterfaceIN10Umodulelib8IProcessEEEEC3ENS4_INS0_8Defaults20IEqualityComparer__1IS3_EEEE
 0005:00002508       uMessageHandler.$pdata$_ZN6System8Generics11Collections14TDictionary__2INS_13UnicodeStringENS_15DelphiInterfaceIN10Umodulelib8IProcessEEEEC3EPKNS1_8TPair__2IS3_S7_EEi
 0005:0000252C       uMessageHandler.$pdata$_ZN6System8Generics11Collections14TDictionary__2INS_13UnicodeStringENS_15DelphiInterfaceIN10Umodulelib8IProcessEEEEC3EPKNS1_8TPair__2IS3_S7_EEiNS4_INS0_8Defaults20IEqualityComparer__1IS3_EEEE
 0005:000024A8       uMessageHandler.$pdata$_ZN6System8Generics11Collections14TDictionary__2INS_13UnicodeStringENS_15DelphiInterfaceIN10Umodulelib8IProcessEEEEC3EPNS1_14TEnumerable__1INS1_8TPair__2IS3_S7_EEEE
 0005:000024D8       uMessageHandler.$pdata$_ZN6System8Generics11Collections14TDictionary__2INS_13UnicodeStringENS_15DelphiInterfaceIN10Umodulelib8IProcessEEEEC3EPNS1_14TEnumerable__1INS1_8TPair__2IS3_S7_EEEENS4_INS0_8Defaults20IEqualityComparer__1IS3_EEEE
 0005:00002448       uMessageHandler.$pdata$_ZN6System8Generics11Collections14TDictionary__2INS_13UnicodeStringENS_15DelphiInterfaceIN10Umodulelib8IProcessEEEEC3Ev
 0005:00002550       uMessageHandler.$pdata$_ZN6System8Generics11Collections14TDictionary__2INS_13UnicodeStringENS_15DelphiInterfaceIN10Umodulelib8IProcessEEEED0Ev
 0005:000022EC       uMessageHandler.$pdata$_ZN6System8Generics11Collections14TEnumerable__1INS1_8TPair__2INS_13UnicodeStringENS_15DelphiInterfaceIN10Umodulelib8IProcessEEEEEE11ToArrayImplEi
 0005:0000231C       uMessageHandler.$pdata$_ZN6System8Generics11Collections14TEnumerable__1INS1_8TPair__2INS_13UnicodeStringENS_15DelphiInterfaceIN10Umodulelib8IProcessEEEEEE13GetEnumeratorEv
 0005:00002328       uMessageHandler.$pdata$_ZN6System8Generics11Collections14TEnumerable__1INS1_8TPair__2INS_13UnicodeStringENS_15DelphiInterfaceIN10Umodulelib8IProcessEEEEEE7ToArrayEv
 0005:00002310       uMessageHandler.$pdata$_ZN6System8Generics11Collections14TEnumerable__1INS1_8TPair__2INS_13UnicodeStringENS_15DelphiInterfaceIN10Umodulelib8IProcessEEEEEED0Ev
 0005:0000264C       uMessageHandler.$pdata$_ZN6System8Generics11Collections14TEnumerable__1INS_13UnicodeStringEE11ToArrayImplEi
 0005:0000267C       uMessageHandler.$pdata$_ZN6System8Generics11Collections14TEnumerable__1INS_13UnicodeStringEE13GetEnumeratorEv
 0005:00002688       uMessageHandler.$pdata$_ZN6System8Generics11Collections14TEnumerable__1INS_13UnicodeStringEE7ToArrayEv
 0005:00002670       uMessageHandler.$pdata$_ZN6System8Generics11Collections14TEnumerable__1INS_13UnicodeStringEED0Ev
 0005:00002754       uMessageHandler.$pdata$_ZN6System8Generics11Collections14TEnumerable__1INS_15DelphiInterfaceIN10Umodulelib8IProcessEEEE11ToArrayImplEi
 0005:00002784       uMessageHandler.$pdata$_ZN6System8Generics11Collections14TEnumerable__1INS_15DelphiInterfaceIN10Umodulelib8IProcessEEEE13GetEnumeratorEv
 0005:00002790       uMessageHandler.$pdata$_ZN6System8Generics11Collections14TEnumerable__1INS_15DelphiInterfaceIN10Umodulelib8IProcessEEEE7ToArrayEv
 0005:00002778       uMessageHandler.$pdata$_ZN6System8Generics11Collections14TEnumerable__1INS_15DelphiInterfaceIN10Umodulelib8IProcessEEEED0Ev
 0005:0000234C       uMessageHandler.$pdata$_ZN6System8Generics11Collections14TEnumerator__1INS1_8TPair__2INS_13UnicodeStringENS_15DelphiInterfaceIN10Umodulelib8IProcessEEEEEE8MoveNextEv
 0005:000026AC       uMessageHandler.$pdata$_ZN6System8Generics11Collections14TEnumerator__1INS_13UnicodeStringEE8MoveNextEv
 0005:000027B4       uMessageHandler.$pdata$_ZN6System8Generics11Collections14TEnumerator__1INS_15DelphiInterfaceIN10Umodulelib8IProcessEEEE8MoveNextEv
 0005:000022E0       uMessageHandler.$pdata$_ZN6System8Generics11Collections8TPair__2INS_13UnicodeStringENS_15DelphiInterfaceIN10Umodulelib8IProcessEEEEC1ES3_S7_
 0005:000028A4       uMessageHandler.$pdata$_ZN6System8Generics8Defaults20TEqualityComparer__1INS_13UnicodeStringEE8_DefaultEv
 0005:000028B0       uMessageHandler.$pdata$_ZN6System8Generics8Defaults20TEqualityComparer__1INS_15DelphiInterfaceIN10Umodulelib8IProcessEEEE8_DefaultEv
 0002:00002F28       uMessageHandler.$unwind$_ZN15Umessagehandler12FinalizationEv
 0002:00002F2C       uMessageHandler.$unwind$_ZN15Umessagehandler14initializationEv
 0002:00002E18       uMessageHandler.$unwind$_ZN15Umessagehandler15TMessageHandler11PostMessageEN6System13UnicodeStringES2_
 0002:00002E7C       uMessageHandler.$unwind$_ZN15Umessagehandler15TMessageHandler12PostStateMsgEN6System15DelphiInterfaceIN11Superobject12ISuperObjectEEE
 0002:00002E48       uMessageHandler.$unwind$_ZN15Umessagehandler15TMessageHandler13PostNoticeMsgEN6System13UnicodeStringENS1_15DelphiInterfaceIN11Superobject12ISuperObjectEEE
 0002:00002E08       uMessageHandler.$unwind$_ZN15Umessagehandler15TMessageHandler16NewNoticeMsgPackEN6System13UnicodeStringES2_b
 0002:00002DFC       uMessageHandler.$unwind$_ZN15Umessagehandler15TMessageHandler19NewExceptionMsgPackEPN6System8Sysutils9ExceptionE
 0002:00002EF8       uMessageHandler.$unwind$_ZN15Umessagehandler15TMessageHandler6RemoveEN6System13UnicodeStringE
 0002:00002EAC       uMessageHandler.$unwind$_ZN15Umessagehandler15TMessageHandler7ProcessEN6System13UnicodeStringES2_
 0002:00002D44       uMessageHandler.$unwind$_ZN15Umessagehandler15TMessageHandler8AddOrSetEN6System13UnicodeStringENS1_15DelphiInterfaceIN10Umodulelib8IProcessEEE
 0002:00002D74       uMessageHandler.$unwind$_ZN15Umessagehandler15TMessageHandlerC3Ev
 0002:00002DCC       uMessageHandler.$unwind$_ZN15Umessagehandler15TMessageHandlerD0Ev
 0002:00003098       uMessageHandler.$unwind$_ZN6System8Generics11Collections14TDictionary__2INS_13UnicodeStringENS_15DelphiInterfaceIN10Umodulelib8IProcessEEEE10DoSetValueEiS7_
 0002:0000349C       uMessageHandler.$unwind$_ZN6System8Generics11Collections14TDictionary__2INS_13UnicodeStringENS_15DelphiInterfaceIN10Umodulelib8IProcessEEEE10TrimExcessEv
 0002:000034D0       uMessageHandler.$unwind$_ZN6System8Generics11Collections14TDictionary__2INS_13UnicodeStringENS_15DelphiInterfaceIN10Umodulelib8IProcessEEEE11ContainsKeyES3_
 0002:000033FC       uMessageHandler.$unwind$_ZN6System8Generics11Collections14TDictionary__2INS_13UnicodeStringENS_15DelphiInterfaceIN10Umodulelib8IProcessEEEE11ExtractPairES3_
 0002:000030FC       uMessageHandler.$unwind$_ZN6System8Generics11Collections14TDictionary__2INS_13UnicodeStringENS_15DelphiInterfaceIN10Umodulelib8IProcessEEEE11GetCapacityEv
 0002:00003100       uMessageHandler.$unwind$_ZN6System8Generics11Collections14TDictionary__2INS_13UnicodeStringENS_15DelphiInterfaceIN10Umodulelib8IProcessEEEE11SetCapacityEi
 0002:000034A4       uMessageHandler.$unwind$_ZN6System8Generics11Collections14TDictionary__2INS_13UnicodeStringENS_15DelphiInterfaceIN10Umodulelib8IProcessEEEE11TryGetValueES3_RS7_
 0002:00003120       uMessageHandler.$unwind$_ZN6System8Generics11Collections14TDictionary__2INS_13UnicodeStringENS_15DelphiInterfaceIN10Umodulelib8IProcessEEEE11ValueNotifyES7_NS1_23TCollectionNotificationE
 0002:000034B0       uMessageHandler.$unwind$_ZN6System8Generics11Collections14TDictionary__2INS_13UnicodeStringENS_15DelphiInterfaceIN10Umodulelib8IProcessEEEE13AddOrSetValueES3_S7_
 0002:000034DC       uMessageHandler.$unwind$_ZN6System8Generics11Collections14TDictionary__2INS_13UnicodeStringENS_15DelphiInterfaceIN10Umodulelib8IProcessEEEE13ContainsValueES7_
 0002:0000310C       uMessageHandler.$unwind$_ZN6System8Generics11Collections14TDictionary__2INS_13UnicodeStringENS_15DelphiInterfaceIN10Umodulelib8IProcessEEEE13GetCollisionsEv
 0002:00003528       uMessageHandler.$unwind$_ZN6System8Generics11Collections14TDictionary__2INS_13UnicodeStringENS_15DelphiInterfaceIN10Umodulelib8IProcessEEEE13GetEnumeratorEv
 0002:00003038       uMessageHandler.$unwind$_ZN6System8Generics11Collections14TDictionary__2INS_13UnicodeStringENS_15DelphiInterfaceIN10Umodulelib8IProcessEEEE14GetBucketIndexES3_i
 0002:0000362C       uMessageHandler.$unwind$_ZN6System8Generics11Collections14TDictionary__2INS_13UnicodeStringENS_15DelphiInterfaceIN10Umodulelib8IProcessEEEE14TKeyCollection13GetEnumeratorEv
 0002:000035E8       uMessageHandler.$unwind$_ZN6System8Generics11Collections14TDictionary__2INS_13UnicodeStringENS_15DelphiInterfaceIN10Umodulelib8IProcessEEEE14TKeyCollection15DoGetEnumeratorEv
 0002:00003634       uMessageHandler.$unwind$_ZN6System8Generics11Collections14TDictionary__2INS_13UnicodeStringENS_15DelphiInterfaceIN10Umodulelib8IProcessEEEE14TKeyCollection7ToArrayEv
 0002:000035E4       uMessageHandler.$unwind$_ZN6System8Generics11Collections14TDictionary__2INS_13UnicodeStringENS_15DelphiInterfaceIN10Umodulelib8IProcessEEEE14TKeyCollection8GetCountEv
 0002:000035F0       uMessageHandler.$unwind$_ZN6System8Generics11Collections14TDictionary__2INS_13UnicodeStringENS_15DelphiInterfaceIN10Umodulelib8IProcessEEEE14TKeyCollectionC3EPS8_
 0002:00003674       uMessageHandler.$unwind$_ZN6System8Generics11Collections14TDictionary__2INS_13UnicodeStringENS_15DelphiInterfaceIN10Umodulelib8IProcessEEEE14TKeyEnumerator10DoMoveNextEv
 0002:0000363C       uMessageHandler.$unwind$_ZN6System8Generics11Collections14TDictionary__2INS_13UnicodeStringENS_15DelphiInterfaceIN10Umodulelib8IProcessEEEE14TKeyEnumerator10GetCurrentEv
 0002:00003644       uMessageHandler.$unwind$_ZN6System8Generics11Collections14TDictionary__2INS_13UnicodeStringENS_15DelphiInterfaceIN10Umodulelib8IProcessEEEE14TKeyEnumerator12DoGetCurrentEv
 0002:000036B8       uMessageHandler.$unwind$_ZN6System8Generics11Collections14TDictionary__2INS_13UnicodeStringENS_15DelphiInterfaceIN10Umodulelib8IProcessEEEE14TKeyEnumerator8MoveNextEv
 0002:0000367C       uMessageHandler.$unwind$_ZN6System8Generics11Collections14TDictionary__2INS_13UnicodeStringENS_15DelphiInterfaceIN10Umodulelib8IProcessEEEE14TKeyEnumeratorC3EPS8_
 0002:00003110       uMessageHandler.$unwind$_ZN6System8Generics11Collections14TDictionary__2INS_13UnicodeStringENS_15DelphiInterfaceIN10Umodulelib8IProcessEEEE15DoGetEnumeratorEv
 0002:0000385C       uMessageHandler.$unwind$_ZN6System8Generics11Collections14TDictionary__2INS_13UnicodeStringENS_15DelphiInterfaceIN10Umodulelib8IProcessEEEE15TPairEnumerator10DoMoveNextEv
 0002:00003848       uMessageHandler.$unwind$_ZN6System8Generics11Collections14TDictionary__2INS_13UnicodeStringENS_15DelphiInterfaceIN10Umodulelib8IProcessEEEE15TPairEnumerator10GetCurrentEv
 0002:00003854       uMessageHandler.$unwind$_ZN6System8Generics11Collections14TDictionary__2INS_13UnicodeStringENS_15DelphiInterfaceIN10Umodulelib8IProcessEEEE15TPairEnumerator12DoGetCurrentEv
 0002:000038A0       uMessageHandler.$unwind$_ZN6System8Generics11Collections14TDictionary__2INS_13UnicodeStringENS_15DelphiInterfaceIN10Umodulelib8IProcessEEEE15TPairEnumerator8MoveNextEv
 0002:00003864       uMessageHandler.$unwind$_ZN6System8Generics11Collections14TDictionary__2INS_13UnicodeStringENS_15DelphiInterfaceIN10Umodulelib8IProcessEEEE15TPairEnumeratorC3EPS8_
 0002:000037B8       uMessageHandler.$unwind$_ZN6System8Generics11Collections14TDictionary__2INS_13UnicodeStringENS_15DelphiInterfaceIN10Umodulelib8IProcessEEEE16TValueCollection13GetEnumeratorEv
 0002:00003774       uMessageHandler.$unwind$_ZN6System8Generics11Collections14TDictionary__2INS_13UnicodeStringENS_15DelphiInterfaceIN10Umodulelib8IProcessEEEE16TValueCollection15DoGetEnumeratorEv
 0002:000037C0       uMessageHandler.$unwind$_ZN6System8Generics11Collections14TDictionary__2INS_13UnicodeStringENS_15DelphiInterfaceIN10Umodulelib8IProcessEEEE16TValueCollection7ToArrayEv
 0002:00003770       uMessageHandler.$unwind$_ZN6System8Generics11Collections14TDictionary__2INS_13UnicodeStringENS_15DelphiInterfaceIN10Umodulelib8IProcessEEEE16TValueCollection8GetCountEv
 0002:0000377C       uMessageHandler.$unwind$_ZN6System8Generics11Collections14TDictionary__2INS_13UnicodeStringENS_15DelphiInterfaceIN10Umodulelib8IProcessEEEE16TValueCollectionC3EPS8_
 0002:00003800       uMessageHandler.$unwind$_ZN6System8Generics11Collections14TDictionary__2INS_13UnicodeStringENS_15DelphiInterfaceIN10Umodulelib8IProcessEEEE16TValueEnumerator10DoMoveNextEv
 0002:000037C8       uMessageHandler.$unwind$_ZN6System8Generics11Collections14TDictionary__2INS_13UnicodeStringENS_15DelphiInterfaceIN10Umodulelib8IProcessEEEE16TValueEnumerator10GetCurrentEv
 0002:000037D0       uMessageHandler.$unwind$_ZN6System8Generics11Collections14TDictionary__2INS_13UnicodeStringENS_15DelphiInterfaceIN10Umodulelib8IProcessEEEE16TValueEnumerator12DoGetCurrentEv
 0002:00003844       uMessageHandler.$unwind$_ZN6System8Generics11Collections14TDictionary__2INS_13UnicodeStringENS_15DelphiInterfaceIN10Umodulelib8IProcessEEEE16TValueEnumerator8MoveNextEv
 0002:00003808       uMessageHandler.$unwind$_ZN6System8Generics11Collections14TDictionary__2INS_13UnicodeStringENS_15DelphiInterfaceIN10Umodulelib8IProcessEEEE16TValueEnumeratorC3EPS8_
 0002:00002FF0       uMessageHandler.$unwind$_ZN6System8Generics11Collections14TDictionary__2INS_13UnicodeStringENS_15DelphiInterfaceIN10Umodulelib8IProcessEEEE19InternalSetCapacityEi
 0002:000033BC       uMessageHandler.$unwind$_ZN6System8Generics11Collections14TDictionary__2INS_13UnicodeStringENS_15DelphiInterfaceIN10Umodulelib8IProcessEEEE3AddES3_S7_
 0002:00003030       uMessageHandler.$unwind$_ZN6System8Generics11Collections14TDictionary__2INS_13UnicodeStringENS_15DelphiInterfaceIN10Umodulelib8IProcessEEEE4GrowEv
 0002:00003048       uMessageHandler.$unwind$_ZN6System8Generics11Collections14TDictionary__2INS_13UnicodeStringENS_15DelphiInterfaceIN10Umodulelib8IProcessEEEE4HashES3_
 0002:00003464       uMessageHandler.$unwind$_ZN6System8Generics11Collections14TDictionary__2INS_13UnicodeStringENS_15DelphiInterfaceIN10Umodulelib8IProcessEEEE5ClearEv
 0002:0000308C       uMessageHandler.$unwind$_ZN6System8Generics11Collections14TDictionary__2INS_13UnicodeStringENS_15DelphiInterfaceIN10Umodulelib8IProcessEEEE5DoAddEiiS3_S7_
 0002:00002FFC       uMessageHandler.$unwind$_ZN6System8Generics11Collections14TDictionary__2INS_13UnicodeStringENS_15DelphiInterfaceIN10Umodulelib8IProcessEEEE6RehashEi
 0002:000033CC       uMessageHandler.$unwind$_ZN6System8Generics11Collections14TDictionary__2INS_13UnicodeStringENS_15DelphiInterfaceIN10Umodulelib8IProcessEEEE6RemoveES3_
 0002:000034C0       uMessageHandler.$unwind$_ZN6System8Generics11Collections14TDictionary__2INS_13UnicodeStringENS_15DelphiInterfaceIN10Umodulelib8IProcessEEEE6TryAddES3_S7_
 0002:00003050       uMessageHandler.$unwind$_ZN6System8Generics11Collections14TDictionary__2INS_13UnicodeStringENS_15DelphiInterfaceIN10Umodulelib8IProcessEEEE7GetItemES3_
 0002:00003518       uMessageHandler.$unwind$_ZN6System8Generics11Collections14TDictionary__2INS_13UnicodeStringENS_15DelphiInterfaceIN10Umodulelib8IProcessEEEE7GetKeysEv
 0002:0000305C       uMessageHandler.$unwind$_ZN6System8Generics11Collections14TDictionary__2INS_13UnicodeStringENS_15DelphiInterfaceIN10Umodulelib8IProcessEEEE7SetItemES3_S7_
 0002:00003510       uMessageHandler.$unwind$_ZN6System8Generics11Collections14TDictionary__2INS_13UnicodeStringENS_15DelphiInterfaceIN10Umodulelib8IProcessEEEE7ToArrayEv
 0002:000030C8       uMessageHandler.$unwind$_ZN6System8Generics11Collections14TDictionary__2INS_13UnicodeStringENS_15DelphiInterfaceIN10Umodulelib8IProcessEEEE8DoRemoveES3_iNS1_23TCollectionNotificationE
 0002:00003520       uMessageHandler.$unwind$_ZN6System8Generics11Collections14TDictionary__2INS_13UnicodeStringENS_15DelphiInterfaceIN10Umodulelib8IProcessEEEE9GetValuesEv
 0002:00003118       uMessageHandler.$unwind$_ZN6System8Generics11Collections14TDictionary__2INS_13UnicodeStringENS_15DelphiInterfaceIN10Umodulelib8IProcessEEEE9KeyNotifyES3_NS1_23TCollectionNotificationE
 0002:00003164       uMessageHandler.$unwind$_ZN6System8Generics11Collections14TDictionary__2INS_13UnicodeStringENS_15DelphiInterfaceIN10Umodulelib8IProcessEEEEC3Ei
 0002:000031DC       uMessageHandler.$unwind$_ZN6System8Generics11Collections14TDictionary__2INS_13UnicodeStringENS_15DelphiInterfaceIN10Umodulelib8IProcessEEEEC3EiNS4_INS0_8Defaults20IEqualityComparer__1IS3_EEEE
 0002:000031A0       uMessageHandler.$unwind$_ZN6System8Generics11Collections14TDictionary__2INS_13UnicodeStringENS_15DelphiInterfaceIN10Umodulelib8IProcessEEEEC3ENS4_INS0_8Defaults20IEqualityComparer__1IS3_EEEE
 0002:00003300       uMessageHandler.$unwind$_ZN6System8Generics11Collections14TDictionary__2INS_13UnicodeStringENS_15DelphiInterfaceIN10Umodulelib8IProcessEEEEC3EPKNS1_8TPair__2IS3_S7_EEi
 0002:00003358       uMessageHandler.$unwind$_ZN6System8Generics11Collections14TDictionary__2INS_13UnicodeStringENS_15DelphiInterfaceIN10Umodulelib8IProcessEEEEC3EPKNS1_8TPair__2IS3_S7_EEiNS4_INS0_8Defaults20IEqualityComparer__1IS3_EEEE
 0002:00003218       uMessageHandler.$unwind$_ZN6System8Generics11Collections14TDictionary__2INS_13UnicodeStringENS_15DelphiInterfaceIN10Umodulelib8IProcessEEEEC3EPNS1_14TEnumerable__1INS1_8TPair__2IS3_S7_EEEE
 0002:0000328C       uMessageHandler.$unwind$_ZN6System8Generics11Collections14TDictionary__2INS_13UnicodeStringENS_15DelphiInterfaceIN10Umodulelib8IProcessEEEEC3EPNS1_14TEnumerable__1INS1_8TPair__2IS3_S7_EEEENS4_INS0_8Defaults20IEqualityComparer__1IS3_EEEE
 0002:00003128       uMessageHandler.$unwind$_ZN6System8Generics11Collections14TDictionary__2INS_13UnicodeStringENS_15DelphiInterfaceIN10Umodulelib8IProcessEEEEC3Ev
 0002:000033B0       uMessageHandler.$unwind$_ZN6System8Generics11Collections14TDictionary__2INS_13UnicodeStringENS_15DelphiInterfaceIN10Umodulelib8IProcessEEEED0Ev
 0002:00002F3C       uMessageHandler.$unwind$_ZN6System8Generics11Collections14TEnumerable__1INS1_8TPair__2INS_13UnicodeStringENS_15DelphiInterfaceIN10Umodulelib8IProcessEEEEEE11ToArrayImplEi
 0002:00002F94       uMessageHandler.$unwind$_ZN6System8Generics11Collections14TEnumerable__1INS1_8TPair__2INS_13UnicodeStringENS_15DelphiInterfaceIN10Umodulelib8IProcessEEEEEE13GetEnumeratorEv
 0002:00002F9C       uMessageHandler.$unwind$_ZN6System8Generics11Collections14TEnumerable__1INS1_8TPair__2INS_13UnicodeStringENS_15DelphiInterfaceIN10Umodulelib8IProcessEEEEEE7ToArrayEv
 0002:00002F88       uMessageHandler.$unwind$_ZN6System8Generics11Collections14TEnumerable__1INS1_8TPair__2INS_13UnicodeStringENS_15DelphiInterfaceIN10Umodulelib8IProcessEEEEEED0Ev
 0002:00003530       uMessageHandler.$unwind$_ZN6System8Generics11Collections14TEnumerable__1INS_13UnicodeStringEE11ToArrayImplEi
 0002:00003588       uMessageHandler.$unwind$_ZN6System8Generics11Collections14TEnumerable__1INS_13UnicodeStringEE13GetEnumeratorEv
 0002:00003590       uMessageHandler.$unwind$_ZN6System8Generics11Collections14TEnumerable__1INS_13UnicodeStringEE7ToArrayEv
 0002:0000357C       uMessageHandler.$unwind$_ZN6System8Generics11Collections14TEnumerable__1INS_13UnicodeStringEED0Ev
 0002:000036BC       uMessageHandler.$unwind$_ZN6System8Generics11Collections14TEnumerable__1INS_15DelphiInterfaceIN10Umodulelib8IProcessEEEE11ToArrayImplEi
 0002:00003714       uMessageHandler.$unwind$_ZN6System8Generics11Collections14TEnumerable__1INS_15DelphiInterfaceIN10Umodulelib8IProcessEEEE13GetEnumeratorEv
 0002:0000371C       uMessageHandler.$unwind$_ZN6System8Generics11Collections14TEnumerable__1INS_15DelphiInterfaceIN10Umodulelib8IProcessEEEE7ToArrayEv
 0002:00003708       uMessageHandler.$unwind$_ZN6System8Generics11Collections14TEnumerable__1INS_15DelphiInterfaceIN10Umodulelib8IProcessEEEED0Ev
 0002:00002FE8       uMessageHandler.$unwind$_ZN6System8Generics11Collections14TEnumerator__1INS1_8TPair__2INS_13UnicodeStringENS_15DelphiInterfaceIN10Umodulelib8IProcessEEEEEE8MoveNextEv
 0002:000035DC       uMessageHandler.$unwind$_ZN6System8Generics11Collections14TEnumerator__1INS_13UnicodeStringEE8MoveNextEv
 0002:00003768       uMessageHandler.$unwind$_ZN6System8Generics11Collections14TEnumerator__1INS_15DelphiInterfaceIN10Umodulelib8IProcessEEEE8MoveNextEv
 0002:00002F30       uMessageHandler.$unwind$_ZN6System8Generics11Collections8TPair__2INS_13UnicodeStringENS_15DelphiInterfaceIN10Umodulelib8IProcessEEEEC1ES3_S7_
 0002:000038A4       uMessageHandler.$unwind$_ZN6System8Generics8Defaults20TEqualityComparer__1INS_13UnicodeStringEE8_DefaultEv
 0002:000038AC       uMessageHandler.$unwind$_ZN6System8Generics8Defaults20TEqualityComparer__1INS_15DelphiInterfaceIN10Umodulelib8IProcessEEEE8_DefaultEv
 0001:00020F20       uMessageHandler...TMessageHandler
 0003:00000110       uMessageHandler..2
 0001:00021140       uMessageHandler..TMessageHandler
 0001:000234B8       uMessageHandler..{System.Generics.Collections}TDictionary<System.string,uModuleLib.IProcess>
 0001:000224E0       uMessageHandler..{System.Generics.Collections}TDictionary<System.string,uModuleLib.IProcess>.TKeyCollection
 0001:00022230       uMessageHandler..{System.Generics.Collections}TDictionary<System.string,uModuleLib.IProcess>.TKeyEnumerator
 0001:00023200       uMessageHandler..{System.Generics.Collections}TDictionary<System.string,uModuleLib.IProcess>.TPairEnumerator
 0001:00022EF8       uMessageHandler..{System.Generics.Collections}TDictionary<System.string,uModuleLib.IProcess>.TValueCollection
 0001:00022C40       uMessageHandler..{System.Generics.Collections}TDictionary<System.string,uModuleLib.IProcess>.TValueEnumerator
 0001:000217E8       uMessageHandler..{System.Generics.Collections}TEnumerable<System.Generics.Collections.TPair<System.string,uModuleLib.IProcess>>
 0001:00022000       uMessageHandler..{System.Generics.Collections}TEnumerable<System.string>
 0001:00022A08       uMessageHandler..{System.Generics.Collections}TEnumerable<uModuleLib.IProcess>
 0001:000215A8       uMessageHandler..{System.Generics.Collections}TEnumerator<System.Generics.Collections.TPair<System.string,uModuleLib.IProcess>>
 0001:00021E28       uMessageHandler..{System.Generics.Collections}TEnumerator<System.string>
 0001:00022828       uMessageHandler..{System.Generics.Collections}TEnumerator<uModuleLib.IProcess>
 0001:000249B0       uMessageHandler.Finalization
 0001:00024170       uMessageHandler.TMessageHandler.AddOrSet
 0001:00024200       uMessageHandler.TMessageHandler.Create
 0001:00024340       uMessageHandler.TMessageHandler.Destroy
 0001:00024430       uMessageHandler.TMessageHandler.NewExceptionMsgPack
 0001:00024490       uMessageHandler.TMessageHandler.NewNoticeMsgPack
 0001:00024560       uMessageHandler.TMessageHandler.PostMessage
 0001:000245D0       uMessageHandler.TMessageHandler.PostNoticeMsg
 0001:00024760       uMessageHandler.TMessageHandler.PostStateMsg
 0001:00024810       uMessageHandler.TMessageHandler.Process
 0001:00024940       uMessageHandler.TMessageHandler.Remove
 0001:000249C0       uMessageHandler.uMessageHandler
 0001:00025FD0       uMessageHandler.{System.Generics.Collections}TDictionary<System.string,uModuleLib.IProcess>.Add
 0001:00026430       uMessageHandler.{System.Generics.Collections}TDictionary<System.string,uModuleLib.IProcess>.AddOrSetValue
 0001:00026280       uMessageHandler.{System.Generics.Collections}TDictionary<System.string,uModuleLib.IProcess>.Clear
 0001:00026550       uMessageHandler.{System.Generics.Collections}TDictionary<System.string,uModuleLib.IProcess>.ContainsKey
 0001:00026590       uMessageHandler.{System.Generics.Collections}TDictionary<System.string,uModuleLib.IProcess>.ContainsValue
 0001:00025800       uMessageHandler.{System.Generics.Collections}TDictionary<System.string,uModuleLib.IProcess>.Create
 0001:00025750       uMessageHandler.{System.Generics.Collections}TDictionary<System.string,uModuleLib.IProcess>.Create
 0001:000256B0       uMessageHandler.{System.Generics.Collections}TDictionary<System.string,uModuleLib.IProcess>.Create
 0001:000258B0       uMessageHandler.{System.Generics.Collections}TDictionary<System.string,uModuleLib.IProcess>.Create
 0001:000259A0       uMessageHandler.{System.Generics.Collections}TDictionary<System.string,uModuleLib.IProcess>.Create
 0001:00025E10       uMessageHandler.{System.Generics.Collections}TDictionary<System.string,uModuleLib.IProcess>.Create
 0001:00025B30       uMessageHandler.{System.Generics.Collections}TDictionary<System.string,uModuleLib.IProcess>.Create
 0001:00025CC0       uMessageHandler.{System.Generics.Collections}TDictionary<System.string,uModuleLib.IProcess>.Create
 0001:00025F70       uMessageHandler.{System.Generics.Collections}TDictionary<System.string,uModuleLib.IProcess>.Destroy
 0001:00025240       uMessageHandler.{System.Generics.Collections}TDictionary<System.string,uModuleLib.IProcess>.DoAdd
 0001:00025620       uMessageHandler.{System.Generics.Collections}TDictionary<System.string,uModuleLib.IProcess>.DoGetEnumerator
 0001:00025370       uMessageHandler.{System.Generics.Collections}TDictionary<System.string,uModuleLib.IProcess>.DoRemove
 0001:000252B0       uMessageHandler.{System.Generics.Collections}TDictionary<System.string,uModuleLib.IProcess>.DoSetValue
 0001:000260E0       uMessageHandler.{System.Generics.Collections}TDictionary<System.string,uModuleLib.IProcess>.ExtractPair
 0001:00024FF0       uMessageHandler.{System.Generics.Collections}TDictionary<System.string,uModuleLib.IProcess>.GetBucketIndex
 0001:00025580       uMessageHandler.{System.Generics.Collections}TDictionary<System.string,uModuleLib.IProcess>.GetCapacity
 0001:000255C0       uMessageHandler.{System.Generics.Collections}TDictionary<System.string,uModuleLib.IProcess>.GetCollisions
 0001:00026700       uMessageHandler.{System.Generics.Collections}TDictionary<System.string,uModuleLib.IProcess>.GetEnumerator
 0001:000250D0       uMessageHandler.{System.Generics.Collections}TDictionary<System.string,uModuleLib.IProcess>.GetItem
 0001:000266A0       uMessageHandler.{System.Generics.Collections}TDictionary<System.string,uModuleLib.IProcess>.GetKeys
 0001:000266D0       uMessageHandler.{System.Generics.Collections}TDictionary<System.string,uModuleLib.IProcess>.GetValues
 0001:00024FC0       uMessageHandler.{System.Generics.Collections}TDictionary<System.string,uModuleLib.IProcess>.Grow
 0001:000250A0       uMessageHandler.{System.Generics.Collections}TDictionary<System.string,uModuleLib.IProcess>.Hash
 0001:00024DD0       uMessageHandler.{System.Generics.Collections}TDictionary<System.string,uModuleLib.IProcess>.InternalSetCapacity
 0001:00025630       uMessageHandler.{System.Generics.Collections}TDictionary<System.string,uModuleLib.IProcess>.KeyNotify
 0001:00024E20       uMessageHandler.{System.Generics.Collections}TDictionary<System.string,uModuleLib.IProcess>.Rehash
 0001:00026060       uMessageHandler.{System.Generics.Collections}TDictionary<System.string,uModuleLib.IProcess>.Remove
 0001:00025590       uMessageHandler.{System.Generics.Collections}TDictionary<System.string,uModuleLib.IProcess>.SetCapacity
 0001:00025140       uMessageHandler.{System.Generics.Collections}TDictionary<System.string,uModuleLib.IProcess>.SetItem
 0001:00026AD0       uMessageHandler.{System.Generics.Collections}TDictionary<System.string,uModuleLib.IProcess>.TKeyCollection.Create
 0001:00026AC0       uMessageHandler.{System.Generics.Collections}TDictionary<System.string,uModuleLib.IProcess>.TKeyCollection.DoGetEnumerator
 0001:00026AB0       uMessageHandler.{System.Generics.Collections}TDictionary<System.string,uModuleLib.IProcess>.TKeyCollection.GetCount
 0001:00026B80       uMessageHandler.{System.Generics.Collections}TDictionary<System.string,uModuleLib.IProcess>.TKeyCollection.GetEnumerator
 0001:00026BA0       uMessageHandler.{System.Generics.Collections}TDictionary<System.string,uModuleLib.IProcess>.TKeyCollection.ToArray
 0001:00026C90       uMessageHandler.{System.Generics.Collections}TDictionary<System.string,uModuleLib.IProcess>.TKeyEnumerator.Create
 0001:00026C10       uMessageHandler.{System.Generics.Collections}TDictionary<System.string,uModuleLib.IProcess>.TKeyEnumerator.DoGetCurrent
 0001:00026C80       uMessageHandler.{System.Generics.Collections}TDictionary<System.string,uModuleLib.IProcess>.TKeyEnumerator.DoMoveNext
 0001:00026BD0       uMessageHandler.{System.Generics.Collections}TDictionary<System.string,uModuleLib.IProcess>.TKeyEnumerator.GetCurrent
 0001:00026D50       uMessageHandler.{System.Generics.Collections}TDictionary<System.string,uModuleLib.IProcess>.TKeyEnumerator.MoveNext
 0001:00026670       uMessageHandler.{System.Generics.Collections}TDictionary<System.string,uModuleLib.IProcess>.ToArray
 0001:000274B0       uMessageHandler.{System.Generics.Collections}TDictionary<System.string,uModuleLib.IProcess>.TPairEnumerator.Create
 0001:00027480       uMessageHandler.{System.Generics.Collections}TDictionary<System.string,uModuleLib.IProcess>.TPairEnumerator.DoGetCurrent
 0001:000274A0       uMessageHandler.{System.Generics.Collections}TDictionary<System.string,uModuleLib.IProcess>.TPairEnumerator.DoMoveNext
 0001:00027420       uMessageHandler.{System.Generics.Collections}TDictionary<System.string,uModuleLib.IProcess>.TPairEnumerator.GetCurrent
 0001:00027570       uMessageHandler.{System.Generics.Collections}TDictionary<System.string,uModuleLib.IProcess>.TPairEnumerator.MoveNext
 0001:000263A0       uMessageHandler.{System.Generics.Collections}TDictionary<System.string,uModuleLib.IProcess>.TrimExcess
 0001:000264C0       uMessageHandler.{System.Generics.Collections}TDictionary<System.string,uModuleLib.IProcess>.TryAdd
 0001:000263C0       uMessageHandler.{System.Generics.Collections}TDictionary<System.string,uModuleLib.IProcess>.TryGetValue
 0001:00027150       uMessageHandler.{System.Generics.Collections}TDictionary<System.string,uModuleLib.IProcess>.TValueCollection.Create
 0001:00027140       uMessageHandler.{System.Generics.Collections}TDictionary<System.string,uModuleLib.IProcess>.TValueCollection.DoGetEnumerator
 0001:00027130       uMessageHandler.{System.Generics.Collections}TDictionary<System.string,uModuleLib.IProcess>.TValueCollection.GetCount
 0001:00027200       uMessageHandler.{System.Generics.Collections}TDictionary<System.string,uModuleLib.IProcess>.TValueCollection.GetEnumerator
 0001:00027220       uMessageHandler.{System.Generics.Collections}TDictionary<System.string,uModuleLib.IProcess>.TValueCollection.ToArray
 0001:00027310       uMessageHandler.{System.Generics.Collections}TDictionary<System.string,uModuleLib.IProcess>.TValueEnumerator.Create
 0001:00027290       uMessageHandler.{System.Generics.Collections}TDictionary<System.string,uModuleLib.IProcess>.TValueEnumerator.DoGetCurrent
 0001:00027300       uMessageHandler.{System.Generics.Collections}TDictionary<System.string,uModuleLib.IProcess>.TValueEnumerator.DoMoveNext
 0001:00027250       uMessageHandler.{System.Generics.Collections}TDictionary<System.string,uModuleLib.IProcess>.TValueEnumerator.GetCurrent
 0001:000273D0       uMessageHandler.{System.Generics.Collections}TDictionary<System.string,uModuleLib.IProcess>.TValueEnumerator.MoveNext
 0001:00025670       uMessageHandler.{System.Generics.Collections}TDictionary<System.string,uModuleLib.IProcess>.ValueNotify
 0001:00024B40       uMessageHandler.{System.Generics.Collections}TEnumerable<System.Generics.Collections.TPair<System.string,uModuleLib.IProcess>>.Destroy
 0001:00024B80       uMessageHandler.{System.Generics.Collections}TEnumerable<System.Generics.Collections.TPair<System.string,uModuleLib.IProcess>>.GetEnumerator
 0001:00024BA0       uMessageHandler.{System.Generics.Collections}TEnumerable<System.Generics.Collections.TPair<System.string,uModuleLib.IProcess>>.ToArray
 0001:00024A00       uMessageHandler.{System.Generics.Collections}TEnumerable<System.Generics.Collections.TPair<System.string,uModuleLib.IProcess>>.ToArrayImpl
 0001:00026850       uMessageHandler.{System.Generics.Collections}TEnumerable<System.string>.Destroy
 0001:00026890       uMessageHandler.{System.Generics.Collections}TEnumerable<System.string>.GetEnumerator
 0001:000268B0       uMessageHandler.{System.Generics.Collections}TEnumerable<System.string>.ToArray
 0001:00026720       uMessageHandler.{System.Generics.Collections}TEnumerable<System.string>.ToArrayImpl
 0001:00026ED0       uMessageHandler.{System.Generics.Collections}TEnumerable<uModuleLib.IProcess>.Destroy
 0001:00026F10       uMessageHandler.{System.Generics.Collections}TEnumerable<uModuleLib.IProcess>.GetEnumerator
 0001:00026F30       uMessageHandler.{System.Generics.Collections}TEnumerable<uModuleLib.IProcess>.ToArray
 0001:00026DA0       uMessageHandler.{System.Generics.Collections}TEnumerable<uModuleLib.IProcess>.ToArrayImpl
 0001:00024DB0       uMessageHandler.{System.Generics.Collections}TEnumerator<System.Generics.Collections.TPair<System.string,uModuleLib.IProcess>>.MoveNext
 0001:00026A90       uMessageHandler.{System.Generics.Collections}TEnumerator<System.string>.MoveNext
 0001:00027110       uMessageHandler.{System.Generics.Collections}TEnumerator<uModuleLib.IProcess>.MoveNext
 0001:000249D0       uMessageHandler.{System.Generics.Collections}TPair<System.string,uModuleLib.IProcess>.Create
 0001:000275C0       uMessageHandler.{System.Generics.Defaults}TEqualityComparer<System.string>._Default
 0001:000275E0       uMessageHandler.{System.Generics.Defaults}TEqualityComparer<uModuleLib.IProcess>._Default
 0005:00000498       uModuleLib.$pdata$_ZN10Umodulelib12FinalizationEv
 0005:000004A4       uModuleLib.$pdata$_ZN10Umodulelib14initializationEv
 0002:000002E0       uModuleLib.$unwind$_ZN10Umodulelib12FinalizationEv
 0002:000002E4       uModuleLib.$unwind$_ZN10Umodulelib14initializationEv
 0003:000000FC       uModuleLib..2
 0001:000044E8       uModuleLib..ENotFoundCEFRuntime
 0001:00004C00       uModuleLib.Finalization
 0001:00004C10       uModuleLib.uModuleLib
 0005:00000B28       uModuleTemplate.$pdata$_ZN15Umoduletemplate12FinalizationEv
 0005:00000B34       uModuleTemplate.$pdata$_ZN15Umoduletemplate14initializationEv
 0005:00000A74       uModuleTemplate.$pdata$_ZN15Umoduletemplate16TDependencyEventC3Eb
 0005:00000AB0       uModuleTemplate.$pdata$_ZN15Umoduletemplate17TCustomController14InitDependencyEv
 0005:00000ABC       uModuleTemplate.$pdata$_ZN15Umoduletemplate17TCustomController14InitMsgHandlerEN6System15DelphiInterfaceIN10Umodulelib12IPostMessageEEE
 0005:00000A8C       uModuleTemplate.$pdata$_ZN15Umoduletemplate17TCustomController15CheckIsCallableEPN6System16TCustomAttributeE
 0005:00000A98       uModuleTemplate.$pdata$_ZN15Umoduletemplate17TCustomController15ClearDependencyEv
 0005:00000AA4       uModuleTemplate.$pdata$_ZN15Umoduletemplate17TCustomController15GetRelativePathEPN6System16TCustomAttributeE
 0005:00000AD4       uModuleTemplate.$pdata$_ZN15Umoduletemplate17TCustomController17InnerInitFrontEndEv
 0005:00000AEC       uModuleTemplate.$pdata$_ZN15Umoduletemplate17TCustomController18AfterPropertiesSetEv
 0005:00000AE0       uModuleTemplate.$pdata$_ZN15Umoduletemplate17TCustomController18OnApplicationEventEPNS_16TDependencyEventE
 0005:00000B10       uModuleTemplate.$pdata$_ZN15Umoduletemplate17TCustomController7ProcessEN6System13UnicodeStringES2_
 0005:00000B04       uModuleTemplate.$pdata$_ZN15Umoduletemplate17TCustomController7ProcessEv
 0005:00000A2C       uModuleTemplate.$pdata$_ZN15Umoduletemplate8TApiAttrC3EN6System13UnicodeStringES2_
 0005:00000A50       uModuleTemplate.$pdata$_ZN15Umoduletemplate8TApiAttrC3EN6System13UnicodeStringES2_S2_
 0002:00000C28       uModuleTemplate.$unwind$_ZN15Umoduletemplate12FinalizationEv
 0002:00000C2C       uModuleTemplate.$unwind$_ZN15Umoduletemplate14initializationEv
 0002:00000B34       uModuleTemplate.$unwind$_ZN15Umoduletemplate16TDependencyEventC3Eb
 0002:00000B88       uModuleTemplate.$unwind$_ZN15Umoduletemplate17TCustomController14InitDependencyEv
 0002:00000B8C       uModuleTemplate.$unwind$_ZN15Umoduletemplate17TCustomController14InitMsgHandlerEN6System15DelphiInterfaceIN10Umodulelib12IPostMessageEEE
 0002:00000B70       uModuleTemplate.$unwind$_ZN15Umoduletemplate17TCustomController15CheckIsCallableEPN6System16TCustomAttributeE
 0002:00000B78       uModuleTemplate.$unwind$_ZN15Umoduletemplate17TCustomController15ClearDependencyEv
 0002:00000B7C       uModuleTemplate.$unwind$_ZN15Umoduletemplate17TCustomController15GetRelativePathEPN6System16TCustomAttributeE
 0002:00000BB4       uModuleTemplate.$unwind$_ZN15Umoduletemplate17TCustomController17InnerInitFrontEndEv
 0002:00000BC4       uModuleTemplate.$unwind$_ZN15Umoduletemplate17TCustomController18AfterPropertiesSetEv
 0002:00000BBC       uModuleTemplate.$unwind$_ZN15Umoduletemplate17TCustomController18OnApplicationEventEPNS_16TDependencyEventE
 0002:00000BF8       uModuleTemplate.$unwind$_ZN15Umoduletemplate17TCustomController7ProcessEN6System13UnicodeStringES2_
 0002:00000BF4       uModuleTemplate.$unwind$_ZN15Umoduletemplate17TCustomController7ProcessEv
 0002:00000A84       uModuleTemplate.$unwind$_ZN15Umoduletemplate8TApiAttrC3EN6System13UnicodeStringES2_
 0002:00000ADC       uModuleTemplate.$unwind$_ZN15Umoduletemplate8TApiAttrC3EN6System13UnicodeStringES2_S2_
 0001:0000A438       uModuleTemplate...TCustomController
 0001:0000A838       uModuleTemplate...TCustomRouter
 0003:00000108       uModuleTemplate..8
 0001:00009B78       uModuleTemplate..TApiAttr
 0001:0000A108       uModuleTemplate..TCallableAttr
 0001:00009FE0       uModuleTemplate..TControllerAttr
 0001:0000A620       uModuleTemplate..TCustomController
 0001:0000A920       uModuleTemplate..TCustomRouter
 0001:0000A230       uModuleTemplate..TDependencyEvent
 0001:00009EC0       uModuleTemplate..TRouterAttr
 0001:0000B010       uModuleTemplate.Finalization
 0001:0000AB80       uModuleTemplate.TApiAttr.Create
 0001:0000AA80       uModuleTemplate.TApiAttr.Create
 0001:0000AE40       uModuleTemplate.TCustomController.AfterPropertiesSet
 0001:0000AD50       uModuleTemplate.TCustomController.CheckIsCallable
 0001:0000AD70       uModuleTemplate.TCustomController.ClearDependency
 0001:0000AD80       uModuleTemplate.TCustomController.GetRelativePath
 0001:0000ADC0       uModuleTemplate.TCustomController.InitDependency
 0001:0000ADD0       uModuleTemplate.TCustomController.InitMsgHandler
 0001:0000ADF0       uModuleTemplate.TCustomController.InnerInitFrontEnd
 0001:0000AE10       uModuleTemplate.TCustomController.OnApplicationEvent
 0001:0000AEE0       uModuleTemplate.TCustomController.Process
 0001:0000AED0       uModuleTemplate.TCustomController.Process
 0001:0000ACA0       uModuleTemplate.TDependencyEvent.Create
 0001:0000B020       uModuleTemplate.uModuleTemplate
 0005:0000345C       uMVCLite.$pdata$_ZN5Fslib8TFifo__1IPN8Umvclite19TContextRequestProcEE11TEnumerator10DoMoveNextEv
 0005:00003444       uMVCLite.$pdata$_ZN5Fslib8TFifo__1IPN8Umvclite19TContextRequestProcEE11TEnumerator10GetCurrentEv
 0005:00003450       uMVCLite.$pdata$_ZN5Fslib8TFifo__1IPN8Umvclite19TContextRequestProcEE11TEnumerator12DoGetCurrentEv
 0005:00003468       uMVCLite.$pdata$_ZN5Fslib8TFifo__1IPN8Umvclite19TContextRequestProcEE11TEnumerator8MoveNextEv
 0005:00003378       uMVCLite.$pdata$_ZN5Fslib8TFifo__1IPN8Umvclite19TContextRequestProcEE12NotifyDeleteES3_
 0005:00003438       uMVCLite.$pdata$_ZN5Fslib8TFifo__1IPN8Umvclite19TContextRequestProcEE13GetEnumeratorEv
 0005:0000336C       uMVCLite.$pdata$_ZN5Fslib8TFifo__1IPN8Umvclite19TContextRequestProcEE15DoGetEnumeratorEv
 0005:00003408       uMVCLite.$pdata$_ZN5Fslib8TFifo__1IPN8Umvclite19TContextRequestProcEE3PopERS3_
 0005:00003420       uMVCLite.$pdata$_ZN5Fslib8TFifo__1IPN8Umvclite19TContextRequestProcEE4PeekERS3_
 0005:000033F0       uMVCLite.$pdata$_ZN5Fslib8TFifo__1IPN8Umvclite19TContextRequestProcEE4PushES3_
 0005:000033C0       uMVCLite.$pdata$_ZN5Fslib8TFifo__1IPN8Umvclite19TContextRequestProcEE5ClearEb
 0005:000033A8       uMVCLite.$pdata$_ZN5Fslib8TFifo__1IPN8Umvclite19TContextRequestProcEE5ClearEv
 0005:000033D8       uMVCLite.$pdata$_ZN5Fslib8TFifo__1IPN8Umvclite19TContextRequestProcEE5EmptyEv
 0005:000033CC       uMVCLite.$pdata$_ZN5Fslib8TFifo__1IPN8Umvclite19TContextRequestProcEE7DequeueERS3_
 0005:000033E4       uMVCLite.$pdata$_ZN5Fslib8TFifo__1IPN8Umvclite19TContextRequestProcEE7EnqueueES3_
 0005:00003384       uMVCLite.$pdata$_ZN5Fslib8TFifo__1IPN8Umvclite19TContextRequestProcEEC3Ev
 0005:0000339C       uMVCLite.$pdata$_ZN5Fslib8TFifo__1IPN8Umvclite19TContextRequestProcEED0Ev
 0005:00002E74       uMVCLite.$pdata$_ZN6System8Generics11Collections14TEnumerable__1IN7Strlist14TStringList__1IU9__closurePFvNS_15DelphiInterfaceIN10Umodulelib15IRequestContextEEEEE11TStringItemEE11ToArrayImplEi
 0005:00002EA4       uMVCLite.$pdata$_ZN6System8Generics11Collections14TEnumerable__1IN7Strlist14TStringList__1IU9__closurePFvNS_15DelphiInterfaceIN10Umodulelib15IRequestContextEEEEE11TStringItemEE13GetEnumeratorEv
 0005:00002EB0       uMVCLite.$pdata$_ZN6System8Generics11Collections14TEnumerable__1IN7Strlist14TStringList__1IU9__closurePFvNS_15DelphiInterfaceIN10Umodulelib15IRequestContextEEEEE11TStringItemEE7ToArrayEv
 0005:00002E98       uMVCLite.$pdata$_ZN6System8Generics11Collections14TEnumerable__1IN7Strlist14TStringList__1IU9__closurePFvNS_15DelphiInterfaceIN10Umodulelib15IRequestContextEEEEE11TStringItemEED0Ev
 0005:00003474       uMVCLite.$pdata$_ZN6System8Generics11Collections14TEnumerable__1INS_15DelphiInterfaceIN10Umodulelib10IMVCRouterEEEE11ToArrayImplEi
 0005:000034A4       uMVCLite.$pdata$_ZN6System8Generics11Collections14TEnumerable__1INS_15DelphiInterfaceIN10Umodulelib10IMVCRouterEEEE13GetEnumeratorEv
 0005:000034B0       uMVCLite.$pdata$_ZN6System8Generics11Collections14TEnumerable__1INS_15DelphiInterfaceIN10Umodulelib10IMVCRouterEEEE7ToArrayEv
 0005:00003498       uMVCLite.$pdata$_ZN6System8Generics11Collections14TEnumerable__1INS_15DelphiInterfaceIN10Umodulelib10IMVCRouterEEEED0Ev
 0005:00003318       uMVCLite.$pdata$_ZN6System8Generics11Collections14TEnumerable__1IPN8Umvclite19TContextRequestProcEE11ToArrayImplEi
 0005:0000333C       uMVCLite.$pdata$_ZN6System8Generics11Collections14TEnumerable__1IPN8Umvclite19TContextRequestProcEE13GetEnumeratorEv
 0005:00003348       uMVCLite.$pdata$_ZN6System8Generics11Collections14TEnumerable__1IPN8Umvclite19TContextRequestProcEE7ToArrayEv
 0005:00003330       uMVCLite.$pdata$_ZN6System8Generics11Collections14TEnumerable__1IPN8Umvclite19TContextRequestProcEED0Ev
 0005:00002ED4       uMVCLite.$pdata$_ZN6System8Generics11Collections14TEnumerator__1IN7Strlist14TStringList__1IU9__closurePFvNS_15DelphiInterfaceIN10Umodulelib15IRequestContextEEEEE11TStringItemEE8MoveNextEv
 0005:000034D4       uMVCLite.$pdata$_ZN6System8Generics11Collections14TEnumerator__1INS_15DelphiInterfaceIN10Umodulelib10IMVCRouterEEEE8MoveNextEv
 0005:00003360       uMVCLite.$pdata$_ZN6System8Generics11Collections14TEnumerator__1IPN8Umvclite19TContextRequestProcEE8MoveNextEv
 0005:00003960       uMVCLite.$pdata$_ZN6System8Generics11Collections24@TList__1_Pack_0__ActRecIN7Strlist14TStringList__1IU9__closurePFvNS_15DelphiInterfaceIN10Umodulelib15IRequestContextEEEEE11TStringItemEE7_0_BodyEPKv
 0005:000039A8       uMVCLite.$pdata$_ZN6System8Generics11Collections24@TList__1_Pack_0__ActRecINS_15DelphiInterfaceIN10Umodulelib10IMVCRouterEEEE7_0_BodyEPKv
 0005:00003948       uMVCLite.$pdata$_ZN6System8Generics11Collections24@TList__1_Pack_1__ActRecIN7Strlist14TStringList__1IU9__closurePFvNS_15DelphiInterfaceIN10Umodulelib15IRequestContextEEEEE11TStringItemEE7_0_BodyEPKv
 0005:0000399C       uMVCLite.$pdata$_ZN6System8Generics11Collections24@TList__1_Pack_1__ActRecINS_15DelphiInterfaceIN10Umodulelib10IMVCRouterEEEE7_0_BodyEPKv
 0005:00003984       uMVCLite.$pdata$_ZN6System8Generics11Collections6TArray12BinarySearchIN7Strlist14TStringList__1IU9__closurePFvNS_15DelphiInterfaceIN10Umodulelib15IRequestContextEEEEE11TStringItemEEEbPKT_iSG_RiNS6_INS0_8Defaults12IComparer__1ISG_EEEEii
 0005:000039C0       uMVCLite.$pdata$_ZN6System8Generics11Collections6TArray12BinarySearchINS_15DelphiInterfaceIN10Umodulelib10IMVCRouterEEEEEbPKT_iS9_RiNS4_INS0_8Defaults12IComparer__1IS9_EEEEii
 0005:00003978       uMVCLite.$pdata$_ZN6System8Generics11Collections6TArray4SortIN7Strlist14TStringList__1IU9__closurePFvNS_15DelphiInterfaceIN10Umodulelib15IRequestContextEEEEE11TStringItemEEEvPT_iNS6_INS0_8Defaults12IComparer__1ISG_EEEEii
 0005:000039B4       uMVCLite.$pdata$_ZN6System8Generics11Collections6TArray4SortINS_15DelphiInterfaceIN10Umodulelib10IMVCRouterEEEEEvPT_iNS4_INS0_8Defaults12IComparer__1IS9_EEEEii
 0005:000039CC       uMVCLite.$pdata$_ZN6System8Generics11Collections6TArray9QuickSortIN7Strlist14TStringList__1IU9__closurePFvNS_15DelphiInterfaceIN10Umodulelib15IRequestContextEEEEE11TStringItemEEEvPT_iNS6_INS0_8Defaults12IComparer__1ISG_EEEEii
 0005:000039E4       uMVCLite.$pdata$_ZN6System8Generics11Collections6TArray9QuickSortINS_15DelphiInterfaceIN10Umodulelib10IMVCRouterEEEEEvPT_iNS4_INS0_8Defaults12IComparer__1IS9_EEEEii
 0005:00003120       uMVCLite.$pdata$_ZN6System8Generics11Collections8TList__1IN7Strlist14TStringList__1IU9__closurePFvNS_15DelphiInterfaceIN10Umodulelib15IRequestContextEEEEE11TStringItemEE10RemoveItemERKSD_NS_5Types10TDirectionE
 0005:00003294       uMVCLite.$pdata$_ZN6System8Generics11Collections8TList__1IN7Strlist14TStringList__1IU9__closurePFvNS_15DelphiInterfaceIN10Umodulelib15IRequestContextEEEEE11TStringItemEE10TrimExcessEv
 0005:00003138       uMVCLite.$pdata$_ZN6System8Generics11Collections8TList__1IN7Strlist14TStringList__1IU9__closurePFvNS_15DelphiInterfaceIN10Umodulelib15IRequestContextEEEEE11TStringItemEE11DeleteRangeEii
 0005:00003144       uMVCLite.$pdata$_ZN6System8Generics11Collections8TList__1IN7Strlist14TStringList__1IU9__closurePFvNS_15DelphiInterfaceIN10Umodulelib15IRequestContextEEEEE11TStringItemEE11ExtractItemERKSD_NS_5Types10TDirectionE
 0005:00002EE0       uMVCLite.$pdata$_ZN6System8Generics11Collections8TList__1IN7Strlist14TStringList__1IU9__closurePFvNS_15DelphiInterfaceIN10Umodulelib15IRequestContextEEEEE11TStringItemEE11FListHelperEv
 0005:00002F04       uMVCLite.$pdata$_ZN6System8Generics11Collections8TList__1IN7Strlist14TStringList__1IU9__closurePFvNS_15DelphiInterfaceIN10Umodulelib15IRequestContextEEEEE11TStringItemEE11GetCapacityEv
 0005:00003228       uMVCLite.$pdata$_ZN6System8Generics11Collections8TList__1IN7Strlist14TStringList__1IU9__closurePFvNS_15DelphiInterfaceIN10Umodulelib15IRequestContextEEEEE11TStringItemEE11IndexOfItemERKSD_NS_5Types10TDirectionE
 0005:0000309C       uMVCLite.$pdata$_ZN6System8Generics11Collections8TList__1IN7Strlist14TStringList__1IU9__closurePFvNS_15DelphiInterfaceIN10Umodulelib15IRequestContextEEEEE11TStringItemEE11InsertRangeEiNS5_INS_14IEnumerable__1ISD_EEEE
 0005:00003090       uMVCLite.$pdata$_ZN6System8Generics11Collections8TList__1IN7Strlist14TStringList__1IU9__closurePFvNS_15DelphiInterfaceIN10Umodulelib15IRequestContextEEEEE11TStringItemEE11InsertRangeEiPKSD_i
 0005:00003084       uMVCLite.$pdata$_ZN6System8Generics11Collections8TList__1IN7Strlist14TStringList__1IU9__closurePFvNS_15DelphiInterfaceIN10Umodulelib15IRequestContextEEEEE11TStringItemEE11InsertRangeEiPKSD_ii
 0005:000030C0       uMVCLite.$pdata$_ZN6System8Generics11Collections8TList__1IN7Strlist14TStringList__1IU9__closurePFvNS_15DelphiInterfaceIN10Umodulelib15IRequestContextEEEEE11TStringItemEE11InsertRangeEiPNS1_14TEnumerable__1ISD_EE
 0005:00003234       uMVCLite.$pdata$_ZN6System8Generics11Collections8TList__1IN7Strlist14TStringList__1IU9__closurePFvNS_15DelphiInterfaceIN10Umodulelib15IRequestContextEEEEE11TStringItemEE11LastIndexOfERKSD_
 0005:00002F10       uMVCLite.$pdata$_ZN6System8Generics11Collections8TList__1IN7Strlist14TStringList__1IU9__closurePFvNS_15DelphiInterfaceIN10Umodulelib15IRequestContextEEEEE11TStringItemEE11SetCapacityEi
 0005:00002F70       uMVCLite.$pdata$_ZN6System8Generics11Collections8TList__1IN7Strlist14TStringList__1IU9__closurePFvNS_15DelphiInterfaceIN10Umodulelib15IRequestContextEEEEE11TStringItemEE11SetOnNotifyEU9__closurePFvPNS_7TObjectERKSD_NS1_23TCollectionNotificationEE
 0005:000032E8       uMVCLite.$pdata$_ZN6System8Generics11Collections8TList__1IN7Strlist14TStringList__1IU9__closurePFvNS_15DelphiInterfaceIN10Umodulelib15IRequestContextEEEEE11TStringItemEE11TEnumerator10DoMoveNextEv
 0005:000032B8       uMVCLite.$pdata$_ZN6System8Generics11Collections8TList__1IN7Strlist14TStringList__1IU9__closurePFvNS_15DelphiInterfaceIN10Umodulelib15IRequestContextEEEEE11TStringItemEE11TEnumerator10GetCurrentEv
 0005:000032C4       uMVCLite.$pdata$_ZN6System8Generics11Collections8TList__1IN7Strlist14TStringList__1IU9__closurePFvNS_15DelphiInterfaceIN10Umodulelib15IRequestContextEEEEE11TStringItemEE11TEnumerator12DoGetCurrentEv
 0005:0000330C       uMVCLite.$pdata$_ZN6System8Generics11Collections8TList__1IN7Strlist14TStringList__1IU9__closurePFvNS_15DelphiInterfaceIN10Umodulelib15IRequestContextEEEEE11TStringItemEE11TEnumerator8MoveNextEv
 0005:000032F4       uMVCLite.$pdata$_ZN6System8Generics11Collections8TList__1IN7Strlist14TStringList__1IU9__closurePFvNS_15DelphiInterfaceIN10Umodulelib15IRequestContextEEEEE11TStringItemEE11TEnumeratorC3EPSE_
 0005:00003270       uMVCLite.$pdata$_ZN6System8Generics11Collections8TList__1IN7Strlist14TStringList__1IU9__closurePFvNS_15DelphiInterfaceIN10Umodulelib15IRequestContextEEEEE11TStringItemEE12BinarySearchERKSD_Ri
 0005:0000327C       uMVCLite.$pdata$_ZN6System8Generics11Collections8TList__1IN7Strlist14TStringList__1IU9__closurePFvNS_15DelphiInterfaceIN10Umodulelib15IRequestContextEEEEE11TStringItemEE12BinarySearchERKSD_RiNS5_INS0_8Defaults12IComparer__1ISD_EEEE
 0005:00003288       uMVCLite.$pdata$_ZN6System8Generics11Collections8TList__1IN7Strlist14TStringList__1IU9__closurePFvNS_15DelphiInterfaceIN10Umodulelib15IRequestContextEEEEE11TStringItemEE12BinarySearchERKSD_RiNS5_INS0_8Defaults12IComparer__1ISD_EEEEii
 0005:00002F64       uMVCLite.$pdata$_ZN6System8Generics11Collections8TList__1IN7Strlist14TStringList__1IU9__closurePFvNS_15DelphiInterfaceIN10Umodulelib15IRequestContextEEEEE11TStringItemEE12UpdateNotifyEv
 0005:000032AC       uMVCLite.$pdata$_ZN6System8Generics11Collections8TList__1IN7Strlist14TStringList__1IU9__closurePFvNS_15DelphiInterfaceIN10Umodulelib15IRequestContextEEEEE11TStringItemEE13GetEnumeratorEv
 0005:00002F58       uMVCLite.$pdata$_ZN6System8Generics11Collections8TList__1IN7Strlist14TStringList__1IU9__closurePFvNS_15DelphiInterfaceIN10Umodulelib15IRequestContextEEEEE11TStringItemEE14InternalNotifyEPKvNS1_23TCollectionNotificationE
 0005:00002F88       uMVCLite.$pdata$_ZN6System8Generics11Collections8TList__1IN7Strlist14TStringList__1IU9__closurePFvNS_15DelphiInterfaceIN10Umodulelib15IRequestContextEEEEE11TStringItemEE14UpdateComparerENS5_INS0_8Defaults12IComparer__1ISD_EEEE
 0005:00002FA0       uMVCLite.$pdata$_ZN6System8Generics11Collections8TList__1IN7Strlist14TStringList__1IU9__closurePFvNS_15DelphiInterfaceIN10Umodulelib15IRequestContextEEEEE11TStringItemEE15DoGetEnumeratorEv
 0005:00002F7C       uMVCLite.$pdata$_ZN6System8Generics11Collections8TList__1IN7Strlist14TStringList__1IU9__closurePFvNS_15DelphiInterfaceIN10Umodulelib15IRequestContextEEEEE11TStringItemEE15InternalCompareEPKvSG_
 0005:00003048       uMVCLite.$pdata$_ZN6System8Generics11Collections8TList__1IN7Strlist14TStringList__1IU9__closurePFvNS_15DelphiInterfaceIN10Umodulelib15IRequestContextEEEEE11TStringItemEE3AddERKSD_
 0005:000031D4       uMVCLite.$pdata$_ZN6System8Generics11Collections8TList__1IN7Strlist14TStringList__1IU9__closurePFvNS_15DelphiInterfaceIN10Umodulelib15IRequestContextEEEEE11TStringItemEE4LastEv
 0005:000031A4       uMVCLite.$pdata$_ZN6System8Generics11Collections8TList__1IN7Strlist14TStringList__1IU9__closurePFvNS_15DelphiInterfaceIN10Umodulelib15IRequestContextEEEEE11TStringItemEE4MoveEii
 0005:000030FC       uMVCLite.$pdata$_ZN6System8Generics11Collections8TList__1IN7Strlist14TStringList__1IU9__closurePFvNS_15DelphiInterfaceIN10Umodulelib15IRequestContextEEEEE11TStringItemEE4PackENS5_INSE_10TEmptyFuncEEE
 0005:000030E4       uMVCLite.$pdata$_ZN6System8Generics11Collections8TList__1IN7Strlist14TStringList__1IU9__closurePFvNS_15DelphiInterfaceIN10Umodulelib15IRequestContextEEEEE11TStringItemEE4PackEv
 0005:00003258       uMVCLite.$pdata$_ZN6System8Generics11Collections8TList__1IN7Strlist14TStringList__1IU9__closurePFvNS_15DelphiInterfaceIN10Umodulelib15IRequestContextEEEEE11TStringItemEE4SortENS5_INS0_8Defaults12IComparer__1ISD_EEEE
 0005:00003264       uMVCLite.$pdata$_ZN6System8Generics11Collections8TList__1IN7Strlist14TStringList__1IU9__closurePFvNS_15DelphiInterfaceIN10Umodulelib15IRequestContextEEEEE11TStringItemEE4SortENS5_INS0_8Defaults12IComparer__1ISD_EEEEii
 0005:0000324C       uMVCLite.$pdata$_ZN6System8Generics11Collections8TList__1IN7Strlist14TStringList__1IU9__closurePFvNS_15DelphiInterfaceIN10Umodulelib15IRequestContextEEEEE11TStringItemEE4SortEv
 0005:000031F8       uMVCLite.$pdata$_ZN6System8Generics11Collections8TList__1IN7Strlist14TStringList__1IU9__closurePFvNS_15DelphiInterfaceIN10Umodulelib15IRequestContextEEEEE11TStringItemEE5ClearEv
 0005:00003024       uMVCLite.$pdata$_ZN6System8Generics11Collections8TList__1IN7Strlist14TStringList__1IU9__closurePFvNS_15DelphiInterfaceIN10Umodulelib15IRequestContextEEEEE11TStringItemEE5ErrorENS_13UnicodeStringEx
 0005:00003030       uMVCLite.$pdata$_ZN6System8Generics11Collections8TList__1IN7Strlist14TStringList__1IU9__closurePFvNS_15DelphiInterfaceIN10Umodulelib15IRequestContextEEEEE11TStringItemEE5ErrorEPNS_13TResStringRecEx
 0005:000031B0       uMVCLite.$pdata$_ZN6System8Generics11Collections8TList__1IN7Strlist14TStringList__1IU9__closurePFvNS_15DelphiInterfaceIN10Umodulelib15IRequestContextEEEEE11TStringItemEE5FirstEv
 0005:0000312C       uMVCLite.$pdata$_ZN6System8Generics11Collections8TList__1IN7Strlist14TStringList__1IU9__closurePFvNS_15DelphiInterfaceIN10Umodulelib15IRequestContextEEEEE11TStringItemEE6DeleteEi
 0005:00003204       uMVCLite.$pdata$_ZN6System8Generics11Collections8TList__1IN7Strlist14TStringList__1IU9__closurePFvNS_15DelphiInterfaceIN10Umodulelib15IRequestContextEEEEE11TStringItemEE6ExpandEv
 0005:00003078       uMVCLite.$pdata$_ZN6System8Generics11Collections8TList__1IN7Strlist14TStringList__1IU9__closurePFvNS_15DelphiInterfaceIN10Umodulelib15IRequestContextEEEEE11TStringItemEE6InsertEiRKSD_
 0005:00002FAC       uMVCLite.$pdata$_ZN6System8Generics11Collections8TList__1IN7Strlist14TStringList__1IU9__closurePFvNS_15DelphiInterfaceIN10Umodulelib15IRequestContextEEEEE11TStringItemEE6NotifyERKSD_NS1_23TCollectionNotificationE
 0005:00003114       uMVCLite.$pdata$_ZN6System8Generics11Collections8TList__1IN7Strlist14TStringList__1IU9__closurePFvNS_15DelphiInterfaceIN10Umodulelib15IRequestContextEEEEE11TStringItemEE6RemoveERKSD_
 0005:00003150       uMVCLite.$pdata$_ZN6System8Generics11Collections8TList__1IN7Strlist14TStringList__1IU9__closurePFvNS_15DelphiInterfaceIN10Umodulelib15IRequestContextEEEEE11TStringItemEE7ExtractERKSD_
 0005:00002F28       uMVCLite.$pdata$_ZN6System8Generics11Collections8TList__1IN7Strlist14TStringList__1IU9__closurePFvNS_15DelphiInterfaceIN10Umodulelib15IRequestContextEEEEE11TStringItemEE7GetItemEi
 0005:00002EEC       uMVCLite.$pdata$_ZN6System8Generics11Collections8TList__1IN7Strlist14TStringList__1IU9__closurePFvNS_15DelphiInterfaceIN10Umodulelib15IRequestContextEEEEE11TStringItemEE7GetListEv
 0005:0000321C       uMVCLite.$pdata$_ZN6System8Generics11Collections8TList__1IN7Strlist14TStringList__1IU9__closurePFvNS_15DelphiInterfaceIN10Umodulelib15IRequestContextEEEEE11TStringItemEE7IndexOfERKSD_
 0005:00003240       uMVCLite.$pdata$_ZN6System8Generics11Collections8TList__1IN7Strlist14TStringList__1IU9__closurePFvNS_15DelphiInterfaceIN10Umodulelib15IRequestContextEEEEE11TStringItemEE7ReverseEv
 0005:00002F34       uMVCLite.$pdata$_ZN6System8Generics11Collections8TList__1IN7Strlist14TStringList__1IU9__closurePFvNS_15DelphiInterfaceIN10Umodulelib15IRequestContextEEEEE11TStringItemEE7SetItemEiRKSD_
 0005:000032A0       uMVCLite.$pdata$_ZN6System8Generics11Collections8TList__1IN7Strlist14TStringList__1IU9__closurePFvNS_15DelphiInterfaceIN10Umodulelib15IRequestContextEEEEE11TStringItemEE7ToArrayEv
 0005:00003060       uMVCLite.$pdata$_ZN6System8Generics11Collections8TList__1IN7Strlist14TStringList__1IU9__closurePFvNS_15DelphiInterfaceIN10Umodulelib15IRequestContextEEEEE11TStringItemEE8AddRangeENS5_INS_14IEnumerable__1ISD_EEEE
 0005:00003054       uMVCLite.$pdata$_ZN6System8Generics11Collections8TList__1IN7Strlist14TStringList__1IU9__closurePFvNS_15DelphiInterfaceIN10Umodulelib15IRequestContextEEEEE11TStringItemEE8AddRangeEPKSD_i
 0005:0000306C       uMVCLite.$pdata$_ZN6System8Generics11Collections8TList__1IN7Strlist14TStringList__1IU9__closurePFvNS_15DelphiInterfaceIN10Umodulelib15IRequestContextEEEEE11TStringItemEE8AddRangeEPNS1_14TEnumerable__1ISD_EE
 0005:00003210       uMVCLite.$pdata$_ZN6System8Generics11Collections8TList__1IN7Strlist14TStringList__1IU9__closurePFvNS_15DelphiInterfaceIN10Umodulelib15IRequestContextEEEEE11TStringItemEE8ContainsERKSD_
 0005:00002F4C       uMVCLite.$pdata$_ZN6System8Generics11Collections8TList__1IN7Strlist14TStringList__1IU9__closurePFvNS_15DelphiInterfaceIN10Umodulelib15IRequestContextEEEEE11TStringItemEE8DoDeleteEiNS1_23TCollectionNotificationE
 0005:00003198       uMVCLite.$pdata$_ZN6System8Generics11Collections8TList__1IN7Strlist14TStringList__1IU9__closurePFvNS_15DelphiInterfaceIN10Umodulelib15IRequestContextEEEEE11TStringItemEE8ExchangeEii
 0005:00002EF8       uMVCLite.$pdata$_ZN6System8Generics11Collections8TList__1IN7Strlist14TStringList__1IU9__closurePFvNS_15DelphiInterfaceIN10Umodulelib15IRequestContextEEEEE11TStringItemEE8GetPListEv
 0005:00002F1C       uMVCLite.$pdata$_ZN6System8Generics11Collections8TList__1IN7Strlist14TStringList__1IU9__closurePFvNS_15DelphiInterfaceIN10Umodulelib15IRequestContextEEEEE11TStringItemEE8SetCountEi
 0005:00003174       uMVCLite.$pdata$_ZN6System8Generics11Collections8TList__1IN7Strlist14TStringList__1IU9__closurePFvNS_15DelphiInterfaceIN10Umodulelib15IRequestContextEEEEE11TStringItemEE9ExtractAtEi
 0005:00002F40       uMVCLite.$pdata$_ZN6System8Generics11Collections8TList__1IN7Strlist14TStringList__1IU9__closurePFvNS_15DelphiInterfaceIN10Umodulelib15IRequestContextEEEEE11TStringItemEE9GrowCheckEi
 0005:00002F94       uMVCLite.$pdata$_ZN6System8Generics11Collections8TList__1IN7Strlist14TStringList__1IU9__closurePFvNS_15DelphiInterfaceIN10Umodulelib15IRequestContextEEEEE11TStringItemEE9ItemValueERKSD_
 0005:00002FD0       uMVCLite.$pdata$_ZN6System8Generics11Collections8TList__1IN7Strlist14TStringList__1IU9__closurePFvNS_15DelphiInterfaceIN10Umodulelib15IRequestContextEEEEE11TStringItemEEC3ENS5_INS0_8Defaults12IComparer__1ISD_EEEE
 0005:00003000       uMVCLite.$pdata$_ZN6System8Generics11Collections8TList__1IN7Strlist14TStringList__1IU9__closurePFvNS_15DelphiInterfaceIN10Umodulelib15IRequestContextEEEEE11TStringItemEEC3EPKSD_i
 0005:00002FE8       uMVCLite.$pdata$_ZN6System8Generics11Collections8TList__1IN7Strlist14TStringList__1IU9__closurePFvNS_15DelphiInterfaceIN10Umodulelib15IRequestContextEEEEE11TStringItemEEC3EPNS1_14TEnumerable__1ISD_EE
 0005:00002FB8       uMVCLite.$pdata$_ZN6System8Generics11Collections8TList__1IN7Strlist14TStringList__1IU9__closurePFvNS_15DelphiInterfaceIN10Umodulelib15IRequestContextEEEEE11TStringItemEEC3Ev
 0005:00003018       uMVCLite.$pdata$_ZN6System8Generics11Collections8TList__1IN7Strlist14TStringList__1IU9__closurePFvNS_15DelphiInterfaceIN10Umodulelib15IRequestContextEEEEE11TStringItemEED0Ev
 0005:00003720       uMVCLite.$pdata$_ZN6System8Generics11Collections8TList__1INS_15DelphiInterfaceIN10Umodulelib10IMVCRouterEEEE10RemoveItemES6_NS_5Types10TDirectionE
 0005:00003894       uMVCLite.$pdata$_ZN6System8Generics11Collections8TList__1INS_15DelphiInterfaceIN10Umodulelib10IMVCRouterEEEE10TrimExcessEv
 0005:00003738       uMVCLite.$pdata$_ZN6System8Generics11Collections8TList__1INS_15DelphiInterfaceIN10Umodulelib10IMVCRouterEEEE11DeleteRangeEii
 0005:00003744       uMVCLite.$pdata$_ZN6System8Generics11Collections8TList__1INS_15DelphiInterfaceIN10Umodulelib10IMVCRouterEEEE11ExtractItemES6_NS_5Types10TDirectionE
 0005:000034E0       uMVCLite.$pdata$_ZN6System8Generics11Collections8TList__1INS_15DelphiInterfaceIN10Umodulelib10IMVCRouterEEEE11FListHelperEv
 0005:00003504       uMVCLite.$pdata$_ZN6System8Generics11Collections8TList__1INS_15DelphiInterfaceIN10Umodulelib10IMVCRouterEEEE11GetCapacityEv
 0005:00003828       uMVCLite.$pdata$_ZN6System8Generics11Collections8TList__1INS_15DelphiInterfaceIN10Umodulelib10IMVCRouterEEEE11IndexOfItemES6_NS_5Types10TDirectionE
 0005:0000369C       uMVCLite.$pdata$_ZN6System8Generics11Collections8TList__1INS_15DelphiInterfaceIN10Umodulelib10IMVCRouterEEEE11InsertRangeEiNS3_INS_14IEnumerable__1IS6_EEEE
 0005:00003690       uMVCLite.$pdata$_ZN6System8Generics11Collections8TList__1INS_15DelphiInterfaceIN10Umodulelib10IMVCRouterEEEE11InsertRangeEiPKS6_i
 0005:00003684       uMVCLite.$pdata$_ZN6System8Generics11Collections8TList__1INS_15DelphiInterfaceIN10Umodulelib10IMVCRouterEEEE11InsertRangeEiPKS6_ii
 0005:000036C0       uMVCLite.$pdata$_ZN6System8Generics11Collections8TList__1INS_15DelphiInterfaceIN10Umodulelib10IMVCRouterEEEE11InsertRangeEiPNS1_14TEnumerable__1IS6_EE
 0005:00003834       uMVCLite.$pdata$_ZN6System8Generics11Collections8TList__1INS_15DelphiInterfaceIN10Umodulelib10IMVCRouterEEEE11LastIndexOfES6_
 0005:00003510       uMVCLite.$pdata$_ZN6System8Generics11Collections8TList__1INS_15DelphiInterfaceIN10Umodulelib10IMVCRouterEEEE11SetCapacityEi
 0005:00003570       uMVCLite.$pdata$_ZN6System8Generics11Collections8TList__1INS_15DelphiInterfaceIN10Umodulelib10IMVCRouterEEEE11SetOnNotifyEU9__closurePFvPNS_7TObjectES6_NS1_23TCollectionNotificationEE
 0005:000038E8       uMVCLite.$pdata$_ZN6System8Generics11Collections8TList__1INS_15DelphiInterfaceIN10Umodulelib10IMVCRouterEEEE11TEnumerator10DoMoveNextEv
 0005:000038B8       uMVCLite.$pdata$_ZN6System8Generics11Collections8TList__1INS_15DelphiInterfaceIN10Umodulelib10IMVCRouterEEEE11TEnumerator10GetCurrentEv
 0005:000038C4       uMVCLite.$pdata$_ZN6System8Generics11Collections8TList__1INS_15DelphiInterfaceIN10Umodulelib10IMVCRouterEEEE11TEnumerator12DoGetCurrentEv
 0005:0000390C       uMVCLite.$pdata$_ZN6System8Generics11Collections8TList__1INS_15DelphiInterfaceIN10Umodulelib10IMVCRouterEEEE11TEnumerator8MoveNextEv
 0005:000038F4       uMVCLite.$pdata$_ZN6System8Generics11Collections8TList__1INS_15DelphiInterfaceIN10Umodulelib10IMVCRouterEEEE11TEnumeratorC3EPS7_
 0005:00003870       uMVCLite.$pdata$_ZN6System8Generics11Collections8TList__1INS_15DelphiInterfaceIN10Umodulelib10IMVCRouterEEEE12BinarySearchES6_Ri
 0005:0000387C       uMVCLite.$pdata$_ZN6System8Generics11Collections8TList__1INS_15DelphiInterfaceIN10Umodulelib10IMVCRouterEEEE12BinarySearchES6_RiNS3_INS0_8Defaults12IComparer__1IS6_EEEE
 0005:00003888       uMVCLite.$pdata$_ZN6System8Generics11Collections8TList__1INS_15DelphiInterfaceIN10Umodulelib10IMVCRouterEEEE12BinarySearchES6_RiNS3_INS0_8Defaults12IComparer__1IS6_EEEEii
 0005:00003564       uMVCLite.$pdata$_ZN6System8Generics11Collections8TList__1INS_15DelphiInterfaceIN10Umodulelib10IMVCRouterEEEE12UpdateNotifyEv
 0005:000038AC       uMVCLite.$pdata$_ZN6System8Generics11Collections8TList__1INS_15DelphiInterfaceIN10Umodulelib10IMVCRouterEEEE13GetEnumeratorEv
 0005:00003558       uMVCLite.$pdata$_ZN6System8Generics11Collections8TList__1INS_15DelphiInterfaceIN10Umodulelib10IMVCRouterEEEE14InternalNotifyEPKvNS1_23TCollectionNotificationE
 0005:00003588       uMVCLite.$pdata$_ZN6System8Generics11Collections8TList__1INS_15DelphiInterfaceIN10Umodulelib10IMVCRouterEEEE14UpdateComparerENS3_INS0_8Defaults12IComparer__1IS6_EEEE
 0005:000035A0       uMVCLite.$pdata$_ZN6System8Generics11Collections8TList__1INS_15DelphiInterfaceIN10Umodulelib10IMVCRouterEEEE15DoGetEnumeratorEv
 0005:0000357C       uMVCLite.$pdata$_ZN6System8Generics11Collections8TList__1INS_15DelphiInterfaceIN10Umodulelib10IMVCRouterEEEE15InternalCompareEPKvS9_
 0005:00003648       uMVCLite.$pdata$_ZN6System8Generics11Collections8TList__1INS_15DelphiInterfaceIN10Umodulelib10IMVCRouterEEEE3AddES6_
 0005:000037D4       uMVCLite.$pdata$_ZN6System8Generics11Collections8TList__1INS_15DelphiInterfaceIN10Umodulelib10IMVCRouterEEEE4LastEv
 0005:000037A4       uMVCLite.$pdata$_ZN6System8Generics11Collections8TList__1INS_15DelphiInterfaceIN10Umodulelib10IMVCRouterEEEE4MoveEii
 0005:000036FC       uMVCLite.$pdata$_ZN6System8Generics11Collections8TList__1INS_15DelphiInterfaceIN10Umodulelib10IMVCRouterEEEE4PackENS3_INS7_10TEmptyFuncEEE
 0005:000036E4       uMVCLite.$pdata$_ZN6System8Generics11Collections8TList__1INS_15DelphiInterfaceIN10Umodulelib10IMVCRouterEEEE4PackEv
 0005:00003858       uMVCLite.$pdata$_ZN6System8Generics11Collections8TList__1INS_15DelphiInterfaceIN10Umodulelib10IMVCRouterEEEE4SortENS3_INS0_8Defaults12IComparer__1IS6_EEEE
 0005:00003864       uMVCLite.$pdata$_ZN6System8Generics11Collections8TList__1INS_15DelphiInterfaceIN10Umodulelib10IMVCRouterEEEE4SortENS3_INS0_8Defaults12IComparer__1IS6_EEEEii
 0005:0000384C       uMVCLite.$pdata$_ZN6System8Generics11Collections8TList__1INS_15DelphiInterfaceIN10Umodulelib10IMVCRouterEEEE4SortEv
 0005:000037F8       uMVCLite.$pdata$_ZN6System8Generics11Collections8TList__1INS_15DelphiInterfaceIN10Umodulelib10IMVCRouterEEEE5ClearEv
 0005:00003624       uMVCLite.$pdata$_ZN6System8Generics11Collections8TList__1INS_15DelphiInterfaceIN10Umodulelib10IMVCRouterEEEE5ErrorENS_13UnicodeStringEx
 0005:00003630       uMVCLite.$pdata$_ZN6System8Generics11Collections8TList__1INS_15DelphiInterfaceIN10Umodulelib10IMVCRouterEEEE5ErrorEPNS_13TResStringRecEx
 0005:000037B0       uMVCLite.$pdata$_ZN6System8Generics11Collections8TList__1INS_15DelphiInterfaceIN10Umodulelib10IMVCRouterEEEE5FirstEv
 0005:0000372C       uMVCLite.$pdata$_ZN6System8Generics11Collections8TList__1INS_15DelphiInterfaceIN10Umodulelib10IMVCRouterEEEE6DeleteEi
 0005:00003804       uMVCLite.$pdata$_ZN6System8Generics11Collections8TList__1INS_15DelphiInterfaceIN10Umodulelib10IMVCRouterEEEE6ExpandEv
 0005:00003678       uMVCLite.$pdata$_ZN6System8Generics11Collections8TList__1INS_15DelphiInterfaceIN10Umodulelib10IMVCRouterEEEE6InsertEiS6_
 0005:000035AC       uMVCLite.$pdata$_ZN6System8Generics11Collections8TList__1INS_15DelphiInterfaceIN10Umodulelib10IMVCRouterEEEE6NotifyES6_NS1_23TCollectionNotificationE
 0005:00003714       uMVCLite.$pdata$_ZN6System8Generics11Collections8TList__1INS_15DelphiInterfaceIN10Umodulelib10IMVCRouterEEEE6RemoveES6_
 0005:00003750       uMVCLite.$pdata$_ZN6System8Generics11Collections8TList__1INS_15DelphiInterfaceIN10Umodulelib10IMVCRouterEEEE7ExtractES6_
 0005:00003528       uMVCLite.$pdata$_ZN6System8Generics11Collections8TList__1INS_15DelphiInterfaceIN10Umodulelib10IMVCRouterEEEE7GetItemEi
 0005:000034EC       uMVCLite.$pdata$_ZN6System8Generics11Collections8TList__1INS_15DelphiInterfaceIN10Umodulelib10IMVCRouterEEEE7GetListEv
 0005:0000381C       uMVCLite.$pdata$_ZN6System8Generics11Collections8TList__1INS_15DelphiInterfaceIN10Umodulelib10IMVCRouterEEEE7IndexOfES6_
 0005:00003840       uMVCLite.$pdata$_ZN6System8Generics11Collections8TList__1INS_15DelphiInterfaceIN10Umodulelib10IMVCRouterEEEE7ReverseEv
 0005:00003534       uMVCLite.$pdata$_ZN6System8Generics11Collections8TList__1INS_15DelphiInterfaceIN10Umodulelib10IMVCRouterEEEE7SetItemEiS6_
 0005:000038A0       uMVCLite.$pdata$_ZN6System8Generics11Collections8TList__1INS_15DelphiInterfaceIN10Umodulelib10IMVCRouterEEEE7ToArrayEv
 0005:00003660       uMVCLite.$pdata$_ZN6System8Generics11Collections8TList__1INS_15DelphiInterfaceIN10Umodulelib10IMVCRouterEEEE8AddRangeENS3_INS_14IEnumerable__1IS6_EEEE
 0005:00003654       uMVCLite.$pdata$_ZN6System8Generics11Collections8TList__1INS_15DelphiInterfaceIN10Umodulelib10IMVCRouterEEEE8AddRangeEPKS6_i
 0005:0000366C       uMVCLite.$pdata$_ZN6System8Generics11Collections8TList__1INS_15DelphiInterfaceIN10Umodulelib10IMVCRouterEEEE8AddRangeEPNS1_14TEnumerable__1IS6_EE
 0005:00003810       uMVCLite.$pdata$_ZN6System8Generics11Collections8TList__1INS_15DelphiInterfaceIN10Umodulelib10IMVCRouterEEEE8ContainsES6_
 0005:0000354C       uMVCLite.$pdata$_ZN6System8Generics11Collections8TList__1INS_15DelphiInterfaceIN10Umodulelib10IMVCRouterEEEE8DoDeleteEiNS1_23TCollectionNotificationE
 0005:00003798       uMVCLite.$pdata$_ZN6System8Generics11Collections8TList__1INS_15DelphiInterfaceIN10Umodulelib10IMVCRouterEEEE8ExchangeEii
 0005:000034F8       uMVCLite.$pdata$_ZN6System8Generics11Collections8TList__1INS_15DelphiInterfaceIN10Umodulelib10IMVCRouterEEEE8GetPListEv
 0005:0000351C       uMVCLite.$pdata$_ZN6System8Generics11Collections8TList__1INS_15DelphiInterfaceIN10Umodulelib10IMVCRouterEEEE8SetCountEi
 0005:00003774       uMVCLite.$pdata$_ZN6System8Generics11Collections8TList__1INS_15DelphiInterfaceIN10Umodulelib10IMVCRouterEEEE9ExtractAtEi
 0005:00003540       uMVCLite.$pdata$_ZN6System8Generics11Collections8TList__1INS_15DelphiInterfaceIN10Umodulelib10IMVCRouterEEEE9GrowCheckEi
 0005:00003594       uMVCLite.$pdata$_ZN6System8Generics11Collections8TList__1INS_15DelphiInterfaceIN10Umodulelib10IMVCRouterEEEE9ItemValueES6_
 0005:000035D0       uMVCLite.$pdata$_ZN6System8Generics11Collections8TList__1INS_15DelphiInterfaceIN10Umodulelib10IMVCRouterEEEEC3ENS3_INS0_8Defaults12IComparer__1IS6_EEEE
 0005:00003600       uMVCLite.$pdata$_ZN6System8Generics11Collections8TList__1INS_15DelphiInterfaceIN10Umodulelib10IMVCRouterEEEEC3EPKS6_i
 0005:000035E8       uMVCLite.$pdata$_ZN6System8Generics11Collections8TList__1INS_15DelphiInterfaceIN10Umodulelib10IMVCRouterEEEEC3EPNS1_14TEnumerable__1IS6_EE
 0005:000035B8       uMVCLite.$pdata$_ZN6System8Generics11Collections8TList__1INS_15DelphiInterfaceIN10Umodulelib10IMVCRouterEEEEC3Ev
 0005:00003618       uMVCLite.$pdata$_ZN6System8Generics11Collections8TList__1INS_15DelphiInterfaceIN10Umodulelib10IMVCRouterEEEED0Ev
 0005:0000393C       uMVCLite.$pdata$_ZN6System8Generics8Defaults12TComparer__1IN7Strlist14TStringList__1IU9__closurePFvNS_15DelphiInterfaceIN10Umodulelib15IRequestContextEEEEE11TStringItemEE8_DefaultEv
 0005:00003990       uMVCLite.$pdata$_ZN6System8Generics8Defaults12TComparer__1INS_15DelphiInterfaceIN10Umodulelib10IMVCRouterEEEE8_DefaultEv
 0005:00002DCC       uMVCLite.$pdata$_ZN7Strlist14TStringList__1IU9__closurePFvN6System15DelphiInterfaceIN10Umodulelib15IRequestContextEEEEE10InsertItemEiNS1_13UnicodeStringES8_
 0005:00002D54       uMVCLite.$pdata$_ZN7Strlist14TStringList__1IU9__closurePFvN6System15DelphiInterfaceIN10Umodulelib15IRequestContextEEEEE14CompareItemStrENS1_13UnicodeStringESA_
 0005:00002DF0       uMVCLite.$pdata$_ZN7Strlist14TStringList__1IU9__closurePFvN6System15DelphiInterfaceIN10Umodulelib15IRequestContextEEEEE16SetCaseSensitiveEb
 0005:00003930       uMVCLite.$pdata$_ZN7Strlist14TStringList__1IU9__closurePFvN6System15DelphiInterfaceIN10Umodulelib15IRequestContextEEEEE19TStringItemComparer7CompareERKNS9_11TStringItemESD_
 0005:00003918       uMVCLite.$pdata$_ZN7Strlist14TStringList__1IU9__closurePFvN6System15DelphiInterfaceIN10Umodulelib15IRequestContextEEEEE19TStringItemComparerC3Eb
 0005:00002E20       uMVCLite.$pdata$_ZN7Strlist14TStringList__1IU9__closurePFvN6System15DelphiInterfaceIN10Umodulelib15IRequestContextEEEEE3AddENS1_13UnicodeStringES8_
 0005:00002D60       uMVCLite.$pdata$_ZN7Strlist14TStringList__1IU9__closurePFvN6System15DelphiInterfaceIN10Umodulelib15IRequestContextEEEEE3GetEi
 0005:00002D90       uMVCLite.$pdata$_ZN7Strlist14TStringList__1IU9__closurePFvN6System15DelphiInterfaceIN10Umodulelib15IRequestContextEEEEE3PutEiNS1_13UnicodeStringE
 0005:00002E38       uMVCLite.$pdata$_ZN7Strlist14TStringList__1IU9__closurePFvN6System15DelphiInterfaceIN10Umodulelib15IRequestContextEEEEE4FindENS1_13UnicodeStringERi
 0005:00002E68       uMVCLite.$pdata$_ZN7Strlist14TStringList__1IU9__closurePFvN6System15DelphiInterfaceIN10Umodulelib15IRequestContextEEEEE4SortEv
 0005:00002E50       uMVCLite.$pdata$_ZN7Strlist14TStringList__1IU9__closurePFvN6System15DelphiInterfaceIN10Umodulelib15IRequestContextEEEEE7IndexOfENS1_13UnicodeStringE
 0005:00002DE4       uMVCLite.$pdata$_ZN7Strlist14TStringList__1IU9__closurePFvN6System15DelphiInterfaceIN10Umodulelib15IRequestContextEEEEE8GetCountEv
 0005:00002D78       uMVCLite.$pdata$_ZN7Strlist14TStringList__1IU9__closurePFvN6System15DelphiInterfaceIN10Umodulelib15IRequestContextEEEEE9GetObjectEi
 0005:00002DA8       uMVCLite.$pdata$_ZN7Strlist14TStringList__1IU9__closurePFvN6System15DelphiInterfaceIN10Umodulelib15IRequestContextEEEEE9PutObjectEiS8_
 0005:00002DC0       uMVCLite.$pdata$_ZN7Strlist14TStringList__1IU9__closurePFvN6System15DelphiInterfaceIN10Umodulelib15IRequestContextEEEEE9SetSortedEb
 0005:00002DFC       uMVCLite.$pdata$_ZN7Strlist14TStringList__1IU9__closurePFvN6System15DelphiInterfaceIN10Umodulelib15IRequestContextEEEEEC3Eb
 0005:00002E14       uMVCLite.$pdata$_ZN7Strlist14TStringList__1IU9__closurePFvN6System15DelphiInterfaceIN10Umodulelib15IRequestContextEEEEED0Ev
 0005:00002B2C       uMVCLite.$pdata$_ZN8Umvclite10TMVCModule13AddControllerEPN6System7TObjectE
 0005:00002B8C       uMVCLite.$pdata$_ZN8Umvclite10TMVCModule13GetRouterPathEv
 0005:00002B98       uMVCLite.$pdata$_ZN8Umvclite10TMVCModule14InitDependencyEv
 0005:00002BA4       uMVCLite.$pdata$_ZN8Umvclite10TMVCModule14InitMsgHandlerEN6System15DelphiInterfaceIN10Umodulelib12IPostMessageEEE
 0005:00002BE0       uMVCLite.$pdata$_ZN8Umvclite10TMVCModule14ProcessRequestEN6System13UnicodeStringENS1_15DelphiInterfaceIN10Umodulelib15IRequestContextEEEb
 0005:00002B5C       uMVCLite.$pdata$_ZN8Umvclite10TMVCModule15ClearDependencyEv
 0005:00002B44       uMVCLite.$pdata$_ZN8Umvclite10TMVCModule18AutoInitRouterPathEv
 0005:00002BD4       uMVCLite.$pdata$_ZN8Umvclite10TMVCModule20ProcessAsyncRequestsEv
 0005:00002BC8       uMVCLite.$pdata$_ZN8Umvclite10TMVCModule7ProcessEN6System13UnicodeStringES2_
 0005:00002BBC       uMVCLite.$pdata$_ZN8Umvclite10TMVCModule7ProcessEv
 0005:00002B68       uMVCLite.$pdata$_ZN8Umvclite10TMVCModuleC3EPN6System7TObjectE
 0005:00002B80       uMVCLite.$pdata$_ZN8Umvclite10TMVCModuleD0Ev
 0005:00002C88       uMVCLite.$pdata$_ZN8Umvclite10TMVCServer12NewMVCRouterEPN6System7TObjectE
 0005:00002C4C       uMVCLite.$pdata$_ZN8Umvclite10TMVCServer14InitDependencyEv
 0005:00002C64       uMVCLite.$pdata$_ZN8Umvclite10TMVCServer14InitMsgHandlerEN6System15DelphiInterfaceIN10Umodulelib12IPostMessageEEE
 0005:00002D0C       uMVCLite.$pdata$_ZN8Umvclite10TMVCServer14ProcessRequestEN6System13UnicodeStringENS1_15DelphiInterfaceIN10Umodulelib15IRequestContextEEEb
 0005:00002BF8       uMVCLite.$pdata$_ZN8Umvclite10TMVCServer15ClearDependencyEv
 0005:00002C7C       uMVCLite.$pdata$_ZN8Umvclite10TMVCServer16NewMVCControllerEPN6System7TObjectE
 0005:00002CAC       uMVCLite.$pdata$_ZN8Umvclite10TMVCServer20ProcessAsyncRequestsEv
 0005:00002D24       uMVCLite.$pdata$_ZN8Umvclite10TMVCServer3UseEN6System15DelphiInterfaceIN10Umodulelib10IMVCRouterEEE
 0005:00002CC4       uMVCLite.$pdata$_ZN8Umvclite10TMVCServer7ProcessEN6System13UnicodeStringES2_
 0005:00002C94       uMVCLite.$pdata$_ZN8Umvclite10TMVCServer7ProcessEv
 0005:00002C10       uMVCLite.$pdata$_ZN8Umvclite10TMVCServerC3Ev
 0005:00002C34       uMVCLite.$pdata$_ZN8Umvclite10TMVCServerD0Ev
 0005:00002D3C       uMVCLite.$pdata$_ZN8Umvclite12FinalizationEv
 0005:00002D48       uMVCLite.$pdata$_ZN8Umvclite14initializationEv
 0005:00002AC0       uMVCLite.$pdata$_ZN8Umvclite18TMVCRequestHandler12InnerProcessEPN6System7TObjectE
 0005:00002AA8       uMVCLite.$pdata$_ZN8Umvclite18TMVCRequestHandler12InnerProcessEPN6System7TObjectENS1_13UnicodeStringES4_
 0005:000029B8       uMVCLite.$pdata$_ZN8Umvclite18TMVCRequestHandler13AutoAddActionEPN6System7TObjectENS1_13UnicodeStringE
 0005:00002A00       uMVCLite.$pdata$_ZN8Umvclite18TMVCRequestHandler13ExecteCommandEN6System13UnicodeStringENS1_15DelphiInterfaceIN10Umodulelib15IRequestContextEEEb
 0005:00002A3C       uMVCLite.$pdata$_ZN8Umvclite18TMVCRequestHandler14InitDependencyEv
 0005:00002A48       uMVCLite.$pdata$_ZN8Umvclite18TMVCRequestHandler14InitMsgHandlerEN6System15DelphiInterfaceIN10Umodulelib12IPostMessageEEE
 0005:00002B14       uMVCLite.$pdata$_ZN8Umvclite18TMVCRequestHandler14ProcessRequestEN6System13UnicodeStringENS1_15DelphiInterfaceIN10Umodulelib15IRequestContextEEEb
 0005:000029D0       uMVCLite.$pdata$_ZN8Umvclite18TMVCRequestHandler15ClearDependencyEv
 0005:00002A24       uMVCLite.$pdata$_ZN8Umvclite18TMVCRequestHandler15GetRelativePathEPN6System7TObjectE
 0005:00002A78       uMVCLite.$pdata$_ZN8Umvclite18TMVCRequestHandler19InnerInitDependencyEPN6System7TObjectE
 0005:00002A90       uMVCLite.$pdata$_ZN8Umvclite18TMVCRequestHandler19InnerInitMsgHandlerEPN6System7TObjectENS1_15DelphiInterfaceIN10Umodulelib12IPostMessageEEE
 0005:00002A60       uMVCLite.$pdata$_ZN8Umvclite18TMVCRequestHandler20InnerClearDependencyEPN6System7TObjectE
 0005:00002AF0       uMVCLite.$pdata$_ZN8Umvclite18TMVCRequestHandler20ProcessAsyncRequestsEv
 0005:00002AE4       uMVCLite.$pdata$_ZN8Umvclite18TMVCRequestHandler7ProcessEN6System13UnicodeStringES2_
 0005:00002AD8       uMVCLite.$pdata$_ZN8Umvclite18TMVCRequestHandler7ProcessEv
 0005:000029A0       uMVCLite.$pdata$_ZN8Umvclite18TMVCRequestHandler9AddActionEN6System13UnicodeStringEU9__closurePFvNS1_15DelphiInterfaceIN10Umodulelib15IRequestContextEEEE
 0005:000029DC       uMVCLite.$pdata$_ZN8Umvclite18TMVCRequestHandlerC3EPN6System7TObjectE
 0005:000029F4       uMVCLite.$pdata$_ZN8Umvclite18TMVCRequestHandlerD0Ev
 0005:00002CDC       uMVCLite.$pdata$_ZZN8Umvclite10TMVCServer14ProcessRequestEN6System13UnicodeStringENS1_15DelphiInterfaceIN10Umodulelib15IRequestContextEEEbE11IsSubPathOfPvS2_S2_
 0005:00002CF4       uMVCLite.$pdata$_ZZN8Umvclite10TMVCServer14ProcessRequestEN6System13UnicodeStringENS1_15DelphiInterfaceIN10Umodulelib15IRequestContextEEEbE11RemoveQueryPvS2_
 0002:00004AC0       uMVCLite.$unwind$_ZN5Fslib8TFifo__1IPN8Umvclite19TContextRequestProcEE11TEnumerator10DoMoveNextEv
 0002:00004AB0       uMVCLite.$unwind$_ZN5Fslib8TFifo__1IPN8Umvclite19TContextRequestProcEE11TEnumerator10GetCurrentEv
 0002:00004ABC       uMVCLite.$unwind$_ZN5Fslib8TFifo__1IPN8Umvclite19TContextRequestProcEE11TEnumerator12DoGetCurrentEv
 0002:00004AC4       uMVCLite.$unwind$_ZN5Fslib8TFifo__1IPN8Umvclite19TContextRequestProcEE11TEnumerator8MoveNextEv
 0002:00004980       uMVCLite.$unwind$_ZN5Fslib8TFifo__1IPN8Umvclite19TContextRequestProcEE12NotifyDeleteES3_
 0002:00004AA8       uMVCLite.$unwind$_ZN5Fslib8TFifo__1IPN8Umvclite19TContextRequestProcEE13GetEnumeratorEv
 0002:00004978       uMVCLite.$unwind$_ZN5Fslib8TFifo__1IPN8Umvclite19TContextRequestProcEE15DoGetEnumeratorEv
 0002:00004A48       uMVCLite.$unwind$_ZN5Fslib8TFifo__1IPN8Umvclite19TContextRequestProcEE3PopERS3_
 0002:00004A78       uMVCLite.$unwind$_ZN5Fslib8TFifo__1IPN8Umvclite19TContextRequestProcEE4PeekERS3_
 0002:00004A18       uMVCLite.$unwind$_ZN5Fslib8TFifo__1IPN8Umvclite19TContextRequestProcEE4PushES3_
 0002:000049FC       uMVCLite.$unwind$_ZN5Fslib8TFifo__1IPN8Umvclite19TContextRequestProcEE5ClearEb
 0002:000049CC       uMVCLite.$unwind$_ZN5Fslib8TFifo__1IPN8Umvclite19TContextRequestProcEE5ClearEv
 0002:00004A0C       uMVCLite.$unwind$_ZN5Fslib8TFifo__1IPN8Umvclite19TContextRequestProcEE5EmptyEv
 0002:00004A04       uMVCLite.$unwind$_ZN5Fslib8TFifo__1IPN8Umvclite19TContextRequestProcEE7DequeueERS3_
 0002:00004A10       uMVCLite.$unwind$_ZN5Fslib8TFifo__1IPN8Umvclite19TContextRequestProcEE7EnqueueES3_
 0002:00004984       uMVCLite.$unwind$_ZN5Fslib8TFifo__1IPN8Umvclite19TContextRequestProcEEC3Ev
 0002:000049C0       uMVCLite.$unwind$_ZN5Fslib8TFifo__1IPN8Umvclite19TContextRequestProcEED0Ev
 0002:000042AC       uMVCLite.$unwind$_ZN6System8Generics11Collections14TEnumerable__1IN7Strlist14TStringList__1IU9__closurePFvNS_15DelphiInterfaceIN10Umodulelib15IRequestContextEEEEE11TStringItemEE11ToArrayImplEi
 0002:00004304       uMVCLite.$unwind$_ZN6System8Generics11Collections14TEnumerable__1IN7Strlist14TStringList__1IU9__closurePFvNS_15DelphiInterfaceIN10Umodulelib15IRequestContextEEEEE11TStringItemEE13GetEnumeratorEv
 0002:0000430C       uMVCLite.$unwind$_ZN6System8Generics11Collections14TEnumerable__1IN7Strlist14TStringList__1IU9__closurePFvNS_15DelphiInterfaceIN10Umodulelib15IRequestContextEEEEE11TStringItemEE7ToArrayEv
 0002:000042F8       uMVCLite.$unwind$_ZN6System8Generics11Collections14TEnumerable__1IN7Strlist14TStringList__1IU9__closurePFvNS_15DelphiInterfaceIN10Umodulelib15IRequestContextEEEEE11TStringItemEED0Ev
 0002:00004ACC       uMVCLite.$unwind$_ZN6System8Generics11Collections14TEnumerable__1INS_15DelphiInterfaceIN10Umodulelib10IMVCRouterEEEE11ToArrayImplEi
 0002:00004B24       uMVCLite.$unwind$_ZN6System8Generics11Collections14TEnumerable__1INS_15DelphiInterfaceIN10Umodulelib10IMVCRouterEEEE13GetEnumeratorEv
 0002:00004B2C       uMVCLite.$unwind$_ZN6System8Generics11Collections14TEnumerable__1INS_15DelphiInterfaceIN10Umodulelib10IMVCRouterEEEE7ToArrayEv
 0002:00004B18       uMVCLite.$unwind$_ZN6System8Generics11Collections14TEnumerable__1INS_15DelphiInterfaceIN10Umodulelib10IMVCRouterEEEED0Ev
 0002:000048FC       uMVCLite.$unwind$_ZN6System8Generics11Collections14TEnumerable__1IPN8Umvclite19TContextRequestProcEE11ToArrayImplEi
 0002:00004938       uMVCLite.$unwind$_ZN6System8Generics11Collections14TEnumerable__1IPN8Umvclite19TContextRequestProcEE13GetEnumeratorEv
 0002:00004940       uMVCLite.$unwind$_ZN6System8Generics11Collections14TEnumerable__1IPN8Umvclite19TContextRequestProcEE7ToArrayEv
 0002:0000492C       uMVCLite.$unwind$_ZN6System8Generics11Collections14TEnumerable__1IPN8Umvclite19TContextRequestProcEED0Ev
 0002:00004358       uMVCLite.$unwind$_ZN6System8Generics11Collections14TEnumerator__1IN7Strlist14TStringList__1IU9__closurePFvNS_15DelphiInterfaceIN10Umodulelib15IRequestContextEEEEE11TStringItemEE8MoveNextEv
 0002:00004B78       uMVCLite.$unwind$_ZN6System8Generics11Collections14TEnumerator__1INS_15DelphiInterfaceIN10Umodulelib10IMVCRouterEEEE8MoveNextEv
 0002:00004970       uMVCLite.$unwind$_ZN6System8Generics11Collections14TEnumerator__1IPN8Umvclite19TContextRequestProcEE8MoveNextEv
 0002:000051B0       uMVCLite.$unwind$_ZN6System8Generics11Collections24@TList__1_Pack_0__ActRecIN7Strlist14TStringList__1IU9__closurePFvNS_15DelphiInterfaceIN10Umodulelib15IRequestContextEEEEE11TStringItemEE7_0_BodyEPKv
 0002:0000520C       uMVCLite.$unwind$_ZN6System8Generics11Collections24@TList__1_Pack_0__ActRecINS_15DelphiInterfaceIN10Umodulelib10IMVCRouterEEEE7_0_BodyEPKv
 0002:00005180       uMVCLite.$unwind$_ZN6System8Generics11Collections24@TList__1_Pack_1__ActRecIN7Strlist14TStringList__1IU9__closurePFvNS_15DelphiInterfaceIN10Umodulelib15IRequestContextEEEEE11TStringItemEE7_0_BodyEPKv
 0002:00005204       uMVCLite.$unwind$_ZN6System8Generics11Collections24@TList__1_Pack_1__ActRecINS_15DelphiInterfaceIN10Umodulelib10IMVCRouterEEEE7_0_BodyEPKv
 0002:000051EC       uMVCLite.$unwind$_ZN6System8Generics11Collections6TArray12BinarySearchIN7Strlist14TStringList__1IU9__closurePFvNS_15DelphiInterfaceIN10Umodulelib15IRequestContextEEEEE11TStringItemEEEbPKT_iSG_RiNS6_INS0_8Defaults12IComparer__1ISG_EEEEii
 0002:00005220       uMVCLite.$unwind$_ZN6System8Generics11Collections6TArray12BinarySearchINS_15DelphiInterfaceIN10Umodulelib10IMVCRouterEEEEEbPKT_iS9_RiNS4_INS0_8Defaults12IComparer__1IS9_EEEEii
 0002:000051E0       uMVCLite.$unwind$_ZN6System8Generics11Collections6TArray4SortIN7Strlist14TStringList__1IU9__closurePFvNS_15DelphiInterfaceIN10Umodulelib15IRequestContextEEEEE11TStringItemEEEvPT_iNS6_INS0_8Defaults12IComparer__1ISG_EEEEii
 0002:00005214       uMVCLite.$unwind$_ZN6System8Generics11Collections6TArray4SortINS_15DelphiInterfaceIN10Umodulelib10IMVCRouterEEEEEvPT_iNS4_INS0_8Defaults12IComparer__1IS9_EEEEii
 0002:00005230       uMVCLite.$unwind$_ZN6System8Generics11Collections6TArray9QuickSortIN7Strlist14TStringList__1IU9__closurePFvNS_15DelphiInterfaceIN10Umodulelib15IRequestContextEEEEE11TStringItemEEEvPT_iNS6_INS0_8Defaults12IComparer__1ISG_EEEEii
 0002:00005268       uMVCLite.$unwind$_ZN6System8Generics11Collections6TArray9QuickSortINS_15DelphiInterfaceIN10Umodulelib10IMVCRouterEEEEEvPT_iNS4_INS0_8Defaults12IComparer__1IS9_EEEEii
 0002:0000466C       uMVCLite.$unwind$_ZN6System8Generics11Collections8TList__1IN7Strlist14TStringList__1IU9__closurePFvNS_15DelphiInterfaceIN10Umodulelib15IRequestContextEEEEE11TStringItemEE10RemoveItemERKSD_NS_5Types10TDirectionE
 0002:0000484C       uMVCLite.$unwind$_ZN6System8Generics11Collections8TList__1IN7Strlist14TStringList__1IU9__closurePFvNS_15DelphiInterfaceIN10Umodulelib15IRequestContextEEEEE11TStringItemEE10TrimExcessEv
 0002:00004680       uMVCLite.$unwind$_ZN6System8Generics11Collections8TList__1IN7Strlist14TStringList__1IU9__closurePFvNS_15DelphiInterfaceIN10Umodulelib15IRequestContextEEEEE11TStringItemEE11DeleteRangeEii
 0002:00004688       uMVCLite.$unwind$_ZN6System8Generics11Collections8TList__1IN7Strlist14TStringList__1IU9__closurePFvNS_15DelphiInterfaceIN10Umodulelib15IRequestContextEEEEE11TStringItemEE11ExtractItemERKSD_NS_5Types10TDirectionE
 0002:00004360       uMVCLite.$unwind$_ZN6System8Generics11Collections8TList__1IN7Strlist14TStringList__1IU9__closurePFvNS_15DelphiInterfaceIN10Umodulelib15IRequestContextEEEEE11TStringItemEE11FListHelperEv
 0002:00004370       uMVCLite.$unwind$_ZN6System8Generics11Collections8TList__1IN7Strlist14TStringList__1IU9__closurePFvNS_15DelphiInterfaceIN10Umodulelib15IRequestContextEEEEE11TStringItemEE11GetCapacityEv
 0002:000047FC       uMVCLite.$unwind$_ZN6System8Generics11Collections8TList__1IN7Strlist14TStringList__1IU9__closurePFvNS_15DelphiInterfaceIN10Umodulelib15IRequestContextEEEEE11TStringItemEE11IndexOfItemERKSD_NS_5Types10TDirectionE
 0002:00004560       uMVCLite.$unwind$_ZN6System8Generics11Collections8TList__1IN7Strlist14TStringList__1IU9__closurePFvNS_15DelphiInterfaceIN10Umodulelib15IRequestContextEEEEE11TStringItemEE11InsertRangeEiNS5_INS_14IEnumerable__1ISD_EEEE
 0002:00004558       uMVCLite.$unwind$_ZN6System8Generics11Collections8TList__1IN7Strlist14TStringList__1IU9__closurePFvNS_15DelphiInterfaceIN10Umodulelib15IRequestContextEEEEE11TStringItemEE11InsertRangeEiPKSD_i
 0002:00004550       uMVCLite.$unwind$_ZN6System8Generics11Collections8TList__1IN7Strlist14TStringList__1IU9__closurePFvNS_15DelphiInterfaceIN10Umodulelib15IRequestContextEEEEE11TStringItemEE11InsertRangeEiPKSD_ii
 0002:000045AC       uMVCLite.$unwind$_ZN6System8Generics11Collections8TList__1IN7Strlist14TStringList__1IU9__closurePFvNS_15DelphiInterfaceIN10Umodulelib15IRequestContextEEEEE11TStringItemEE11InsertRangeEiPNS1_14TEnumerable__1ISD_EE
 0002:00004808       uMVCLite.$unwind$_ZN6System8Generics11Collections8TList__1IN7Strlist14TStringList__1IU9__closurePFvNS_15DelphiInterfaceIN10Umodulelib15IRequestContextEEEEE11TStringItemEE11LastIndexOfERKSD_
 0002:00004374       uMVCLite.$unwind$_ZN6System8Generics11Collections8TList__1IN7Strlist14TStringList__1IU9__closurePFvNS_15DelphiInterfaceIN10Umodulelib15IRequestContextEEEEE11TStringItemEE11SetCapacityEi
 0002:000043C0       uMVCLite.$unwind$_ZN6System8Generics11Collections8TList__1IN7Strlist14TStringList__1IU9__closurePFvNS_15DelphiInterfaceIN10Umodulelib15IRequestContextEEEEE11TStringItemEE11SetOnNotifyEU9__closurePFvPNS_7TObjectERKSD_NS1_23TCollectionNotificationEE
 0002:000048B8       uMVCLite.$unwind$_ZN6System8Generics11Collections8TList__1IN7Strlist14TStringList__1IU9__closurePFvNS_15DelphiInterfaceIN10Umodulelib15IRequestContextEEEEE11TStringItemEE11TEnumerator10DoMoveNextEv
 0002:00004864       uMVCLite.$unwind$_ZN6System8Generics11Collections8TList__1IN7Strlist14TStringList__1IU9__closurePFvNS_15DelphiInterfaceIN10Umodulelib15IRequestContextEEEEE11TStringItemEE11TEnumerator10GetCurrentEv
 0002:0000486C       uMVCLite.$unwind$_ZN6System8Generics11Collections8TList__1IN7Strlist14TStringList__1IU9__closurePFvNS_15DelphiInterfaceIN10Umodulelib15IRequestContextEEEEE11TStringItemEE11TEnumerator12DoGetCurrentEv
 0002:000048F8       uMVCLite.$unwind$_ZN6System8Generics11Collections8TList__1IN7Strlist14TStringList__1IU9__closurePFvNS_15DelphiInterfaceIN10Umodulelib15IRequestContextEEEEE11TStringItemEE11TEnumerator8MoveNextEv
 0002:000048BC       uMVCLite.$unwind$_ZN6System8Generics11Collections8TList__1IN7Strlist14TStringList__1IU9__closurePFvNS_15DelphiInterfaceIN10Umodulelib15IRequestContextEEEEE11TStringItemEE11TEnumeratorC3EPSE_
 0002:00004834       uMVCLite.$unwind$_ZN6System8Generics11Collections8TList__1IN7Strlist14TStringList__1IU9__closurePFvNS_15DelphiInterfaceIN10Umodulelib15IRequestContextEEEEE11TStringItemEE12BinarySearchERKSD_Ri
 0002:0000483C       uMVCLite.$unwind$_ZN6System8Generics11Collections8TList__1IN7Strlist14TStringList__1IU9__closurePFvNS_15DelphiInterfaceIN10Umodulelib15IRequestContextEEEEE11TStringItemEE12BinarySearchERKSD_RiNS5_INS0_8Defaults12IComparer__1ISD_EEEE
 0002:00004844       uMVCLite.$unwind$_ZN6System8Generics11Collections8TList__1IN7Strlist14TStringList__1IU9__closurePFvNS_15DelphiInterfaceIN10Umodulelib15IRequestContextEEEEE11TStringItemEE12BinarySearchERKSD_RiNS5_INS0_8Defaults12IComparer__1ISD_EEEEii
 0002:000043B4       uMVCLite.$unwind$_ZN6System8Generics11Collections8TList__1IN7Strlist14TStringList__1IU9__closurePFvNS_15DelphiInterfaceIN10Umodulelib15IRequestContextEEEEE11TStringItemEE12UpdateNotifyEv
 0002:0000485C       uMVCLite.$unwind$_ZN6System8Generics11Collections8TList__1IN7Strlist14TStringList__1IU9__closurePFvNS_15DelphiInterfaceIN10Umodulelib15IRequestContextEEEEE11TStringItemEE13GetEnumeratorEv
 0002:000043AC       uMVCLite.$unwind$_ZN6System8Generics11Collections8TList__1IN7Strlist14TStringList__1IU9__closurePFvNS_15DelphiInterfaceIN10Umodulelib15IRequestContextEEEEE11TStringItemEE14InternalNotifyEPKvNS1_23TCollectionNotificationE
 0002:000043D4       uMVCLite.$unwind$_ZN6System8Generics11Collections8TList__1IN7Strlist14TStringList__1IU9__closurePFvNS_15DelphiInterfaceIN10Umodulelib15IRequestContextEEEEE11TStringItemEE14UpdateComparerENS5_INS0_8Defaults12IComparer__1ISD_EEEE
 0002:000043E0       uMVCLite.$unwind$_ZN6System8Generics11Collections8TList__1IN7Strlist14TStringList__1IU9__closurePFvNS_15DelphiInterfaceIN10Umodulelib15IRequestContextEEEEE11TStringItemEE15DoGetEnumeratorEv
 0002:000043CC       uMVCLite.$unwind$_ZN6System8Generics11Collections8TList__1IN7Strlist14TStringList__1IU9__closurePFvNS_15DelphiInterfaceIN10Umodulelib15IRequestContextEEEEE11TStringItemEE15InternalCompareEPKvSG_
 0002:00004528       uMVCLite.$unwind$_ZN6System8Generics11Collections8TList__1IN7Strlist14TStringList__1IU9__closurePFvNS_15DelphiInterfaceIN10Umodulelib15IRequestContextEEEEE11TStringItemEE3AddERKSD_
 0002:00004788       uMVCLite.$unwind$_ZN6System8Generics11Collections8TList__1IN7Strlist14TStringList__1IU9__closurePFvNS_15DelphiInterfaceIN10Umodulelib15IRequestContextEEEEE11TStringItemEE4LastEv
 0002:00004734       uMVCLite.$unwind$_ZN6System8Generics11Collections8TList__1IN7Strlist14TStringList__1IU9__closurePFvNS_15DelphiInterfaceIN10Umodulelib15IRequestContextEEEEE11TStringItemEE4MoveEii
 0002:00004630       uMVCLite.$unwind$_ZN6System8Generics11Collections8TList__1IN7Strlist14TStringList__1IU9__closurePFvNS_15DelphiInterfaceIN10Umodulelib15IRequestContextEEEEE11TStringItemEE4PackENS5_INSE_10TEmptyFuncEEE
 0002:000045FC       uMVCLite.$unwind$_ZN6System8Generics11Collections8TList__1IN7Strlist14TStringList__1IU9__closurePFvNS_15DelphiInterfaceIN10Umodulelib15IRequestContextEEEEE11TStringItemEE4PackEv
 0002:00004824       uMVCLite.$unwind$_ZN6System8Generics11Collections8TList__1IN7Strlist14TStringList__1IU9__closurePFvNS_15DelphiInterfaceIN10Umodulelib15IRequestContextEEEEE11TStringItemEE4SortENS5_INS0_8Defaults12IComparer__1ISD_EEEE
 0002:0000482C       uMVCLite.$unwind$_ZN6System8Generics11Collections8TList__1IN7Strlist14TStringList__1IU9__closurePFvNS_15DelphiInterfaceIN10Umodulelib15IRequestContextEEEEE11TStringItemEE4SortENS5_INS0_8Defaults12IComparer__1ISD_EEEEii
 0002:0000481C       uMVCLite.$unwind$_ZN6System8Generics11Collections8TList__1IN7Strlist14TStringList__1IU9__closurePFvNS_15DelphiInterfaceIN10Umodulelib15IRequestContextEEEEE11TStringItemEE4SortEv
 0002:000047D4       uMVCLite.$unwind$_ZN6System8Generics11Collections8TList__1IN7Strlist14TStringList__1IU9__closurePFvNS_15DelphiInterfaceIN10Umodulelib15IRequestContextEEEEE11TStringItemEE5ClearEv
 0002:000044EC       uMVCLite.$unwind$_ZN6System8Generics11Collections8TList__1IN7Strlist14TStringList__1IU9__closurePFvNS_15DelphiInterfaceIN10Umodulelib15IRequestContextEEEEE11TStringItemEE5ErrorENS_13UnicodeStringEx
 0002:000044F8       uMVCLite.$unwind$_ZN6System8Generics11Collections8TList__1IN7Strlist14TStringList__1IU9__closurePFvNS_15DelphiInterfaceIN10Umodulelib15IRequestContextEEEEE11TStringItemEE5ErrorEPNS_13TResStringRecEx
 0002:0000473C       uMVCLite.$unwind$_ZN6System8Generics11Collections8TList__1IN7Strlist14TStringList__1IU9__closurePFvNS_15DelphiInterfaceIN10Umodulelib15IRequestContextEEEEE11TStringItemEE5FirstEv
 0002:00004678       uMVCLite.$unwind$_ZN6System8Generics11Collections8TList__1IN7Strlist14TStringList__1IU9__closurePFvNS_15DelphiInterfaceIN10Umodulelib15IRequestContextEEEEE11TStringItemEE6DeleteEi
 0002:000047DC       uMVCLite.$unwind$_ZN6System8Generics11Collections8TList__1IN7Strlist14TStringList__1IU9__closurePFvNS_15DelphiInterfaceIN10Umodulelib15IRequestContextEEEEE11TStringItemEE6ExpandEv
 0002:00004548       uMVCLite.$unwind$_ZN6System8Generics11Collections8TList__1IN7Strlist14TStringList__1IU9__closurePFvNS_15DelphiInterfaceIN10Umodulelib15IRequestContextEEEEE11TStringItemEE6InsertEiRKSD_
 0002:000043E8       uMVCLite.$unwind$_ZN6System8Generics11Collections8TList__1IN7Strlist14TStringList__1IU9__closurePFvNS_15DelphiInterfaceIN10Umodulelib15IRequestContextEEEEE11TStringItemEE6NotifyERKSD_NS1_23TCollectionNotificationE
 0002:00004660       uMVCLite.$unwind$_ZN6System8Generics11Collections8TList__1IN7Strlist14TStringList__1IU9__closurePFvNS_15DelphiInterfaceIN10Umodulelib15IRequestContextEEEEE11TStringItemEE6RemoveERKSD_
 0002:00004694       uMVCLite.$unwind$_ZN6System8Generics11Collections8TList__1IN7Strlist14TStringList__1IU9__closurePFvNS_15DelphiInterfaceIN10Umodulelib15IRequestContextEEEEE11TStringItemEE7ExtractERKSD_
 0002:00004388       uMVCLite.$unwind$_ZN6System8Generics11Collections8TList__1IN7Strlist14TStringList__1IU9__closurePFvNS_15DelphiInterfaceIN10Umodulelib15IRequestContextEEEEE11TStringItemEE7GetItemEi
 0002:00004364       uMVCLite.$unwind$_ZN6System8Generics11Collections8TList__1IN7Strlist14TStringList__1IU9__closurePFvNS_15DelphiInterfaceIN10Umodulelib15IRequestContextEEEEE11TStringItemEE7GetListEv
 0002:000047F0       uMVCLite.$unwind$_ZN6System8Generics11Collections8TList__1IN7Strlist14TStringList__1IU9__closurePFvNS_15DelphiInterfaceIN10Umodulelib15IRequestContextEEEEE11TStringItemEE7IndexOfERKSD_
 0002:00004814       uMVCLite.$unwind$_ZN6System8Generics11Collections8TList__1IN7Strlist14TStringList__1IU9__closurePFvNS_15DelphiInterfaceIN10Umodulelib15IRequestContextEEEEE11TStringItemEE7ReverseEv
 0002:00004394       uMVCLite.$unwind$_ZN6System8Generics11Collections8TList__1IN7Strlist14TStringList__1IU9__closurePFvNS_15DelphiInterfaceIN10Umodulelib15IRequestContextEEEEE11TStringItemEE7SetItemEiRKSD_
 0002:00004854       uMVCLite.$unwind$_ZN6System8Generics11Collections8TList__1IN7Strlist14TStringList__1IU9__closurePFvNS_15DelphiInterfaceIN10Umodulelib15IRequestContextEEEEE11TStringItemEE7ToArrayEv
 0002:00004538       uMVCLite.$unwind$_ZN6System8Generics11Collections8TList__1IN7Strlist14TStringList__1IU9__closurePFvNS_15DelphiInterfaceIN10Umodulelib15IRequestContextEEEEE11TStringItemEE8AddRangeENS5_INS_14IEnumerable__1ISD_EEEE
 0002:00004530       uMVCLite.$unwind$_ZN6System8Generics11Collections8TList__1IN7Strlist14TStringList__1IU9__closurePFvNS_15DelphiInterfaceIN10Umodulelib15IRequestContextEEEEE11TStringItemEE8AddRangeEPKSD_i
 0002:00004540       uMVCLite.$unwind$_ZN6System8Generics11Collections8TList__1IN7Strlist14TStringList__1IU9__closurePFvNS_15DelphiInterfaceIN10Umodulelib15IRequestContextEEEEE11TStringItemEE8AddRangeEPNS1_14TEnumerable__1ISD_EE
 0002:000047E4       uMVCLite.$unwind$_ZN6System8Generics11Collections8TList__1IN7Strlist14TStringList__1IU9__closurePFvNS_15DelphiInterfaceIN10Umodulelib15IRequestContextEEEEE11TStringItemEE8ContainsERKSD_
 0002:000043A4       uMVCLite.$unwind$_ZN6System8Generics11Collections8TList__1IN7Strlist14TStringList__1IU9__closurePFvNS_15DelphiInterfaceIN10Umodulelib15IRequestContextEEEEE11TStringItemEE8DoDeleteEiNS1_23TCollectionNotificationE
 0002:0000472C       uMVCLite.$unwind$_ZN6System8Generics11Collections8TList__1IN7Strlist14TStringList__1IU9__closurePFvNS_15DelphiInterfaceIN10Umodulelib15IRequestContextEEEEE11TStringItemEE8ExchangeEii
 0002:0000436C       uMVCLite.$unwind$_ZN6System8Generics11Collections8TList__1IN7Strlist14TStringList__1IU9__closurePFvNS_15DelphiInterfaceIN10Umodulelib15IRequestContextEEEEE11TStringItemEE8GetPListEv
 0002:00004380       uMVCLite.$unwind$_ZN6System8Generics11Collections8TList__1IN7Strlist14TStringList__1IU9__closurePFvNS_15DelphiInterfaceIN10Umodulelib15IRequestContextEEEEE11TStringItemEE8SetCountEi
 0002:000046E0       uMVCLite.$unwind$_ZN6System8Generics11Collections8TList__1IN7Strlist14TStringList__1IU9__closurePFvNS_15DelphiInterfaceIN10Umodulelib15IRequestContextEEEEE11TStringItemEE9ExtractAtEi
 0002:0000439C       uMVCLite.$unwind$_ZN6System8Generics11Collections8TList__1IN7Strlist14TStringList__1IU9__closurePFvNS_15DelphiInterfaceIN10Umodulelib15IRequestContextEEEEE11TStringItemEE9GrowCheckEi
 0002:000043DC       uMVCLite.$unwind$_ZN6System8Generics11Collections8TList__1IN7Strlist14TStringList__1IU9__closurePFvNS_15DelphiInterfaceIN10Umodulelib15IRequestContextEEEEE11TStringItemEE9ItemValueERKSD_
 0002:0000442C       uMVCLite.$unwind$_ZN6System8Generics11Collections8TList__1IN7Strlist14TStringList__1IU9__closurePFvNS_15DelphiInterfaceIN10Umodulelib15IRequestContextEEEEE11TStringItemEEC3ENS5_INS0_8Defaults12IComparer__1ISD_EEEE
 0002:000044A4       uMVCLite.$unwind$_ZN6System8Generics11Collections8TList__1IN7Strlist14TStringList__1IU9__closurePFvNS_15DelphiInterfaceIN10Umodulelib15IRequestContextEEEEE11TStringItemEEC3EPKSD_i
 0002:00004468       uMVCLite.$unwind$_ZN6System8Generics11Collections8TList__1IN7Strlist14TStringList__1IU9__closurePFvNS_15DelphiInterfaceIN10Umodulelib15IRequestContextEEEEE11TStringItemEEC3EPNS1_14TEnumerable__1ISD_EE
 0002:000043F0       uMVCLite.$unwind$_ZN6System8Generics11Collections8TList__1IN7Strlist14TStringList__1IU9__closurePFvNS_15DelphiInterfaceIN10Umodulelib15IRequestContextEEEEE11TStringItemEEC3Ev
 0002:000044E0       uMVCLite.$unwind$_ZN6System8Generics11Collections8TList__1IN7Strlist14TStringList__1IU9__closurePFvNS_15DelphiInterfaceIN10Umodulelib15IRequestContextEEEEE11TStringItemEED0Ev
 0002:00004E9C       uMVCLite.$unwind$_ZN6System8Generics11Collections8TList__1INS_15DelphiInterfaceIN10Umodulelib10IMVCRouterEEEE10RemoveItemES6_NS_5Types10TDirectionE
 0002:00005084       uMVCLite.$unwind$_ZN6System8Generics11Collections8TList__1INS_15DelphiInterfaceIN10Umodulelib10IMVCRouterEEEE10TrimExcessEv
 0002:00004EB0       uMVCLite.$unwind$_ZN6System8Generics11Collections8TList__1INS_15DelphiInterfaceIN10Umodulelib10IMVCRouterEEEE11DeleteRangeEii
 0002:00004EB8       uMVCLite.$unwind$_ZN6System8Generics11Collections8TList__1INS_15DelphiInterfaceIN10Umodulelib10IMVCRouterEEEE11ExtractItemES6_NS_5Types10TDirectionE
 0002:00004B80       uMVCLite.$unwind$_ZN6System8Generics11Collections8TList__1INS_15DelphiInterfaceIN10Umodulelib10IMVCRouterEEEE11FListHelperEv
 0002:00004B90       uMVCLite.$unwind$_ZN6System8Generics11Collections8TList__1INS_15DelphiInterfaceIN10Umodulelib10IMVCRouterEEEE11GetCapacityEv
 0002:00005030       uMVCLite.$unwind$_ZN6System8Generics11Collections8TList__1INS_15DelphiInterfaceIN10Umodulelib10IMVCRouterEEEE11IndexOfItemES6_NS_5Types10TDirectionE
 0002:00004D90       uMVCLite.$unwind$_ZN6System8Generics11Collections8TList__1INS_15DelphiInterfaceIN10Umodulelib10IMVCRouterEEEE11InsertRangeEiNS3_INS_14IEnumerable__1IS6_EEEE
 0002:00004D88       uMVCLite.$unwind$_ZN6System8Generics11Collections8TList__1INS_15DelphiInterfaceIN10Umodulelib10IMVCRouterEEEE11InsertRangeEiPKS6_i
 0002:00004D80       uMVCLite.$unwind$_ZN6System8Generics11Collections8TList__1INS_15DelphiInterfaceIN10Umodulelib10IMVCRouterEEEE11InsertRangeEiPKS6_ii
 0002:00004DDC       uMVCLite.$unwind$_ZN6System8Generics11Collections8TList__1INS_15DelphiInterfaceIN10Umodulelib10IMVCRouterEEEE11InsertRangeEiPNS1_14TEnumerable__1IS6_EE
 0002:0000503C       uMVCLite.$unwind$_ZN6System8Generics11Collections8TList__1INS_15DelphiInterfaceIN10Umodulelib10IMVCRouterEEEE11LastIndexOfES6_
 0002:00004B94       uMVCLite.$unwind$_ZN6System8Generics11Collections8TList__1INS_15DelphiInterfaceIN10Umodulelib10IMVCRouterEEEE11SetCapacityEi
 0002:00004BE4       uMVCLite.$unwind$_ZN6System8Generics11Collections8TList__1INS_15DelphiInterfaceIN10Umodulelib10IMVCRouterEEEE11SetOnNotifyEU9__closurePFvPNS_7TObjectES6_NS1_23TCollectionNotificationEE
 0002:000050F0       uMVCLite.$unwind$_ZN6System8Generics11Collections8TList__1INS_15DelphiInterfaceIN10Umodulelib10IMVCRouterEEEE11TEnumerator10DoMoveNextEv
 0002:0000509C       uMVCLite.$unwind$_ZN6System8Generics11Collections8TList__1INS_15DelphiInterfaceIN10Umodulelib10IMVCRouterEEEE11TEnumerator10GetCurrentEv
 0002:000050A4       uMVCLite.$unwind$_ZN6System8Generics11Collections8TList__1INS_15DelphiInterfaceIN10Umodulelib10IMVCRouterEEEE11TEnumerator12DoGetCurrentEv
 0002:00005130       uMVCLite.$unwind$_ZN6System8Generics11Collections8TList__1INS_15DelphiInterfaceIN10Umodulelib10IMVCRouterEEEE11TEnumerator8MoveNextEv
 0002:000050F4       uMVCLite.$unwind$_ZN6System8Generics11Collections8TList__1INS_15DelphiInterfaceIN10Umodulelib10IMVCRouterEEEE11TEnumeratorC3EPS7_
 0002:0000506C       uMVCLite.$unwind$_ZN6System8Generics11Collections8TList__1INS_15DelphiInterfaceIN10Umodulelib10IMVCRouterEEEE12BinarySearchES6_Ri
 0002:00005074       uMVCLite.$unwind$_ZN6System8Generics11Collections8TList__1INS_15DelphiInterfaceIN10Umodulelib10IMVCRouterEEEE12BinarySearchES6_RiNS3_INS0_8Defaults12IComparer__1IS6_EEEE
 0002:0000507C       uMVCLite.$unwind$_ZN6System8Generics11Collections8TList__1INS_15DelphiInterfaceIN10Umodulelib10IMVCRouterEEEE12BinarySearchES6_RiNS3_INS0_8Defaults12IComparer__1IS6_EEEEii
 0002:00004BD8       uMVCLite.$unwind$_ZN6System8Generics11Collections8TList__1INS_15DelphiInterfaceIN10Umodulelib10IMVCRouterEEEE12UpdateNotifyEv
 0002:00005094       uMVCLite.$unwind$_ZN6System8Generics11Collections8TList__1INS_15DelphiInterfaceIN10Umodulelib10IMVCRouterEEEE13GetEnumeratorEv
 0002:00004BD0       uMVCLite.$unwind$_ZN6System8Generics11Collections8TList__1INS_15DelphiInterfaceIN10Umodulelib10IMVCRouterEEEE14InternalNotifyEPKvNS1_23TCollectionNotificationE
 0002:00004BF8       uMVCLite.$unwind$_ZN6System8Generics11Collections8TList__1INS_15DelphiInterfaceIN10Umodulelib10IMVCRouterEEEE14UpdateComparerENS3_INS0_8Defaults12IComparer__1IS6_EEEE
 0002:00004C08       uMVCLite.$unwind$_ZN6System8Generics11Collections8TList__1INS_15DelphiInterfaceIN10Umodulelib10IMVCRouterEEEE15DoGetEnumeratorEv
 0002:00004BF0       uMVCLite.$unwind$_ZN6System8Generics11Collections8TList__1INS_15DelphiInterfaceIN10Umodulelib10IMVCRouterEEEE15InternalCompareEPKvS9_
 0002:00004D50       uMVCLite.$unwind$_ZN6System8Generics11Collections8TList__1INS_15DelphiInterfaceIN10Umodulelib10IMVCRouterEEEE3AddES6_
 0002:00004FBC       uMVCLite.$unwind$_ZN6System8Generics11Collections8TList__1INS_15DelphiInterfaceIN10Umodulelib10IMVCRouterEEEE4LastEv
 0002:00004F68       uMVCLite.$unwind$_ZN6System8Generics11Collections8TList__1INS_15DelphiInterfaceIN10Umodulelib10IMVCRouterEEEE4MoveEii
 0002:00004E60       uMVCLite.$unwind$_ZN6System8Generics11Collections8TList__1INS_15DelphiInterfaceIN10Umodulelib10IMVCRouterEEEE4PackENS3_INS7_10TEmptyFuncEEE
 0002:00004E2C       uMVCLite.$unwind$_ZN6System8Generics11Collections8TList__1INS_15DelphiInterfaceIN10Umodulelib10IMVCRouterEEEE4PackEv
 0002:0000505C       uMVCLite.$unwind$_ZN6System8Generics11Collections8TList__1INS_15DelphiInterfaceIN10Umodulelib10IMVCRouterEEEE4SortENS3_INS0_8Defaults12IComparer__1IS6_EEEE
 0002:00005064       uMVCLite.$unwind$_ZN6System8Generics11Collections8TList__1INS_15DelphiInterfaceIN10Umodulelib10IMVCRouterEEEE4SortENS3_INS0_8Defaults12IComparer__1IS6_EEEEii
 0002:00005054       uMVCLite.$unwind$_ZN6System8Generics11Collections8TList__1INS_15DelphiInterfaceIN10Umodulelib10IMVCRouterEEEE4SortEv
 0002:00005008       uMVCLite.$unwind$_ZN6System8Generics11Collections8TList__1INS_15DelphiInterfaceIN10Umodulelib10IMVCRouterEEEE5ClearEv
 0002:00004D14       uMVCLite.$unwind$_ZN6System8Generics11Collections8TList__1INS_15DelphiInterfaceIN10Umodulelib10IMVCRouterEEEE5ErrorENS_13UnicodeStringEx
 0002:00004D20       uMVCLite.$unwind$_ZN6System8Generics11Collections8TList__1INS_15DelphiInterfaceIN10Umodulelib10IMVCRouterEEEE5ErrorEPNS_13TResStringRecEx
 0002:00004F70       uMVCLite.$unwind$_ZN6System8Generics11Collections8TList__1INS_15DelphiInterfaceIN10Umodulelib10IMVCRouterEEEE5FirstEv
 0002:00004EA8       uMVCLite.$unwind$_ZN6System8Generics11Collections8TList__1INS_15DelphiInterfaceIN10Umodulelib10IMVCRouterEEEE6DeleteEi
 0002:00005010       uMVCLite.$unwind$_ZN6System8Generics11Collections8TList__1INS_15DelphiInterfaceIN10Umodulelib10IMVCRouterEEEE6ExpandEv
 0002:00004D74       uMVCLite.$unwind$_ZN6System8Generics11Collections8TList__1INS_15DelphiInterfaceIN10Umodulelib10IMVCRouterEEEE6InsertEiS6_
 0002:00004C10       uMVCLite.$unwind$_ZN6System8Generics11Collections8TList__1INS_15DelphiInterfaceIN10Umodulelib10IMVCRouterEEEE6NotifyES6_NS1_23TCollectionNotificationE
 0002:00004E90       uMVCLite.$unwind$_ZN6System8Generics11Collections8TList__1INS_15DelphiInterfaceIN10Umodulelib10IMVCRouterEEEE6RemoveES6_
 0002:00004EC4       uMVCLite.$unwind$_ZN6System8Generics11Collections8TList__1INS_15DelphiInterfaceIN10Umodulelib10IMVCRouterEEEE7ExtractES6_
 0002:00004BA8       uMVCLite.$unwind$_ZN6System8Generics11Collections8TList__1INS_15DelphiInterfaceIN10Umodulelib10IMVCRouterEEEE7GetItemEi
 0002:00004B84       uMVCLite.$unwind$_ZN6System8Generics11Collections8TList__1INS_15DelphiInterfaceIN10Umodulelib10IMVCRouterEEEE7GetListEv
 0002:00005024       uMVCLite.$unwind$_ZN6System8Generics11Collections8TList__1INS_15DelphiInterfaceIN10Umodulelib10IMVCRouterEEEE7IndexOfES6_
 0002:00005048       uMVCLite.$unwind$_ZN6System8Generics11Collections8TList__1INS_15DelphiInterfaceIN10Umodulelib10IMVCRouterEEEE7ReverseEv
 0002:00004BB4       uMVCLite.$unwind$_ZN6System8Generics11Collections8TList__1INS_15DelphiInterfaceIN10Umodulelib10IMVCRouterEEEE7SetItemEiS6_
 0002:0000508C       uMVCLite.$unwind$_ZN6System8Generics11Collections8TList__1INS_15DelphiInterfaceIN10Umodulelib10IMVCRouterEEEE7ToArrayEv
 0002:00004D64       uMVCLite.$unwind$_ZN6System8Generics11Collections8TList__1INS_15DelphiInterfaceIN10Umodulelib10IMVCRouterEEEE8AddRangeENS3_INS_14IEnumerable__1IS6_EEEE
 0002:00004D5C       uMVCLite.$unwind$_ZN6System8Generics11Collections8TList__1INS_15DelphiInterfaceIN10Umodulelib10IMVCRouterEEEE8AddRangeEPKS6_i
 0002:00004D6C       uMVCLite.$unwind$_ZN6System8Generics11Collections8TList__1INS_15DelphiInterfaceIN10Umodulelib10IMVCRouterEEEE8AddRangeEPNS1_14TEnumerable__1IS6_EE
 0002:00005018       uMVCLite.$unwind$_ZN6System8Generics11Collections8TList__1INS_15DelphiInterfaceIN10Umodulelib10IMVCRouterEEEE8ContainsES6_
 0002:00004BC8       uMVCLite.$unwind$_ZN6System8Generics11Collections8TList__1INS_15DelphiInterfaceIN10Umodulelib10IMVCRouterEEEE8DoDeleteEiNS1_23TCollectionNotificationE
 0002:00004F5C       uMVCLite.$unwind$_ZN6System8Generics11Collections8TList__1INS_15DelphiInterfaceIN10Umodulelib10IMVCRouterEEEE8ExchangeEii
 0002:00004B8C       uMVCLite.$unwind$_ZN6System8Generics11Collections8TList__1INS_15DelphiInterfaceIN10Umodulelib10IMVCRouterEEEE8GetPListEv
 0002:00004BA0       uMVCLite.$unwind$_ZN6System8Generics11Collections8TList__1INS_15DelphiInterfaceIN10Umodulelib10IMVCRouterEEEE8SetCountEi
 0002:00004F10       uMVCLite.$unwind$_ZN6System8Generics11Collections8TList__1INS_15DelphiInterfaceIN10Umodulelib10IMVCRouterEEEE9ExtractAtEi
 0002:00004BC0       uMVCLite.$unwind$_ZN6System8Generics11Collections8TList__1INS_15DelphiInterfaceIN10Umodulelib10IMVCRouterEEEE9GrowCheckEi
 0002:00004C04       uMVCLite.$unwind$_ZN6System8Generics11Collections8TList__1INS_15DelphiInterfaceIN10Umodulelib10IMVCRouterEEEE9ItemValueES6_
 0002:00004C54       uMVCLite.$unwind$_ZN6System8Generics11Collections8TList__1INS_15DelphiInterfaceIN10Umodulelib10IMVCRouterEEEEC3ENS3_INS0_8Defaults12IComparer__1IS6_EEEE
 0002:00004CCC       uMVCLite.$unwind$_ZN6System8Generics11Collections8TList__1INS_15DelphiInterfaceIN10Umodulelib10IMVCRouterEEEEC3EPKS6_i
 0002:00004C90       uMVCLite.$unwind$_ZN6System8Generics11Collections8TList__1INS_15DelphiInterfaceIN10Umodulelib10IMVCRouterEEEEC3EPNS1_14TEnumerable__1IS6_EE
 0002:00004C18       uMVCLite.$unwind$_ZN6System8Generics11Collections8TList__1INS_15DelphiInterfaceIN10Umodulelib10IMVCRouterEEEEC3Ev
 0002:00004D08       uMVCLite.$unwind$_ZN6System8Generics11Collections8TList__1INS_15DelphiInterfaceIN10Umodulelib10IMVCRouterEEEED0Ev
 0002:00005178       uMVCLite.$unwind$_ZN6System8Generics8Defaults12TComparer__1IN7Strlist14TStringList__1IU9__closurePFvNS_15DelphiInterfaceIN10Umodulelib15IRequestContextEEEEE11TStringItemEE8_DefaultEv
 0002:000051FC       uMVCLite.$unwind$_ZN6System8Generics8Defaults12TComparer__1INS_15DelphiInterfaceIN10Umodulelib10IMVCRouterEEEE8_DefaultEv
 0002:00004188       uMVCLite.$unwind$_ZN7Strlist14TStringList__1IU9__closurePFvN6System15DelphiInterfaceIN10Umodulelib15IRequestContextEEEEE10InsertItemEiNS1_13UnicodeStringES8_
 0002:000040AC       uMVCLite.$unwind$_ZN7Strlist14TStringList__1IU9__closurePFvN6System15DelphiInterfaceIN10Umodulelib15IRequestContextEEEEE14CompareItemStrENS1_13UnicodeStringESA_
 0002:000041C0       uMVCLite.$unwind$_ZN7Strlist14TStringList__1IU9__closurePFvN6System15DelphiInterfaceIN10Umodulelib15IRequestContextEEEEE16SetCaseSensitiveEb
 0002:00005170       uMVCLite.$unwind$_ZN7Strlist14TStringList__1IU9__closurePFvN6System15DelphiInterfaceIN10Umodulelib15IRequestContextEEEEE19TStringItemComparer7CompareERKNS9_11TStringItemESD_
 0002:00005134       uMVCLite.$unwind$_ZN7Strlist14TStringList__1IU9__closurePFvN6System15DelphiInterfaceIN10Umodulelib15IRequestContextEEEEE19TStringItemComparerC3Eb
 0002:00004210       uMVCLite.$unwind$_ZN7Strlist14TStringList__1IU9__closurePFvN6System15DelphiInterfaceIN10Umodulelib15IRequestContextEEEEE3AddENS1_13UnicodeStringES8_
 0002:000040B4       uMVCLite.$unwind$_ZN7Strlist14TStringList__1IU9__closurePFvN6System15DelphiInterfaceIN10Umodulelib15IRequestContextEEEEE3GetEi
 0002:00004118       uMVCLite.$unwind$_ZN7Strlist14TStringList__1IU9__closurePFvN6System15DelphiInterfaceIN10Umodulelib15IRequestContextEEEEE3PutEiNS1_13UnicodeStringE
 0002:00004244       uMVCLite.$unwind$_ZN7Strlist14TStringList__1IU9__closurePFvN6System15DelphiInterfaceIN10Umodulelib15IRequestContextEEEEE4FindENS1_13UnicodeStringERi
 0002:000042A4       uMVCLite.$unwind$_ZN7Strlist14TStringList__1IU9__closurePFvN6System15DelphiInterfaceIN10Umodulelib15IRequestContextEEEEE4SortEv
 0002:00004274       uMVCLite.$unwind$_ZN7Strlist14TStringList__1IU9__closurePFvN6System15DelphiInterfaceIN10Umodulelib15IRequestContextEEEEE7IndexOfENS1_13UnicodeStringE
 0002:000041BC       uMVCLite.$unwind$_ZN7Strlist14TStringList__1IU9__closurePFvN6System15DelphiInterfaceIN10Umodulelib15IRequestContextEEEEE8GetCountEv
 0002:000040E4       uMVCLite.$unwind$_ZN7Strlist14TStringList__1IU9__closurePFvN6System15DelphiInterfaceIN10Umodulelib15IRequestContextEEEEE9GetObjectEi
 0002:00004148       uMVCLite.$unwind$_ZN7Strlist14TStringList__1IU9__closurePFvN6System15DelphiInterfaceIN10Umodulelib15IRequestContextEEEEE9PutObjectEiS8_
 0002:0000417C       uMVCLite.$unwind$_ZN7Strlist14TStringList__1IU9__closurePFvN6System15DelphiInterfaceIN10Umodulelib15IRequestContextEEEEE9SetSortedEb
 0002:000041C8       uMVCLite.$unwind$_ZN7Strlist14TStringList__1IU9__closurePFvN6System15DelphiInterfaceIN10Umodulelib15IRequestContextEEEEEC3Eb
 0002:00004204       uMVCLite.$unwind$_ZN7Strlist14TStringList__1IU9__closurePFvN6System15DelphiInterfaceIN10Umodulelib15IRequestContextEEEEED0Ev
 0002:00003CBC       uMVCLite.$unwind$_ZN8Umvclite10TMVCModule13AddControllerEPN6System7TObjectE
 0002:00003D70       uMVCLite.$unwind$_ZN8Umvclite10TMVCModule13GetRouterPathEv
 0002:00003D78       uMVCLite.$unwind$_ZN8Umvclite10TMVCModule14InitDependencyEv
 0002:00003D84       uMVCLite.$unwind$_ZN8Umvclite10TMVCModule14InitMsgHandlerEN6System15DelphiInterfaceIN10Umodulelib12IPostMessageEEE
 0002:00003DDC       uMVCLite.$unwind$_ZN8Umvclite10TMVCModule14ProcessRequestEN6System13UnicodeStringENS1_15DelphiInterfaceIN10Umodulelib15IRequestContextEEEb
 0002:00003D1C       uMVCLite.$unwind$_ZN8Umvclite10TMVCModule15ClearDependencyEv
 0002:00003CEC       uMVCLite.$unwind$_ZN8Umvclite10TMVCModule18AutoInitRouterPathEv
 0002:00003DD4       uMVCLite.$unwind$_ZN8Umvclite10TMVCModule20ProcessAsyncRequestsEv
 0002:00003DC4       uMVCLite.$unwind$_ZN8Umvclite10TMVCModule7ProcessEN6System13UnicodeStringES2_
 0002:00003DB8       uMVCLite.$unwind$_ZN8Umvclite10TMVCModule7ProcessEv
 0002:00003D28       uMVCLite.$unwind$_ZN8Umvclite10TMVCModuleC3EPN6System7TObjectE
 0002:00003D64       uMVCLite.$unwind$_ZN8Umvclite10TMVCModuleD0Ev
 0002:00003F38       uMVCLite.$unwind$_ZN8Umvclite10TMVCServer12NewMVCRouterEPN6System7TObjectE
 0002:00003EC8       uMVCLite.$unwind$_ZN8Umvclite10TMVCServer14InitDependencyEv
 0002:00003EFC       uMVCLite.$unwind$_ZN8Umvclite10TMVCServer14InitMsgHandlerEN6System15DelphiInterfaceIN10Umodulelib12IPostMessageEEE
 0002:0000403C       uMVCLite.$unwind$_ZN8Umvclite10TMVCServer14ProcessRequestEN6System13UnicodeStringENS1_15DelphiInterfaceIN10Umodulelib15IRequestContextEEEb
 0002:00003E0C       uMVCLite.$unwind$_ZN8Umvclite10TMVCServer15ClearDependencyEv
 0002:00003F30       uMVCLite.$unwind$_ZN8Umvclite10TMVCServer16NewMVCControllerEPN6System7TObjectE
 0002:00003F74       uMVCLite.$unwind$_ZN8Umvclite10TMVCServer20ProcessAsyncRequestsEv
 0002:00004074       uMVCLite.$unwind$_ZN8Umvclite10TMVCServer3UseEN6System15DelphiInterfaceIN10Umodulelib10IMVCRouterEEE
 0002:00003FA8       uMVCLite.$unwind$_ZN8Umvclite10TMVCServer7ProcessEN6System13UnicodeStringES2_
 0002:00003F40       uMVCLite.$unwind$_ZN8Umvclite10TMVCServer7ProcessEv
 0002:00003E40       uMVCLite.$unwind$_ZN8Umvclite10TMVCServerC3Ev
 0002:00003E98       uMVCLite.$unwind$_ZN8Umvclite10TMVCServerD0Ev
 0002:000040A4       uMVCLite.$unwind$_ZN8Umvclite12FinalizationEv
 0002:000040A8       uMVCLite.$unwind$_ZN8Umvclite14initializationEv
 0002:00003C00       uMVCLite.$unwind$_ZN8Umvclite18TMVCRequestHandler12InnerProcessEPN6System7TObjectE
 0002:00003BD0       uMVCLite.$unwind$_ZN8Umvclite18TMVCRequestHandler12InnerProcessEPN6System7TObjectENS1_13UnicodeStringES4_
 0002:000039EC       uMVCLite.$unwind$_ZN8Umvclite18TMVCRequestHandler13AutoAddActionEPN6System7TObjectENS1_13UnicodeStringE
 0002:00003A74       uMVCLite.$unwind$_ZN8Umvclite18TMVCRequestHandler13ExecteCommandEN6System13UnicodeStringENS1_15DelphiInterfaceIN10Umodulelib15IRequestContextEEEb
 0002:00003B08       uMVCLite.$unwind$_ZN8Umvclite18TMVCRequestHandler14InitDependencyEv
 0002:00003B10       uMVCLite.$unwind$_ZN8Umvclite18TMVCRequestHandler14InitMsgHandlerEN6System15DelphiInterfaceIN10Umodulelib12IPostMessageEEE
 0002:00003C8C       uMVCLite.$unwind$_ZN8Umvclite18TMVCRequestHandler14ProcessRequestEN6System13UnicodeStringENS1_15DelphiInterfaceIN10Umodulelib15IRequestContextEEEb
 0002:00003A24       uMVCLite.$unwind$_ZN8Umvclite18TMVCRequestHandler15ClearDependencyEv
 0002:00003AD4       uMVCLite.$unwind$_ZN8Umvclite18TMVCRequestHandler15GetRelativePathEPN6System7TObjectE
 0002:00003B70       uMVCLite.$unwind$_ZN8Umvclite18TMVCRequestHandler19InnerInitDependencyEPN6System7TObjectE
 0002:00003BA0       uMVCLite.$unwind$_ZN8Umvclite18TMVCRequestHandler19InnerInitMsgHandlerEPN6System7TObjectENS1_15DelphiInterfaceIN10Umodulelib12IPostMessageEEE
 0002:00003B40       uMVCLite.$unwind$_ZN8Umvclite18TMVCRequestHandler20InnerClearDependencyEPN6System7TObjectE
 0002:00003C40       uMVCLite.$unwind$_ZN8Umvclite18TMVCRequestHandler20ProcessAsyncRequestsEv
 0002:00003C38       uMVCLite.$unwind$_ZN8Umvclite18TMVCRequestHandler7ProcessEN6System13UnicodeStringES2_
 0002:00003C30       uMVCLite.$unwind$_ZN8Umvclite18TMVCRequestHandler7ProcessEv
 0002:000039B8       uMVCLite.$unwind$_ZN8Umvclite18TMVCRequestHandler9AddActionEN6System13UnicodeStringEU9__closurePFvNS1_15DelphiInterfaceIN10Umodulelib15IRequestContextEEEE
 0002:00003A2C       uMVCLite.$unwind$_ZN8Umvclite18TMVCRequestHandlerC3EPN6System7TObjectE
 0002:00003A68       uMVCLite.$unwind$_ZN8Umvclite18TMVCRequestHandlerD0Ev
 0002:00003FDC       uMVCLite.$unwind$_ZZN8Umvclite10TMVCServer14ProcessRequestEN6System13UnicodeStringENS1_15DelphiInterfaceIN10Umodulelib15IRequestContextEEEbE11IsSubPathOfPvS2_S2_
 0002:0000400C       uMVCLite.$unwind$_ZZN8Umvclite10TMVCServer14ProcessRequestEN6System13UnicodeStringENS1_15DelphiInterfaceIN10Umodulelib15IRequestContextEEEbE11RemoveQueryPvS2_
 0001:00028BA0       uMVCLite...TMVCModule
 0001:000285D0       uMVCLite...TMVCRequestHandler
 0001:00029240       uMVCLite...TMVCServer
 0001:00036448       uMVCLite...{StrList}TStringList<uMVCLite.TMVCRequestProc>.TStringItemComparer
 0001:00036AB0       uMVCLite...{System.Generics.Collections}@TList`1.Pack[0]$ActRec<StrList.TStringList<uMVCLite.TMVCRequestProc>.TStringItem>
 0001:00037028       uMVCLite...{System.Generics.Collections}@TList`1.Pack[0]$ActRec<uModuleLib.IMVCRouter>
 0001:000367B8       uMVCLite...{System.Generics.Collections}@TList`1.Pack[1]$ActRec<StrList.TStringList<uMVCLite.TMVCRequestProc>.TStringItem>
 0001:00036DA0       uMVCLite...{System.Generics.Collections}@TList`1.Pack[1]$ActRec<uModuleLib.IMVCRouter>
 0003:00000118       uMVCLite..5
 0001:00028458       uMVCLite..TContextRequestProc
 0001:00028CB0       uMVCLite..TMVCModule
 0001:000286C0       uMVCLite..TMVCRequestHandler
 0001:00029378       uMVCLite..TMVCServer
 0001:0002C968       uMVCLite..{fsLib}TFifo<uMVCLite.TContextRequestProc>
 0001:0002C760       uMVCLite..{fsLib}TFifo<uMVCLite.TContextRequestProc>.TEnumerator
 0001:0002BAA0       uMVCLite..{StrList}TStringList<uMVCLite.TMVCRequestProc>
 0001:000364C8       uMVCLite..{StrList}TStringList<uMVCLite.TMVCRequestProc>.TStringItemComparer
 0001:00036B30       uMVCLite..{System.Generics.Collections}@TList`1.Pack[0]$ActRec<StrList.TStringList<uMVCLite.TMVCRequestProc>.TStringItem>
 0001:000370A8       uMVCLite..{System.Generics.Collections}@TList`1.Pack[0]$ActRec<uModuleLib.IMVCRouter>
 0001:00036838       uMVCLite..{System.Generics.Collections}@TList`1.Pack[1]$ActRec<StrList.TStringList<uMVCLite.TMVCRequestProc>.TStringItem>
 0001:00036E20       uMVCLite..{System.Generics.Collections}@TList`1.Pack[1]$ActRec<uModuleLib.IMVCRouter>
 0001:00029CC0       uMVCLite..{System.Generics.Collections}TEnumerable<StrList.TStringList<uMVCLite.TMVCRequestProc>.TStringItem>
 0001:0002D080       uMVCLite..{System.Generics.Collections}TEnumerable<uModuleLib.IMVCRouter>
 0001:0002C358       uMVCLite..{System.Generics.Collections}TEnumerable<uMVCLite.TContextRequestProc>
 0001:00029A90       uMVCLite..{System.Generics.Collections}TEnumerator<StrList.TStringList<uMVCLite.TMVCRequestProc>.TStringItem>
 0001:0002CE98       uMVCLite..{System.Generics.Collections}TEnumerator<uModuleLib.IMVCRouter>
 0001:0002C168       uMVCLite..{System.Generics.Collections}TEnumerator<uMVCLite.TContextRequestProc>
 0001:0002A5A8       uMVCLite..{System.Generics.Collections}TList<StrList.TStringList<uMVCLite.TMVCRequestProc>.TStringItem>
 0001:0002A2E0       uMVCLite..{System.Generics.Collections}TList<StrList.TStringList<uMVCLite.TMVCRequestProc>.TStringItem>.TEnumerator
 0001:0002D850       uMVCLite..{System.Generics.Collections}TList<uModuleLib.IMVCRouter>
 0001:0002D5D8       uMVCLite..{System.Generics.Collections}TList<uModuleLib.IMVCRouter>.TEnumerator
 0001:00030F20       uMVCLite.Finalization
 0001:00030A30       uMVCLite.IsSubPathOf
 0001:00030B70       uMVCLite.RemoveQuery
 0001:00035AF0       uMVCLite.TArray.BinarySearch<StrList.TStringList<uMVCLite.TMVCRequestProc>.TStringItem>
 0001:00035D50       uMVCLite.TArray.BinarySearch<uModuleLib.IMVCRouter>
 0001:00035EB0       uMVCLite.TArray.QuickSort<StrList.TStringList<uMVCLite.TMVCRequestProc>.TStringItem>
 0001:000361C0       uMVCLite.TArray.QuickSort<uModuleLib.IMVCRouter>
 0001:00035A70       uMVCLite.TArray.Sort<StrList.TStringList<uMVCLite.TMVCRequestProc>.TStringItem>
 0001:00035CD0       uMVCLite.TArray.Sort<uModuleLib.IMVCRouter>
 0001:0002FE90       uMVCLite.TMVCModule.AddController
 0001:0002FF10       uMVCLite.TMVCModule.AutoInitRouterPath
 0001:0002FF80       uMVCLite.TMVCModule.ClearDependency
 0001:0002FFE0       uMVCLite.TMVCModule.Create
 0001:000300C0       uMVCLite.TMVCModule.Destroy
 0001:00030110       uMVCLite.TMVCModule.GetRouterPath
 0001:00030130       uMVCLite.TMVCModule.InitDependency
 0001:00030190       uMVCLite.TMVCModule.InitMsgHandler
 0001:00030290       uMVCLite.TMVCModule.Process
 0001:00030230       uMVCLite.TMVCModule.Process
 0001:00030310       uMVCLite.TMVCModule.ProcessAsyncRequests
 0001:00030320       uMVCLite.TMVCModule.ProcessRequest
 0001:0002ED00       uMVCLite.TMVCRequestHandler.AddAction
 0001:0002ED70       uMVCLite.TMVCRequestHandler.AutoAddAction
 0001:0002F1D0       uMVCLite.TMVCRequestHandler.ClearDependency
 0001:0002F1F0       uMVCLite.TMVCRequestHandler.Create
 0001:0002F2C0       uMVCLite.TMVCRequestHandler.Destroy
 0001:0002F320       uMVCLite.TMVCRequestHandler.ExecteCommand
 0001:0002F550       uMVCLite.TMVCRequestHandler.GetRelativePath
 0001:0002F7A0       uMVCLite.TMVCRequestHandler.InitDependency
 0001:0002F7C0       uMVCLite.TMVCRequestHandler.InitMsgHandler
 0001:0002F830       uMVCLite.TMVCRequestHandler.InnerClearDependency
 0001:0002F920       uMVCLite.TMVCRequestHandler.InnerInitDependency
 0001:0002FA10       uMVCLite.TMVCRequestHandler.InnerInitMsgHandler
 0001:0002FB20       uMVCLite.TMVCRequestHandler.InnerProcess
 0001:0002FC30       uMVCLite.TMVCRequestHandler.InnerProcess
 0001:0002FD40       uMVCLite.TMVCRequestHandler.Process
 0001:0002FD20       uMVCLite.TMVCRequestHandler.Process
 0001:0002FD70       uMVCLite.TMVCRequestHandler.ProcessAsyncRequests
 0001:0002FE20       uMVCLite.TMVCRequestHandler.ProcessRequest
 0001:00030390       uMVCLite.TMVCServer.ClearDependency
 0001:00030430       uMVCLite.TMVCServer.Create
 0001:00030560       uMVCLite.TMVCServer.Destroy
 0001:00030640       uMVCLite.TMVCServer.InitDependency
 0001:000306E0       uMVCLite.TMVCServer.InitMsgHandler
 0001:000307B0       uMVCLite.TMVCServer.NewMVCController
 0001:00030800       uMVCLite.TMVCServer.NewMVCRouter
 0001:00030980       uMVCLite.TMVCServer.Process
 0001:00030840       uMVCLite.TMVCServer.Process
 0001:000308E0       uMVCLite.TMVCServer.ProcessAsyncRequests
 0001:00030C20       uMVCLite.TMVCServer.ProcessRequest
 0001:00030EA0       uMVCLite.TMVCServer.Use
 0001:00030F30       uMVCLite.uMVCLite
 0001:00033950       uMVCLite.{fsLib}TFifo<uMVCLite.TContextRequestProc>.Clear
 0001:00033A00       uMVCLite.{fsLib}TFifo<uMVCLite.TContextRequestProc>.Clear
 0001:000337F0       uMVCLite.{fsLib}TFifo<uMVCLite.TContextRequestProc>.Create
 0001:00033A10       uMVCLite.{fsLib}TFifo<uMVCLite.TContextRequestProc>.Dequeue
 0001:000338D0       uMVCLite.{fsLib}TFifo<uMVCLite.TContextRequestProc>.Destroy
 0001:000337D0       uMVCLite.{fsLib}TFifo<uMVCLite.TContextRequestProc>.DoGetEnumerator
 0001:00033A30       uMVCLite.{fsLib}TFifo<uMVCLite.TContextRequestProc>.Empty
 0001:00033A40       uMVCLite.{fsLib}TFifo<uMVCLite.TContextRequestProc>.Enqueue
 0001:00033CC0       uMVCLite.{fsLib}TFifo<uMVCLite.TContextRequestProc>.GetEnumerator
 0001:000337E0       uMVCLite.{fsLib}TFifo<uMVCLite.TContextRequestProc>.NotifyDelete
 0001:00033C20       uMVCLite.{fsLib}TFifo<uMVCLite.TContextRequestProc>.Peek
 0001:00033B60       uMVCLite.{fsLib}TFifo<uMVCLite.TContextRequestProc>.Pop
 0001:00033A50       uMVCLite.{fsLib}TFifo<uMVCLite.TContextRequestProc>.Push
 0001:00033D20       uMVCLite.{fsLib}TFifo<uMVCLite.TContextRequestProc>.TEnumerator.DoGetCurrent
 0001:00033D50       uMVCLite.{fsLib}TFifo<uMVCLite.TContextRequestProc>.TEnumerator.DoMoveNext
 0001:00033CF0       uMVCLite.{fsLib}TFifo<uMVCLite.TContextRequestProc>.TEnumerator.GetCurrent
 0001:00033D70       uMVCLite.{fsLib}TFifo<uMVCLite.TContextRequestProc>.TEnumerator.MoveNext
 0001:000314F0       uMVCLite.{StrList}TStringList<uMVCLite.TMVCRequestProc>.Add
 0001:00030F40       uMVCLite.{StrList}TStringList<uMVCLite.TMVCRequestProc>.CompareItemStr
 0001:00031390       uMVCLite.{StrList}TStringList<uMVCLite.TMVCRequestProc>.Create
 0001:00031480       uMVCLite.{StrList}TStringList<uMVCLite.TMVCRequestProc>.Destroy
 0001:00031610       uMVCLite.{StrList}TStringList<uMVCLite.TMVCRequestProc>.Find
 0001:00030F70       uMVCLite.{StrList}TStringList<uMVCLite.TMVCRequestProc>.Get
 0001:00031320       uMVCLite.{StrList}TStringList<uMVCLite.TMVCRequestProc>.GetCount
 0001:00031000       uMVCLite.{StrList}TStringList<uMVCLite.TMVCRequestProc>.GetObject
 0001:000316B0       uMVCLite.{StrList}TStringList<uMVCLite.TMVCRequestProc>.IndexOf
 0001:00031280       uMVCLite.{StrList}TStringList<uMVCLite.TMVCRequestProc>.InsertItem
 0001:00031090       uMVCLite.{StrList}TStringList<uMVCLite.TMVCRequestProc>.Put
 0001:000311B0       uMVCLite.{StrList}TStringList<uMVCLite.TMVCRequestProc>.PutObject
 0001:00031330       uMVCLite.{StrList}TStringList<uMVCLite.TMVCRequestProc>.SetCaseSensitive
 0001:00031250       uMVCLite.{StrList}TStringList<uMVCLite.TMVCRequestProc>.SetSorted
 0001:000317D0       uMVCLite.{StrList}TStringList<uMVCLite.TMVCRequestProc>.Sort
 0001:000358E0       uMVCLite.{StrList}TStringList<uMVCLite.TMVCRequestProc>.TStringItemComparer.Compare
 0001:00035840       uMVCLite.{StrList}TStringList<uMVCLite.TMVCRequestProc>.TStringItemComparer.Create
 0001:000359D0       uMVCLite.{System.Generics.Collections}@TList`1.Pack[0]$ActRec<StrList.TStringList<uMVCLite.TMVCRequestProc>.TStringItem>.$0$Body
 0001:00035CB0       uMVCLite.{System.Generics.Collections}@TList`1.Pack[0]$ActRec<uModuleLib.IMVCRouter>.$0$Body
 0001:00035930       uMVCLite.{System.Generics.Collections}@TList`1.Pack[1]$ActRec<StrList.TStringList<uMVCLite.TMVCRequestProc>.TStringItem>.$0$Body
 0001:00035C80       uMVCLite.{System.Generics.Collections}@TList`1.Pack[1]$ActRec<uModuleLib.IMVCRouter>.$0$Body
 0001:00031940       uMVCLite.{System.Generics.Collections}TEnumerable<StrList.TStringList<uMVCLite.TMVCRequestProc>.TStringItem>.Destroy
 0001:00031980       uMVCLite.{System.Generics.Collections}TEnumerable<StrList.TStringList<uMVCLite.TMVCRequestProc>.TStringItem>.GetEnumerator
 0001:000319A0       uMVCLite.{System.Generics.Collections}TEnumerable<StrList.TStringList<uMVCLite.TMVCRequestProc>.TStringItem>.ToArray
 0001:000317F0       uMVCLite.{System.Generics.Collections}TEnumerable<StrList.TStringList<uMVCLite.TMVCRequestProc>.TStringItem>.ToArrayImpl
 0001:00033EC0       uMVCLite.{System.Generics.Collections}TEnumerable<uModuleLib.IMVCRouter>.Destroy
 0001:00033F00       uMVCLite.{System.Generics.Collections}TEnumerable<uModuleLib.IMVCRouter>.GetEnumerator
 0001:00033F20       uMVCLite.{System.Generics.Collections}TEnumerable<uModuleLib.IMVCRouter>.ToArray
 0001:00033D90       uMVCLite.{System.Generics.Collections}TEnumerable<uModuleLib.IMVCRouter>.ToArrayImpl
 0001:000335B0       uMVCLite.{System.Generics.Collections}TEnumerable<uMVCLite.TContextRequestProc>.Destroy
 0001:000335F0       uMVCLite.{System.Generics.Collections}TEnumerable<uMVCLite.TContextRequestProc>.GetEnumerator
 0001:00033610       uMVCLite.{System.Generics.Collections}TEnumerable<uMVCLite.TContextRequestProc>.ToArray
 0001:000334C0       uMVCLite.{System.Generics.Collections}TEnumerable<uMVCLite.TContextRequestProc>.ToArrayImpl
 0001:00031BB0       uMVCLite.{System.Generics.Collections}TEnumerator<StrList.TStringList<uMVCLite.TMVCRequestProc>.TStringItem>.MoveNext
 0001:00034100       uMVCLite.{System.Generics.Collections}TEnumerator<uModuleLib.IMVCRouter>.MoveNext
 0001:000337B0       uMVCLite.{System.Generics.Collections}TEnumerator<uMVCLite.TContextRequestProc>.MoveNext
 0001:00032340       uMVCLite.{System.Generics.Collections}TList<StrList.TStringList<uMVCLite.TMVCRequestProc>.TStringItem>.Add
 0001:00032360       uMVCLite.{System.Generics.Collections}TList<StrList.TStringList<uMVCLite.TMVCRequestProc>.TStringItem>.AddRange
 0001:00032390       uMVCLite.{System.Generics.Collections}TList<StrList.TStringList<uMVCLite.TMVCRequestProc>.TStringItem>.AddRange
 0001:000323C0       uMVCLite.{System.Generics.Collections}TList<StrList.TStringList<uMVCLite.TMVCRequestProc>.TStringItem>.AddRange
 0001:00033100       uMVCLite.{System.Generics.Collections}TList<StrList.TStringList<uMVCLite.TMVCRequestProc>.TStringItem>.BinarySearch
 0001:00033160       uMVCLite.{System.Generics.Collections}TList<StrList.TStringList<uMVCLite.TMVCRequestProc>.TStringItem>.BinarySearch
 0001:000331B0       uMVCLite.{System.Generics.Collections}TList<StrList.TStringList<uMVCLite.TMVCRequestProc>.TStringItem>.BinarySearch
 0001:00032EF0       uMVCLite.{System.Generics.Collections}TList<StrList.TStringList<uMVCLite.TMVCRequestProc>.TStringItem>.Clear
 0001:00032F50       uMVCLite.{System.Generics.Collections}TList<StrList.TStringList<uMVCLite.TMVCRequestProc>.TStringItem>.Contains
 0001:00032090       uMVCLite.{System.Generics.Collections}TList<StrList.TStringList<uMVCLite.TMVCRequestProc>.TStringItem>.Create
 0001:00031F20       uMVCLite.{System.Generics.Collections}TList<StrList.TStringList<uMVCLite.TMVCRequestProc>.TStringItem>.Create
 0001:00031FC0       uMVCLite.{System.Generics.Collections}TList<StrList.TStringList<uMVCLite.TMVCRequestProc>.TStringItem>.Create
 0001:00032140       uMVCLite.{System.Generics.Collections}TList<StrList.TStringList<uMVCLite.TMVCRequestProc>.TStringItem>.Create
 0001:00032980       uMVCLite.{System.Generics.Collections}TList<StrList.TStringList<uMVCLite.TMVCRequestProc>.TStringItem>.Delete
 0001:000329A0       uMVCLite.{System.Generics.Collections}TList<StrList.TStringList<uMVCLite.TMVCRequestProc>.TStringItem>.DeleteRange
 0001:000321F0       uMVCLite.{System.Generics.Collections}TList<StrList.TStringList<uMVCLite.TMVCRequestProc>.TStringItem>.Destroy
 0001:00031D20       uMVCLite.{System.Generics.Collections}TList<StrList.TStringList<uMVCLite.TMVCRequestProc>.TStringItem>.DoDelete
 0001:00031EC0       uMVCLite.{System.Generics.Collections}TList<StrList.TStringList<uMVCLite.TMVCRequestProc>.TStringItem>.DoGetEnumerator
 0001:000322A0       uMVCLite.{System.Generics.Collections}TList<StrList.TStringList<uMVCLite.TMVCRequestProc>.TStringItem>.Error
 0001:00032250       uMVCLite.{System.Generics.Collections}TList<StrList.TStringList<uMVCLite.TMVCRequestProc>.TStringItem>.Error
 0001:00032C90       uMVCLite.{System.Generics.Collections}TList<StrList.TStringList<uMVCLite.TMVCRequestProc>.TStringItem>.Exchange
 0001:00032F10       uMVCLite.{System.Generics.Collections}TList<StrList.TStringList<uMVCLite.TMVCRequestProc>.TStringItem>.Expand
 0001:00032A30       uMVCLite.{System.Generics.Collections}TList<StrList.TStringList<uMVCLite.TMVCRequestProc>.TStringItem>.Extract
 0001:00032B50       uMVCLite.{System.Generics.Collections}TList<StrList.TStringList<uMVCLite.TMVCRequestProc>.TStringItem>.ExtractAt
 0001:000329C0       uMVCLite.{System.Generics.Collections}TList<StrList.TStringList<uMVCLite.TMVCRequestProc>.TStringItem>.ExtractItem
 0001:00032CD0       uMVCLite.{System.Generics.Collections}TList<StrList.TStringList<uMVCLite.TMVCRequestProc>.TStringItem>.First
 0001:00031BD0       uMVCLite.{System.Generics.Collections}TList<StrList.TStringList<uMVCLite.TMVCRequestProc>.TStringItem>.FListHelper
 0001:00031C20       uMVCLite.{System.Generics.Collections}TList<StrList.TStringList<uMVCLite.TMVCRequestProc>.TStringItem>.GetCapacity
 0001:00033250       uMVCLite.{System.Generics.Collections}TList<StrList.TStringList<uMVCLite.TMVCRequestProc>.TStringItem>.GetEnumerator
 0001:00031C80       uMVCLite.{System.Generics.Collections}TList<StrList.TStringList<uMVCLite.TMVCRequestProc>.TStringItem>.GetItem
 0001:00031BE0       uMVCLite.{System.Generics.Collections}TList<StrList.TStringList<uMVCLite.TMVCRequestProc>.TStringItem>.GetList
 0001:00031C10       uMVCLite.{System.Generics.Collections}TList<StrList.TStringList<uMVCLite.TMVCRequestProc>.TStringItem>.GetPList
 0001:00031D00       uMVCLite.{System.Generics.Collections}TList<StrList.TStringList<uMVCLite.TMVCRequestProc>.TStringItem>.GrowCheck
 0001:00032F80       uMVCLite.{System.Generics.Collections}TList<StrList.TStringList<uMVCLite.TMVCRequestProc>.TStringItem>.IndexOf
 0001:00032FB0       uMVCLite.{System.Generics.Collections}TList<StrList.TStringList<uMVCLite.TMVCRequestProc>.TStringItem>.IndexOfItem
 0001:000323F0       uMVCLite.{System.Generics.Collections}TList<StrList.TStringList<uMVCLite.TMVCRequestProc>.TStringItem>.Insert
 0001:00032410       uMVCLite.{System.Generics.Collections}TList<StrList.TStringList<uMVCLite.TMVCRequestProc>.TStringItem>.InsertRange
 0001:00032440       uMVCLite.{System.Generics.Collections}TList<StrList.TStringList<uMVCLite.TMVCRequestProc>.TStringItem>.InsertRange
 0001:00032470       uMVCLite.{System.Generics.Collections}TList<StrList.TStringList<uMVCLite.TMVCRequestProc>.TStringItem>.InsertRange
 0001:000325A0       uMVCLite.{System.Generics.Collections}TList<StrList.TStringList<uMVCLite.TMVCRequestProc>.TStringItem>.InsertRange
 0001:00031DD0       uMVCLite.{System.Generics.Collections}TList<StrList.TStringList<uMVCLite.TMVCRequestProc>.TStringItem>.InternalCompare
 0001:00031D40       uMVCLite.{System.Generics.Collections}TList<StrList.TStringList<uMVCLite.TMVCRequestProc>.TStringItem>.InternalNotify
 0001:00031E30       uMVCLite.{System.Generics.Collections}TList<StrList.TStringList<uMVCLite.TMVCRequestProc>.TStringItem>.ItemValue
 0001:00032DD0       uMVCLite.{System.Generics.Collections}TList<StrList.TStringList<uMVCLite.TMVCRequestProc>.TStringItem>.Last
 0001:00032FF0       uMVCLite.{System.Generics.Collections}TList<StrList.TStringList<uMVCLite.TMVCRequestProc>.TStringItem>.LastIndexOf
 0001:00032CB0       uMVCLite.{System.Generics.Collections}TList<StrList.TStringList<uMVCLite.TMVCRequestProc>.TStringItem>.Move
 0001:00031EE0       uMVCLite.{System.Generics.Collections}TList<StrList.TStringList<uMVCLite.TMVCRequestProc>.TStringItem>.Notify
 0001:00032770       uMVCLite.{System.Generics.Collections}TList<StrList.TStringList<uMVCLite.TMVCRequestProc>.TStringItem>.Pack
 0001:00032840       uMVCLite.{System.Generics.Collections}TList<StrList.TStringList<uMVCLite.TMVCRequestProc>.TStringItem>.Pack
 0001:00032910       uMVCLite.{System.Generics.Collections}TList<StrList.TStringList<uMVCLite.TMVCRequestProc>.TStringItem>.Remove
 0001:00032940       uMVCLite.{System.Generics.Collections}TList<StrList.TStringList<uMVCLite.TMVCRequestProc>.TStringItem>.RemoveItem
 0001:00033020       uMVCLite.{System.Generics.Collections}TList<StrList.TStringList<uMVCLite.TMVCRequestProc>.TStringItem>.Reverse
 0001:00031C30       uMVCLite.{System.Generics.Collections}TList<StrList.TStringList<uMVCLite.TMVCRequestProc>.TStringItem>.SetCapacity
 0001:00031C60       uMVCLite.{System.Generics.Collections}TList<StrList.TStringList<uMVCLite.TMVCRequestProc>.TStringItem>.SetCount
 0001:00031CD0       uMVCLite.{System.Generics.Collections}TList<StrList.TStringList<uMVCLite.TMVCRequestProc>.TStringItem>.SetItem
 0001:00031DB0       uMVCLite.{System.Generics.Collections}TList<StrList.TStringList<uMVCLite.TMVCRequestProc>.TStringItem>.SetOnNotify
 0001:000330C0       uMVCLite.{System.Generics.Collections}TList<StrList.TStringList<uMVCLite.TMVCRequestProc>.TStringItem>.Sort
 0001:00033080       uMVCLite.{System.Generics.Collections}TList<StrList.TStringList<uMVCLite.TMVCRequestProc>.TStringItem>.Sort
 0001:00033040       uMVCLite.{System.Generics.Collections}TList<StrList.TStringList<uMVCLite.TMVCRequestProc>.TStringItem>.Sort
 0001:000333E0       uMVCLite.{System.Generics.Collections}TList<StrList.TStringList<uMVCLite.TMVCRequestProc>.TStringItem>.TEnumerator.Create
 0001:000332B0       uMVCLite.{System.Generics.Collections}TList<StrList.TStringList<uMVCLite.TMVCRequestProc>.TStringItem>.TEnumerator.DoGetCurrent
 0001:000333C0       uMVCLite.{System.Generics.Collections}TList<StrList.TStringList<uMVCLite.TMVCRequestProc>.TStringItem>.TEnumerator.DoMoveNext
 0001:00033270       uMVCLite.{System.Generics.Collections}TList<StrList.TStringList<uMVCLite.TMVCRequestProc>.TStringItem>.TEnumerator.GetCurrent
 0001:000334A0       uMVCLite.{System.Generics.Collections}TList<StrList.TStringList<uMVCLite.TMVCRequestProc>.TStringItem>.TEnumerator.MoveNext
 0001:00033220       uMVCLite.{System.Generics.Collections}TList<StrList.TStringList<uMVCLite.TMVCRequestProc>.TStringItem>.ToArray
 0001:00033200       uMVCLite.{System.Generics.Collections}TList<StrList.TStringList<uMVCLite.TMVCRequestProc>.TStringItem>.TrimExcess
 0001:00031DF0       uMVCLite.{System.Generics.Collections}TList<StrList.TStringList<uMVCLite.TMVCRequestProc>.TStringItem>.UpdateComparer
 0001:00031D60       uMVCLite.{System.Generics.Collections}TList<StrList.TStringList<uMVCLite.TMVCRequestProc>.TStringItem>.UpdateNotify
 0001:00034880       uMVCLite.{System.Generics.Collections}TList<uModuleLib.IMVCRouter>.Add
 0001:000348E0       uMVCLite.{System.Generics.Collections}TList<uModuleLib.IMVCRouter>.AddRange
 0001:00034910       uMVCLite.{System.Generics.Collections}TList<uModuleLib.IMVCRouter>.AddRange
 0001:000348B0       uMVCLite.{System.Generics.Collections}TList<uModuleLib.IMVCRouter>.AddRange
 0001:000354D0       uMVCLite.{System.Generics.Collections}TList<uModuleLib.IMVCRouter>.BinarySearch
 0001:00035580       uMVCLite.{System.Generics.Collections}TList<uModuleLib.IMVCRouter>.BinarySearch
 0001:00035530       uMVCLite.{System.Generics.Collections}TList<uModuleLib.IMVCRouter>.BinarySearch
 0001:000352C0       uMVCLite.{System.Generics.Collections}TList<uModuleLib.IMVCRouter>.Clear
 0001:00035320       uMVCLite.{System.Generics.Collections}TList<uModuleLib.IMVCRouter>.Contains
 0001:000345D0       uMVCLite.{System.Generics.Collections}TList<uModuleLib.IMVCRouter>.Create
 0001:00034460       uMVCLite.{System.Generics.Collections}TList<uModuleLib.IMVCRouter>.Create
 0001:00034500       uMVCLite.{System.Generics.Collections}TList<uModuleLib.IMVCRouter>.Create
 0001:00034680       uMVCLite.{System.Generics.Collections}TList<uModuleLib.IMVCRouter>.Create
 0001:00034E90       uMVCLite.{System.Generics.Collections}TList<uModuleLib.IMVCRouter>.Delete
 0001:00034EB0       uMVCLite.{System.Generics.Collections}TList<uModuleLib.IMVCRouter>.DeleteRange
 0001:00034730       uMVCLite.{System.Generics.Collections}TList<uModuleLib.IMVCRouter>.Destroy
 0001:00034260       uMVCLite.{System.Generics.Collections}TList<uModuleLib.IMVCRouter>.DoDelete
 0001:00034400       uMVCLite.{System.Generics.Collections}TList<uModuleLib.IMVCRouter>.DoGetEnumerator
 0001:00034790       uMVCLite.{System.Generics.Collections}TList<uModuleLib.IMVCRouter>.Error
 0001:000347E0       uMVCLite.{System.Generics.Collections}TList<uModuleLib.IMVCRouter>.Error
 0001:000350E0       uMVCLite.{System.Generics.Collections}TList<uModuleLib.IMVCRouter>.Exchange
 0001:000352E0       uMVCLite.{System.Generics.Collections}TList<uModuleLib.IMVCRouter>.Expand
 0001:00034F30       uMVCLite.{System.Generics.Collections}TList<uModuleLib.IMVCRouter>.Extract
 0001:00035000       uMVCLite.{System.Generics.Collections}TList<uModuleLib.IMVCRouter>.ExtractAt
 0001:00034ED0       uMVCLite.{System.Generics.Collections}TList<uModuleLib.IMVCRouter>.ExtractItem
 0001:00035120       uMVCLite.{System.Generics.Collections}TList<uModuleLib.IMVCRouter>.First
 0001:00034120       uMVCLite.{System.Generics.Collections}TList<uModuleLib.IMVCRouter>.FListHelper
 0001:00034170       uMVCLite.{System.Generics.Collections}TList<uModuleLib.IMVCRouter>.GetCapacity
 0001:00035620       uMVCLite.{System.Generics.Collections}TList<uModuleLib.IMVCRouter>.GetEnumerator
 0001:000341D0       uMVCLite.{System.Generics.Collections}TList<uModuleLib.IMVCRouter>.GetItem
 0001:00034130       uMVCLite.{System.Generics.Collections}TList<uModuleLib.IMVCRouter>.GetList
 0001:00034160       uMVCLite.{System.Generics.Collections}TList<uModuleLib.IMVCRouter>.GetPList
 0001:00034240       uMVCLite.{System.Generics.Collections}TList<uModuleLib.IMVCRouter>.GrowCheck
 0001:00035350       uMVCLite.{System.Generics.Collections}TList<uModuleLib.IMVCRouter>.IndexOf
 0001:00035380       uMVCLite.{System.Generics.Collections}TList<uModuleLib.IMVCRouter>.IndexOfItem
 0001:00034940       uMVCLite.{System.Generics.Collections}TList<uModuleLib.IMVCRouter>.Insert
 0001:00034970       uMVCLite.{System.Generics.Collections}TList<uModuleLib.IMVCRouter>.InsertRange
 0001:000349A0       uMVCLite.{System.Generics.Collections}TList<uModuleLib.IMVCRouter>.InsertRange
 0001:000349D0       uMVCLite.{System.Generics.Collections}TList<uModuleLib.IMVCRouter>.InsertRange
 0001:00034AE0       uMVCLite.{System.Generics.Collections}TList<uModuleLib.IMVCRouter>.InsertRange
 0001:00034310       uMVCLite.{System.Generics.Collections}TList<uModuleLib.IMVCRouter>.InternalCompare
 0001:00034280       uMVCLite.{System.Generics.Collections}TList<uModuleLib.IMVCRouter>.InternalNotify
 0001:00034390       uMVCLite.{System.Generics.Collections}TList<uModuleLib.IMVCRouter>.ItemValue
 0001:000351F0       uMVCLite.{System.Generics.Collections}TList<uModuleLib.IMVCRouter>.Last
 0001:000353C0       uMVCLite.{System.Generics.Collections}TList<uModuleLib.IMVCRouter>.LastIndexOf
 0001:00035100       uMVCLite.{System.Generics.Collections}TList<uModuleLib.IMVCRouter>.Move
 0001:00034420       uMVCLite.{System.Generics.Collections}TList<uModuleLib.IMVCRouter>.Notify
 0001:00034C80       uMVCLite.{System.Generics.Collections}TList<uModuleLib.IMVCRouter>.Pack
 0001:00034D50       uMVCLite.{System.Generics.Collections}TList<uModuleLib.IMVCRouter>.Pack
 0001:00034E20       uMVCLite.{System.Generics.Collections}TList<uModuleLib.IMVCRouter>.Remove
 0001:00034E50       uMVCLite.{System.Generics.Collections}TList<uModuleLib.IMVCRouter>.RemoveItem
 0001:000353F0       uMVCLite.{System.Generics.Collections}TList<uModuleLib.IMVCRouter>.Reverse
 0001:00034180       uMVCLite.{System.Generics.Collections}TList<uModuleLib.IMVCRouter>.SetCapacity
 0001:000341B0       uMVCLite.{System.Generics.Collections}TList<uModuleLib.IMVCRouter>.SetCount
 0001:00034210       uMVCLite.{System.Generics.Collections}TList<uModuleLib.IMVCRouter>.SetItem
 0001:000342F0       uMVCLite.{System.Generics.Collections}TList<uModuleLib.IMVCRouter>.SetOnNotify
 0001:00035490       uMVCLite.{System.Generics.Collections}TList<uModuleLib.IMVCRouter>.Sort
 0001:00035410       uMVCLite.{System.Generics.Collections}TList<uModuleLib.IMVCRouter>.Sort
 0001:00035450       uMVCLite.{System.Generics.Collections}TList<uModuleLib.IMVCRouter>.Sort
 0001:00035760       uMVCLite.{System.Generics.Collections}TList<uModuleLib.IMVCRouter>.TEnumerator.Create
 0001:00035670       uMVCLite.{System.Generics.Collections}TList<uModuleLib.IMVCRouter>.TEnumerator.DoGetCurrent
 0001:00035740       uMVCLite.{System.Generics.Collections}TList<uModuleLib.IMVCRouter>.TEnumerator.DoMoveNext
 0001:00035640       uMVCLite.{System.Generics.Collections}TList<uModuleLib.IMVCRouter>.TEnumerator.GetCurrent
 0001:00035820       uMVCLite.{System.Generics.Collections}TList<uModuleLib.IMVCRouter>.TEnumerator.MoveNext
 0001:000355F0       uMVCLite.{System.Generics.Collections}TList<uModuleLib.IMVCRouter>.ToArray
 0001:000355D0       uMVCLite.{System.Generics.Collections}TList<uModuleLib.IMVCRouter>.TrimExcess
 0001:00034330       uMVCLite.{System.Generics.Collections}TList<uModuleLib.IMVCRouter>.UpdateComparer
 0001:000342A0       uMVCLite.{System.Generics.Collections}TList<uModuleLib.IMVCRouter>.UpdateNotify
 0001:00035910       uMVCLite.{System.Generics.Defaults}TComparer<StrList.TStringList<uMVCLite.TMVCRequestProc>.TStringItem>._Default
 0001:00035C60       uMVCLite.{System.Generics.Defaults}TComparer<uModuleLib.IMVCRouter>._Default
 0005:00003BD0       uOEMDisp.$pdata$_ZN8Uoemdisp12FinalizationEv
 0005:00003BDC       uOEMDisp.$pdata$_ZN8Uoemdisp14initializationEv
 0005:00003BAC       uOEMDisp.$pdata$_ZN8Uoemdisp14TOEMDispConfig10GetOEMTypeEv
 0005:00003BA0       uOEMDisp.$pdata$_ZN8Uoemdisp14TOEMDispConfig15GetIsFullScreenEv
 0005:00003B7C       uOEMDisp.$pdata$_ZN8Uoemdisp14TOEMDispConfig18GetHideLogoAtAboutEv
 0005:00003B94       uOEMDisp.$pdata$_ZN8Uoemdisp14TOEMDispConfig18GetHideOEMAtSplashEv
 0005:00003B88       uOEMDisp.$pdata$_ZN8Uoemdisp14TOEMDispConfig19GetHideLogoAtSplashEv
 0005:00003BB8       uOEMDisp.$pdata$_ZN8Uoemdisp14TOEMDispConfig8LoadJsonEN6System15DelphiInterfaceIN11Superobject12ISuperObjectEEE
 0005:00003B58       uOEMDisp.$pdata$_ZN8Uoemdisp14TOEMDispConfigC3Ev
 0002:0000556C       uOEMDisp.$unwind$_ZN8Uoemdisp12FinalizationEv
 0002:00005574       uOEMDisp.$unwind$_ZN8Uoemdisp14initializationEv
 0002:00005538       uOEMDisp.$unwind$_ZN8Uoemdisp14TOEMDispConfig10GetOEMTypeEv
 0002:00005534       uOEMDisp.$unwind$_ZN8Uoemdisp14TOEMDispConfig15GetIsFullScreenEv
 0002:00005528       uOEMDisp.$unwind$_ZN8Uoemdisp14TOEMDispConfig18GetHideLogoAtAboutEv
 0002:00005530       uOEMDisp.$unwind$_ZN8Uoemdisp14TOEMDispConfig18GetHideOEMAtSplashEv
 0002:0000552C       uOEMDisp.$unwind$_ZN8Uoemdisp14TOEMDispConfig19GetHideLogoAtSplashEv
 0002:0000553C       uOEMDisp.$unwind$_ZN8Uoemdisp14TOEMDispConfig8LoadJsonEN6System15DelphiInterfaceIN11Superobject12ISuperObjectEEE
 0002:000054D0       uOEMDisp.$unwind$_ZN8Uoemdisp14TOEMDispConfigC3Ev
 0001:000387D0       uOEMDisp...TOEMDispConfig
 0003:00000130       uOEMDisp..2
 0001:00038898       uOEMDisp..TOEMDispConfig
 0001:00038F60       uOEMDisp.Finalization
 0003:00000128       uOEMDisp.GOEMDispConfig
 0001:00038B90       uOEMDisp.TOEMDispConfig.Create
 0001:00038D10       uOEMDisp.TOEMDispConfig.GetHideLogoAtAbout
 0001:00038D20       uOEMDisp.TOEMDispConfig.GetHideLogoAtSplash
 0001:00038D30       uOEMDisp.TOEMDispConfig.GetHideOEMAtSplash
 0001:00038D40       uOEMDisp.TOEMDispConfig.GetIsFullScreen
 0001:00038D50       uOEMDisp.TOEMDispConfig.GetOEMType
 0001:00038D60       uOEMDisp.TOEMDispConfig.LoadJson
 0001:00038FB0       uOEMDisp.uOEMDisp
 0005:000009B4       uProcess.$pdata$_ZN12Mvcframework5Beans7Factory4Util17TBeanFactoryUtils29BeansOfTypeIncludingAncestorsIN6System15DelphiInterfaceIN8Uprocess12IProcessBeanEEEEEPNS5_8Generics11Collections8TList__1IT_EERK5_GUID
 0005:00000510       uProcess.$pdata$_ZN6System8Generics11Collections14TEnumerable__1INS_15DelphiInterfaceIN8Uprocess12IProcessBeanEEEE11ToArrayImplEi
 0005:00000540       uProcess.$pdata$_ZN6System8Generics11Collections14TEnumerable__1INS_15DelphiInterfaceIN8Uprocess12IProcessBeanEEEE13GetEnumeratorEv
 0005:0000054C       uProcess.$pdata$_ZN6System8Generics11Collections14TEnumerable__1INS_15DelphiInterfaceIN8Uprocess12IProcessBeanEEEE7ToArrayEv
 0005:00000534       uProcess.$pdata$_ZN6System8Generics11Collections14TEnumerable__1INS_15DelphiInterfaceIN8Uprocess12IProcessBeanEEEED0Ev
 0005:00000570       uProcess.$pdata$_ZN6System8Generics11Collections14TEnumerator__1INS_15DelphiInterfaceIN8Uprocess12IProcessBeanEEEE8MoveNextEv
 0005:000009F0       uProcess.$pdata$_ZN6System8Generics11Collections24@TList__1_Pack_0__ActRecINS_15DelphiInterfaceIN8Uprocess12IProcessBeanEEEE7_0_BodyEPKv
 0005:000009E4       uProcess.$pdata$_ZN6System8Generics11Collections24@TList__1_Pack_1__ActRecINS_15DelphiInterfaceIN8Uprocess12IProcessBeanEEEE7_0_BodyEPKv
 0005:00000A08       uProcess.$pdata$_ZN6System8Generics11Collections6TArray12BinarySearchINS_15DelphiInterfaceIN8Uprocess12IProcessBeanEEEEEbPKT_iS9_RiNS4_INS0_8Defaults12IComparer__1IS9_EEEEii
 0005:000009FC       uProcess.$pdata$_ZN6System8Generics11Collections6TArray4SortINS_15DelphiInterfaceIN8Uprocess12IProcessBeanEEEEEvPT_iNS4_INS0_8Defaults12IComparer__1IS9_EEEEii
 0005:00000A14       uProcess.$pdata$_ZN6System8Generics11Collections6TArray9QuickSortINS_15DelphiInterfaceIN8Uprocess12IProcessBeanEEEEEvPT_iNS4_INS0_8Defaults12IComparer__1IS9_EEEEii
 0005:000007BC       uProcess.$pdata$_ZN6System8Generics11Collections8TList__1INS_15DelphiInterfaceIN8Uprocess12IProcessBeanEEEE10RemoveItemES6_NS_5Types10TDirectionE
 0005:00000930       uProcess.$pdata$_ZN6System8Generics11Collections8TList__1INS_15DelphiInterfaceIN8Uprocess12IProcessBeanEEEE10TrimExcessEv
 0005:000007D4       uProcess.$pdata$_ZN6System8Generics11Collections8TList__1INS_15DelphiInterfaceIN8Uprocess12IProcessBeanEEEE11DeleteRangeEii
 0005:000007E0       uProcess.$pdata$_ZN6System8Generics11Collections8TList__1INS_15DelphiInterfaceIN8Uprocess12IProcessBeanEEEE11ExtractItemES6_NS_5Types10TDirectionE
 0005:0000057C       uProcess.$pdata$_ZN6System8Generics11Collections8TList__1INS_15DelphiInterfaceIN8Uprocess12IProcessBeanEEEE11FListHelperEv
 0005:000005A0       uProcess.$pdata$_ZN6System8Generics11Collections8TList__1INS_15DelphiInterfaceIN8Uprocess12IProcessBeanEEEE11GetCapacityEv
 0005:000008C4       uProcess.$pdata$_ZN6System8Generics11Collections8TList__1INS_15DelphiInterfaceIN8Uprocess12IProcessBeanEEEE11IndexOfItemES6_NS_5Types10TDirectionE
 0005:00000738       uProcess.$pdata$_ZN6System8Generics11Collections8TList__1INS_15DelphiInterfaceIN8Uprocess12IProcessBeanEEEE11InsertRangeEiNS3_INS_14IEnumerable__1IS6_EEEE
 0005:0000072C       uProcess.$pdata$_ZN6System8Generics11Collections8TList__1INS_15DelphiInterfaceIN8Uprocess12IProcessBeanEEEE11InsertRangeEiPKS6_i
 0005:00000720       uProcess.$pdata$_ZN6System8Generics11Collections8TList__1INS_15DelphiInterfaceIN8Uprocess12IProcessBeanEEEE11InsertRangeEiPKS6_ii
 0005:0000075C       uProcess.$pdata$_ZN6System8Generics11Collections8TList__1INS_15DelphiInterfaceIN8Uprocess12IProcessBeanEEEE11InsertRangeEiPNS1_14TEnumerable__1IS6_EE
 0005:000008D0       uProcess.$pdata$_ZN6System8Generics11Collections8TList__1INS_15DelphiInterfaceIN8Uprocess12IProcessBeanEEEE11LastIndexOfES6_
 0005:000005AC       uProcess.$pdata$_ZN6System8Generics11Collections8TList__1INS_15DelphiInterfaceIN8Uprocess12IProcessBeanEEEE11SetCapacityEi
 0005:0000060C       uProcess.$pdata$_ZN6System8Generics11Collections8TList__1INS_15DelphiInterfaceIN8Uprocess12IProcessBeanEEEE11SetOnNotifyEU9__closurePFvPNS_7TObjectES6_NS1_23TCollectionNotificationEE
 0005:00000984       uProcess.$pdata$_ZN6System8Generics11Collections8TList__1INS_15DelphiInterfaceIN8Uprocess12IProcessBeanEEEE11TEnumerator10DoMoveNextEv
 0005:00000954       uProcess.$pdata$_ZN6System8Generics11Collections8TList__1INS_15DelphiInterfaceIN8Uprocess12IProcessBeanEEEE11TEnumerator10GetCurrentEv
 0005:00000960       uProcess.$pdata$_ZN6System8Generics11Collections8TList__1INS_15DelphiInterfaceIN8Uprocess12IProcessBeanEEEE11TEnumerator12DoGetCurrentEv
 0005:000009A8       uProcess.$pdata$_ZN6System8Generics11Collections8TList__1INS_15DelphiInterfaceIN8Uprocess12IProcessBeanEEEE11TEnumerator8MoveNextEv
 0005:00000990       uProcess.$pdata$_ZN6System8Generics11Collections8TList__1INS_15DelphiInterfaceIN8Uprocess12IProcessBeanEEEE11TEnumeratorC3EPS7_
 0005:0000090C       uProcess.$pdata$_ZN6System8Generics11Collections8TList__1INS_15DelphiInterfaceIN8Uprocess12IProcessBeanEEEE12BinarySearchES6_Ri
 0005:00000918       uProcess.$pdata$_ZN6System8Generics11Collections8TList__1INS_15DelphiInterfaceIN8Uprocess12IProcessBeanEEEE12BinarySearchES6_RiNS3_INS0_8Defaults12IComparer__1IS6_EEEE
 0005:00000924       uProcess.$pdata$_ZN6System8Generics11Collections8TList__1INS_15DelphiInterfaceIN8Uprocess12IProcessBeanEEEE12BinarySearchES6_RiNS3_INS0_8Defaults12IComparer__1IS6_EEEEii
 0005:00000600       uProcess.$pdata$_ZN6System8Generics11Collections8TList__1INS_15DelphiInterfaceIN8Uprocess12IProcessBeanEEEE12UpdateNotifyEv
 0005:00000948       uProcess.$pdata$_ZN6System8Generics11Collections8TList__1INS_15DelphiInterfaceIN8Uprocess12IProcessBeanEEEE13GetEnumeratorEv
 0005:000005F4       uProcess.$pdata$_ZN6System8Generics11Collections8TList__1INS_15DelphiInterfaceIN8Uprocess12IProcessBeanEEEE14InternalNotifyEPKvNS1_23TCollectionNotificationE
 0005:00000624       uProcess.$pdata$_ZN6System8Generics11Collections8TList__1INS_15DelphiInterfaceIN8Uprocess12IProcessBeanEEEE14UpdateComparerENS3_INS0_8Defaults12IComparer__1IS6_EEEE
 0005:0000063C       uProcess.$pdata$_ZN6System8Generics11Collections8TList__1INS_15DelphiInterfaceIN8Uprocess12IProcessBeanEEEE15DoGetEnumeratorEv
 0005:00000618       uProcess.$pdata$_ZN6System8Generics11Collections8TList__1INS_15DelphiInterfaceIN8Uprocess12IProcessBeanEEEE15InternalCompareEPKvS9_
 0005:000006E4       uProcess.$pdata$_ZN6System8Generics11Collections8TList__1INS_15DelphiInterfaceIN8Uprocess12IProcessBeanEEEE3AddES6_
 0005:00000870       uProcess.$pdata$_ZN6System8Generics11Collections8TList__1INS_15DelphiInterfaceIN8Uprocess12IProcessBeanEEEE4LastEv
 0005:00000840       uProcess.$pdata$_ZN6System8Generics11Collections8TList__1INS_15DelphiInterfaceIN8Uprocess12IProcessBeanEEEE4MoveEii
 0005:00000798       uProcess.$pdata$_ZN6System8Generics11Collections8TList__1INS_15DelphiInterfaceIN8Uprocess12IProcessBeanEEEE4PackENS3_INS7_10TEmptyFuncEEE
 0005:00000780       uProcess.$pdata$_ZN6System8Generics11Collections8TList__1INS_15DelphiInterfaceIN8Uprocess12IProcessBeanEEEE4PackEv
 0005:000008F4       uProcess.$pdata$_ZN6System8Generics11Collections8TList__1INS_15DelphiInterfaceIN8Uprocess12IProcessBeanEEEE4SortENS3_INS0_8Defaults12IComparer__1IS6_EEEE
 0005:00000900       uProcess.$pdata$_ZN6System8Generics11Collections8TList__1INS_15DelphiInterfaceIN8Uprocess12IProcessBeanEEEE4SortENS3_INS0_8Defaults12IComparer__1IS6_EEEEii
 0005:000008E8       uProcess.$pdata$_ZN6System8Generics11Collections8TList__1INS_15DelphiInterfaceIN8Uprocess12IProcessBeanEEEE4SortEv
 0005:00000894       uProcess.$pdata$_ZN6System8Generics11Collections8TList__1INS_15DelphiInterfaceIN8Uprocess12IProcessBeanEEEE5ClearEv
 0005:000006C0       uProcess.$pdata$_ZN6System8Generics11Collections8TList__1INS_15DelphiInterfaceIN8Uprocess12IProcessBeanEEEE5ErrorENS_13UnicodeStringEx
 0005:000006CC       uProcess.$pdata$_ZN6System8Generics11Collections8TList__1INS_15DelphiInterfaceIN8Uprocess12IProcessBeanEEEE5ErrorEPNS_13TResStringRecEx
 0005:0000084C       uProcess.$pdata$_ZN6System8Generics11Collections8TList__1INS_15DelphiInterfaceIN8Uprocess12IProcessBeanEEEE5FirstEv
 0005:000007C8       uProcess.$pdata$_ZN6System8Generics11Collections8TList__1INS_15DelphiInterfaceIN8Uprocess12IProcessBeanEEEE6DeleteEi
 0005:000008A0       uProcess.$pdata$_ZN6System8Generics11Collections8TList__1INS_15DelphiInterfaceIN8Uprocess12IProcessBeanEEEE6ExpandEv
 0005:00000714       uProcess.$pdata$_ZN6System8Generics11Collections8TList__1INS_15DelphiInterfaceIN8Uprocess12IProcessBeanEEEE6InsertEiS6_
 0005:00000648       uProcess.$pdata$_ZN6System8Generics11Collections8TList__1INS_15DelphiInterfaceIN8Uprocess12IProcessBeanEEEE6NotifyES6_NS1_23TCollectionNotificationE
 0005:000007B0       uProcess.$pdata$_ZN6System8Generics11Collections8TList__1INS_15DelphiInterfaceIN8Uprocess12IProcessBeanEEEE6RemoveES6_
 0005:000007EC       uProcess.$pdata$_ZN6System8Generics11Collections8TList__1INS_15DelphiInterfaceIN8Uprocess12IProcessBeanEEEE7ExtractES6_
 0005:000005C4       uProcess.$pdata$_ZN6System8Generics11Collections8TList__1INS_15DelphiInterfaceIN8Uprocess12IProcessBeanEEEE7GetItemEi
 0005:00000588       uProcess.$pdata$_ZN6System8Generics11Collections8TList__1INS_15DelphiInterfaceIN8Uprocess12IProcessBeanEEEE7GetListEv
 0005:000008B8       uProcess.$pdata$_ZN6System8Generics11Collections8TList__1INS_15DelphiInterfaceIN8Uprocess12IProcessBeanEEEE7IndexOfES6_
 0005:000008DC       uProcess.$pdata$_ZN6System8Generics11Collections8TList__1INS_15DelphiInterfaceIN8Uprocess12IProcessBeanEEEE7ReverseEv
 0005:000005D0       uProcess.$pdata$_ZN6System8Generics11Collections8TList__1INS_15DelphiInterfaceIN8Uprocess12IProcessBeanEEEE7SetItemEiS6_
 0005:0000093C       uProcess.$pdata$_ZN6System8Generics11Collections8TList__1INS_15DelphiInterfaceIN8Uprocess12IProcessBeanEEEE7ToArrayEv
 0005:000006FC       uProcess.$pdata$_ZN6System8Generics11Collections8TList__1INS_15DelphiInterfaceIN8Uprocess12IProcessBeanEEEE8AddRangeENS3_INS_14IEnumerable__1IS6_EEEE
 0005:000006F0       uProcess.$pdata$_ZN6System8Generics11Collections8TList__1INS_15DelphiInterfaceIN8Uprocess12IProcessBeanEEEE8AddRangeEPKS6_i
 0005:00000708       uProcess.$pdata$_ZN6System8Generics11Collections8TList__1INS_15DelphiInterfaceIN8Uprocess12IProcessBeanEEEE8AddRangeEPNS1_14TEnumerable__1IS6_EE
 0005:000008AC       uProcess.$pdata$_ZN6System8Generics11Collections8TList__1INS_15DelphiInterfaceIN8Uprocess12IProcessBeanEEEE8ContainsES6_
 0005:000005E8       uProcess.$pdata$_ZN6System8Generics11Collections8TList__1INS_15DelphiInterfaceIN8Uprocess12IProcessBeanEEEE8DoDeleteEiNS1_23TCollectionNotificationE
 0005:00000834       uProcess.$pdata$_ZN6System8Generics11Collections8TList__1INS_15DelphiInterfaceIN8Uprocess12IProcessBeanEEEE8ExchangeEii
 0005:00000594       uProcess.$pdata$_ZN6System8Generics11Collections8TList__1INS_15DelphiInterfaceIN8Uprocess12IProcessBeanEEEE8GetPListEv
 0005:000005B8       uProcess.$pdata$_ZN6System8Generics11Collections8TList__1INS_15DelphiInterfaceIN8Uprocess12IProcessBeanEEEE8SetCountEi
 0005:00000810       uProcess.$pdata$_ZN6System8Generics11Collections8TList__1INS_15DelphiInterfaceIN8Uprocess12IProcessBeanEEEE9ExtractAtEi
 0005:000005DC       uProcess.$pdata$_ZN6System8Generics11Collections8TList__1INS_15DelphiInterfaceIN8Uprocess12IProcessBeanEEEE9GrowCheckEi
 0005:00000630       uProcess.$pdata$_ZN6System8Generics11Collections8TList__1INS_15DelphiInterfaceIN8Uprocess12IProcessBeanEEEE9ItemValueES6_
 0005:0000066C       uProcess.$pdata$_ZN6System8Generics11Collections8TList__1INS_15DelphiInterfaceIN8Uprocess12IProcessBeanEEEEC3ENS3_INS0_8Defaults12IComparer__1IS6_EEEE
 0005:0000069C       uProcess.$pdata$_ZN6System8Generics11Collections8TList__1INS_15DelphiInterfaceIN8Uprocess12IProcessBeanEEEEC3EPKS6_i
 0005:00000684       uProcess.$pdata$_ZN6System8Generics11Collections8TList__1INS_15DelphiInterfaceIN8Uprocess12IProcessBeanEEEEC3EPNS1_14TEnumerable__1IS6_EE
 0005:00000654       uProcess.$pdata$_ZN6System8Generics11Collections8TList__1INS_15DelphiInterfaceIN8Uprocess12IProcessBeanEEEEC3Ev
 0005:000006B4       uProcess.$pdata$_ZN6System8Generics11Collections8TList__1INS_15DelphiInterfaceIN8Uprocess12IProcessBeanEEEED0Ev
 0005:000009D8       uProcess.$pdata$_ZN6System8Generics8Defaults12TComparer__1INS_15DelphiInterfaceIN8Uprocess12IProcessBeanEEEE8_DefaultEv
 0005:000004F8       uProcess.$pdata$_ZN8Uprocess12FinalizationEv
 0005:00000504       uProcess.$pdata$_ZN8Uprocess14initializationEv
 0005:000004C8       uProcess.$pdata$_ZN8Uprocess14TProcessHander7ProcessEv
 0005:000004EC       uProcess.$pdata$_ZN8Uprocess14TProcessHanderD0Ev
 0002:000009BC       uProcess.$unwind$_ZN12Mvcframework5Beans7Factory4Util17TBeanFactoryUtils29BeansOfTypeIncludingAncestorsIN6System15DelphiInterfaceIN8Uprocess12IProcessBeanEEEEEPNS5_8Generics11Collections8TList__1IT_EERK5_GUID
 0002:00000354       uProcess.$unwind$_ZN6System8Generics11Collections14TEnumerable__1INS_15DelphiInterfaceIN8Uprocess12IProcessBeanEEEE11ToArrayImplEi
 0002:000003AC       uProcess.$unwind$_ZN6System8Generics11Collections14TEnumerable__1INS_15DelphiInterfaceIN8Uprocess12IProcessBeanEEEE13GetEnumeratorEv
 0002:000003B4       uProcess.$unwind$_ZN6System8Generics11Collections14TEnumerable__1INS_15DelphiInterfaceIN8Uprocess12IProcessBeanEEEE7ToArrayEv
 0002:000003A0       uProcess.$unwind$_ZN6System8Generics11Collections14TEnumerable__1INS_15DelphiInterfaceIN8Uprocess12IProcessBeanEEEED0Ev
 0002:00000400       uProcess.$unwind$_ZN6System8Generics11Collections14TEnumerator__1INS_15DelphiInterfaceIN8Uprocess12IProcessBeanEEEE8MoveNextEv
 0002:00000A28       uProcess.$unwind$_ZN6System8Generics11Collections24@TList__1_Pack_0__ActRecINS_15DelphiInterfaceIN8Uprocess12IProcessBeanEEEE7_0_BodyEPKv
 0002:00000A20       uProcess.$unwind$_ZN6System8Generics11Collections24@TList__1_Pack_1__ActRecINS_15DelphiInterfaceIN8Uprocess12IProcessBeanEEEE7_0_BodyEPKv
 0002:00000A3C       uProcess.$unwind$_ZN6System8Generics11Collections6TArray12BinarySearchINS_15DelphiInterfaceIN8Uprocess12IProcessBeanEEEEEbPKT_iS9_RiNS4_INS0_8Defaults12IComparer__1IS9_EEEEii
 0002:00000A30       uProcess.$unwind$_ZN6System8Generics11Collections6TArray4SortINS_15DelphiInterfaceIN8Uprocess12IProcessBeanEEEEEvPT_iNS4_INS0_8Defaults12IComparer__1IS9_EEEEii
 0002:00000A4C       uProcess.$unwind$_ZN6System8Generics11Collections6TArray9QuickSortINS_15DelphiInterfaceIN8Uprocess12IProcessBeanEEEEEvPT_iNS4_INS0_8Defaults12IComparer__1IS9_EEEEii
 0002:00000724       uProcess.$unwind$_ZN6System8Generics11Collections8TList__1INS_15DelphiInterfaceIN8Uprocess12IProcessBeanEEEE10RemoveItemES6_NS_5Types10TDirectionE
 0002:0000090C       uProcess.$unwind$_ZN6System8Generics11Collections8TList__1INS_15DelphiInterfaceIN8Uprocess12IProcessBeanEEEE10TrimExcessEv
 0002:00000738       uProcess.$unwind$_ZN6System8Generics11Collections8TList__1INS_15DelphiInterfaceIN8Uprocess12IProcessBeanEEEE11DeleteRangeEii
 0002:00000740       uProcess.$unwind$_ZN6System8Generics11Collections8TList__1INS_15DelphiInterfaceIN8Uprocess12IProcessBeanEEEE11ExtractItemES6_NS_5Types10TDirectionE
 0002:00000408       uProcess.$unwind$_ZN6System8Generics11Collections8TList__1INS_15DelphiInterfaceIN8Uprocess12IProcessBeanEEEE11FListHelperEv
 0002:00000418       uProcess.$unwind$_ZN6System8Generics11Collections8TList__1INS_15DelphiInterfaceIN8Uprocess12IProcessBeanEEEE11GetCapacityEv
 0002:000008B8       uProcess.$unwind$_ZN6System8Generics11Collections8TList__1INS_15DelphiInterfaceIN8Uprocess12IProcessBeanEEEE11IndexOfItemES6_NS_5Types10TDirectionE
 0002:00000618       uProcess.$unwind$_ZN6System8Generics11Collections8TList__1INS_15DelphiInterfaceIN8Uprocess12IProcessBeanEEEE11InsertRangeEiNS3_INS_14IEnumerable__1IS6_EEEE
 0002:00000610       uProcess.$unwind$_ZN6System8Generics11Collections8TList__1INS_15DelphiInterfaceIN8Uprocess12IProcessBeanEEEE11InsertRangeEiPKS6_i
 0002:00000608       uProcess.$unwind$_ZN6System8Generics11Collections8TList__1INS_15DelphiInterfaceIN8Uprocess12IProcessBeanEEEE11InsertRangeEiPKS6_ii
 0002:00000664       uProcess.$unwind$_ZN6System8Generics11Collections8TList__1INS_15DelphiInterfaceIN8Uprocess12IProcessBeanEEEE11InsertRangeEiPNS1_14TEnumerable__1IS6_EE
 0002:000008C4       uProcess.$unwind$_ZN6System8Generics11Collections8TList__1INS_15DelphiInterfaceIN8Uprocess12IProcessBeanEEEE11LastIndexOfES6_
 0002:0000041C       uProcess.$unwind$_ZN6System8Generics11Collections8TList__1INS_15DelphiInterfaceIN8Uprocess12IProcessBeanEEEE11SetCapacityEi
 0002:0000046C       uProcess.$unwind$_ZN6System8Generics11Collections8TList__1INS_15DelphiInterfaceIN8Uprocess12IProcessBeanEEEE11SetOnNotifyEU9__closurePFvPNS_7TObjectES6_NS1_23TCollectionNotificationEE
 0002:00000978       uProcess.$unwind$_ZN6System8Generics11Collections8TList__1INS_15DelphiInterfaceIN8Uprocess12IProcessBeanEEEE11TEnumerator10DoMoveNextEv
 0002:00000924       uProcess.$unwind$_ZN6System8Generics11Collections8TList__1INS_15DelphiInterfaceIN8Uprocess12IProcessBeanEEEE11TEnumerator10GetCurrentEv
 0002:0000092C       uProcess.$unwind$_ZN6System8Generics11Collections8TList__1INS_15DelphiInterfaceIN8Uprocess12IProcessBeanEEEE11TEnumerator12DoGetCurrentEv
 0002:000009B8       uProcess.$unwind$_ZN6System8Generics11Collections8TList__1INS_15DelphiInterfaceIN8Uprocess12IProcessBeanEEEE11TEnumerator8MoveNextEv
 0002:0000097C       uProcess.$unwind$_ZN6System8Generics11Collections8TList__1INS_15DelphiInterfaceIN8Uprocess12IProcessBeanEEEE11TEnumeratorC3EPS7_
 0002:000008F4       uProcess.$unwind$_ZN6System8Generics11Collections8TList__1INS_15DelphiInterfaceIN8Uprocess12IProcessBeanEEEE12BinarySearchES6_Ri
 0002:000008FC       uProcess.$unwind$_ZN6System8Generics11Collections8TList__1INS_15DelphiInterfaceIN8Uprocess12IProcessBeanEEEE12BinarySearchES6_RiNS3_INS0_8Defaults12IComparer__1IS6_EEEE
 0002:00000904       uProcess.$unwind$_ZN6System8Generics11Collections8TList__1INS_15DelphiInterfaceIN8Uprocess12IProcessBeanEEEE12BinarySearchES6_RiNS3_INS0_8Defaults12IComparer__1IS6_EEEEii
 0002:00000460       uProcess.$unwind$_ZN6System8Generics11Collections8TList__1INS_15DelphiInterfaceIN8Uprocess12IProcessBeanEEEE12UpdateNotifyEv
 0002:0000091C       uProcess.$unwind$_ZN6System8Generics11Collections8TList__1INS_15DelphiInterfaceIN8Uprocess12IProcessBeanEEEE13GetEnumeratorEv
 0002:00000458       uProcess.$unwind$_ZN6System8Generics11Collections8TList__1INS_15DelphiInterfaceIN8Uprocess12IProcessBeanEEEE14InternalNotifyEPKvNS1_23TCollectionNotificationE
 0002:00000480       uProcess.$unwind$_ZN6System8Generics11Collections8TList__1INS_15DelphiInterfaceIN8Uprocess12IProcessBeanEEEE14UpdateComparerENS3_INS0_8Defaults12IComparer__1IS6_EEEE
 0002:00000490       uProcess.$unwind$_ZN6System8Generics11Collections8TList__1INS_15DelphiInterfaceIN8Uprocess12IProcessBeanEEEE15DoGetEnumeratorEv
 0002:00000478       uProcess.$unwind$_ZN6System8Generics11Collections8TList__1INS_15DelphiInterfaceIN8Uprocess12IProcessBeanEEEE15InternalCompareEPKvS9_
 0002:000005D8       uProcess.$unwind$_ZN6System8Generics11Collections8TList__1INS_15DelphiInterfaceIN8Uprocess12IProcessBeanEEEE3AddES6_
 0002:00000844       uProcess.$unwind$_ZN6System8Generics11Collections8TList__1INS_15DelphiInterfaceIN8Uprocess12IProcessBeanEEEE4LastEv
 0002:000007F0       uProcess.$unwind$_ZN6System8Generics11Collections8TList__1INS_15DelphiInterfaceIN8Uprocess12IProcessBeanEEEE4MoveEii
 0002:000006E8       uProcess.$unwind$_ZN6System8Generics11Collections8TList__1INS_15DelphiInterfaceIN8Uprocess12IProcessBeanEEEE4PackENS3_INS7_10TEmptyFuncEEE
 0002:000006B4       uProcess.$unwind$_ZN6System8Generics11Collections8TList__1INS_15DelphiInterfaceIN8Uprocess12IProcessBeanEEEE4PackEv
 0002:000008E4       uProcess.$unwind$_ZN6System8Generics11Collections8TList__1INS_15DelphiInterfaceIN8Uprocess12IProcessBeanEEEE4SortENS3_INS0_8Defaults12IComparer__1IS6_EEEE
 0002:000008EC       uProcess.$unwind$_ZN6System8Generics11Collections8TList__1INS_15DelphiInterfaceIN8Uprocess12IProcessBeanEEEE4SortENS3_INS0_8Defaults12IComparer__1IS6_EEEEii
 0002:000008DC       uProcess.$unwind$_ZN6System8Generics11Collections8TList__1INS_15DelphiInterfaceIN8Uprocess12IProcessBeanEEEE4SortEv
 0002:00000890       uProcess.$unwind$_ZN6System8Generics11Collections8TList__1INS_15DelphiInterfaceIN8Uprocess12IProcessBeanEEEE5ClearEv
 0002:0000059C       uProcess.$unwind$_ZN6System8Generics11Collections8TList__1INS_15DelphiInterfaceIN8Uprocess12IProcessBeanEEEE5ErrorENS_13UnicodeStringEx
 0002:000005A8       uProcess.$unwind$_ZN6System8Generics11Collections8TList__1INS_15DelphiInterfaceIN8Uprocess12IProcessBeanEEEE5ErrorEPNS_13TResStringRecEx
 0002:000007F8       uProcess.$unwind$_ZN6System8Generics11Collections8TList__1INS_15DelphiInterfaceIN8Uprocess12IProcessBeanEEEE5FirstEv
 0002:00000730       uProcess.$unwind$_ZN6System8Generics11Collections8TList__1INS_15DelphiInterfaceIN8Uprocess12IProcessBeanEEEE6DeleteEi
 0002:00000898       uProcess.$unwind$_ZN6System8Generics11Collections8TList__1INS_15DelphiInterfaceIN8Uprocess12IProcessBeanEEEE6ExpandEv
 0002:000005FC       uProcess.$unwind$_ZN6System8Generics11Collections8TList__1INS_15DelphiInterfaceIN8Uprocess12IProcessBeanEEEE6InsertEiS6_
 0002:00000498       uProcess.$unwind$_ZN6System8Generics11Collections8TList__1INS_15DelphiInterfaceIN8Uprocess12IProcessBeanEEEE6NotifyES6_NS1_23TCollectionNotificationE
 0002:00000718       uProcess.$unwind$_ZN6System8Generics11Collections8TList__1INS_15DelphiInterfaceIN8Uprocess12IProcessBeanEEEE6RemoveES6_
 0002:0000074C       uProcess.$unwind$_ZN6System8Generics11Collections8TList__1INS_15DelphiInterfaceIN8Uprocess12IProcessBeanEEEE7ExtractES6_
 0002:00000430       uProcess.$unwind$_ZN6System8Generics11Collections8TList__1INS_15DelphiInterfaceIN8Uprocess12IProcessBeanEEEE7GetItemEi
 0002:0000040C       uProcess.$unwind$_ZN6System8Generics11Collections8TList__1INS_15DelphiInterfaceIN8Uprocess12IProcessBeanEEEE7GetListEv
 0002:000008AC       uProcess.$unwind$_ZN6System8Generics11Collections8TList__1INS_15DelphiInterfaceIN8Uprocess12IProcessBeanEEEE7IndexOfES6_
 0002:000008D0       uProcess.$unwind$_ZN6System8Generics11Collections8TList__1INS_15DelphiInterfaceIN8Uprocess12IProcessBeanEEEE7ReverseEv
 0002:0000043C       uProcess.$unwind$_ZN6System8Generics11Collections8TList__1INS_15DelphiInterfaceIN8Uprocess12IProcessBeanEEEE7SetItemEiS6_
 0002:00000914       uProcess.$unwind$_ZN6System8Generics11Collections8TList__1INS_15DelphiInterfaceIN8Uprocess12IProcessBeanEEEE7ToArrayEv
 0002:000005EC       uProcess.$unwind$_ZN6System8Generics11Collections8TList__1INS_15DelphiInterfaceIN8Uprocess12IProcessBeanEEEE8AddRangeENS3_INS_14IEnumerable__1IS6_EEEE
 0002:000005E4       uProcess.$unwind$_ZN6System8Generics11Collections8TList__1INS_15DelphiInterfaceIN8Uprocess12IProcessBeanEEEE8AddRangeEPKS6_i
 0002:000005F4       uProcess.$unwind$_ZN6System8Generics11Collections8TList__1INS_15DelphiInterfaceIN8Uprocess12IProcessBeanEEEE8AddRangeEPNS1_14TEnumerable__1IS6_EE
 0002:000008A0       uProcess.$unwind$_ZN6System8Generics11Collections8TList__1INS_15DelphiInterfaceIN8Uprocess12IProcessBeanEEEE8ContainsES6_
 0002:00000450       uProcess.$unwind$_ZN6System8Generics11Collections8TList__1INS_15DelphiInterfaceIN8Uprocess12IProcessBeanEEEE8DoDeleteEiNS1_23TCollectionNotificationE
 0002:000007E4       uProcess.$unwind$_ZN6System8Generics11Collections8TList__1INS_15DelphiInterfaceIN8Uprocess12IProcessBeanEEEE8ExchangeEii
 0002:00000414       uProcess.$unwind$_ZN6System8Generics11Collections8TList__1INS_15DelphiInterfaceIN8Uprocess12IProcessBeanEEEE8GetPListEv
 0002:00000428       uProcess.$unwind$_ZN6System8Generics11Collections8TList__1INS_15DelphiInterfaceIN8Uprocess12IProcessBeanEEEE8SetCountEi
 0002:00000798       uProcess.$unwind$_ZN6System8Generics11Collections8TList__1INS_15DelphiInterfaceIN8Uprocess12IProcessBeanEEEE9ExtractAtEi
 0002:00000448       uProcess.$unwind$_ZN6System8Generics11Collections8TList__1INS_15DelphiInterfaceIN8Uprocess12IProcessBeanEEEE9GrowCheckEi
 0002:0000048C       uProcess.$unwind$_ZN6System8Generics11Collections8TList__1INS_15DelphiInterfaceIN8Uprocess12IProcessBeanEEEE9ItemValueES6_
 0002:000004DC       uProcess.$unwind$_ZN6System8Generics11Collections8TList__1INS_15DelphiInterfaceIN8Uprocess12IProcessBeanEEEEC3ENS3_INS0_8Defaults12IComparer__1IS6_EEEE
 0002:00000554       uProcess.$unwind$_ZN6System8Generics11Collections8TList__1INS_15DelphiInterfaceIN8Uprocess12IProcessBeanEEEEC3EPKS6_i
 0002:00000518       uProcess.$unwind$_ZN6System8Generics11Collections8TList__1INS_15DelphiInterfaceIN8Uprocess12IProcessBeanEEEEC3EPNS1_14TEnumerable__1IS6_EE
 0002:000004A0       uProcess.$unwind$_ZN6System8Generics11Collections8TList__1INS_15DelphiInterfaceIN8Uprocess12IProcessBeanEEEEC3Ev
 0002:00000590       uProcess.$unwind$_ZN6System8Generics11Collections8TList__1INS_15DelphiInterfaceIN8Uprocess12IProcessBeanEEEED0Ev
 0002:00000A18       uProcess.$unwind$_ZN6System8Generics8Defaults12TComparer__1INS_15DelphiInterfaceIN8Uprocess12IProcessBeanEEEE8_DefaultEv
 0002:00000348       uProcess.$unwind$_ZN8Uprocess12FinalizationEv
 0002:0000034C       uProcess.$unwind$_ZN8Uprocess14initializationEv
 0002:000002F0       uProcess.$unwind$_ZN8Uprocess14TProcessHander7ProcessEv
 0002:0000033C       uProcess.$unwind$_ZN8Uprocess14TProcessHanderD0Ev
 0001:00005318       uProcess...TProcessHander
 0001:00009948       uProcess...{System.Generics.Collections}@TList`1.Pack[0]$ActRec<uProcess.IProcessBean>
 0001:000096C0       uProcess...{System.Generics.Collections}@TList`1.Pack[1]$ActRec<uProcess.IProcessBean>
 0003:00000104       uProcess..2
 0001:00005398       uProcess..TProcessHander
 0001:000099C8       uProcess..{System.Generics.Collections}@TList`1.Pack[0]$ActRec<uProcess.IProcessBean>
 0001:00009740       uProcess..{System.Generics.Collections}@TList`1.Pack[1]$ActRec<uProcess.IProcessBean>
 0001:00005798       uProcess..{System.Generics.Collections}TEnumerable<uProcess.IProcessBean>
 0001:000055B0       uProcess..{System.Generics.Collections}TEnumerator<uProcess.IProcessBean>
 0001:00005F68       uProcess..{System.Generics.Collections}TList<uProcess.IProcessBean>
 0001:00005CF0       uProcess..{System.Generics.Collections}TList<uProcess.IProcessBean>.TEnumerator
 0001:00007580       uProcess.Finalization
 0001:00009260       uProcess.TArray.BinarySearch<uProcess.IProcessBean>
 0001:000093C0       uProcess.TArray.QuickSort<uProcess.IProcessBean>
 0001:000091E0       uProcess.TArray.Sort<uProcess.IProcessBean>
 0001:00009070       uProcess.TBeanFactoryUtils.BeansOfTypeIncludingAncestors<uProcess.IProcessBean>
 0001:00007530       uProcess.TProcessHander.Destroy
 0001:00007420       uProcess.TProcessHander.Process
 0001:00007590       uProcess.uProcess
 0001:000091C0       uProcess.{System.Generics.Collections}@TList`1.Pack[0]$ActRec<uProcess.IProcessBean>.$0$Body
 0001:00009190       uProcess.{System.Generics.Collections}@TList`1.Pack[1]$ActRec<uProcess.IProcessBean>.$0$Body
 0001:000076F0       uProcess.{System.Generics.Collections}TEnumerable<uProcess.IProcessBean>.Destroy
 0001:00007730       uProcess.{System.Generics.Collections}TEnumerable<uProcess.IProcessBean>.GetEnumerator
 0001:00007750       uProcess.{System.Generics.Collections}TEnumerable<uProcess.IProcessBean>.ToArray
 0001:000075C0       uProcess.{System.Generics.Collections}TEnumerable<uProcess.IProcessBean>.ToArrayImpl
 0001:00007930       uProcess.{System.Generics.Collections}TEnumerator<uProcess.IProcessBean>.MoveNext
 0001:000080B0       uProcess.{System.Generics.Collections}TList<uProcess.IProcessBean>.Add
 0001:00008110       uProcess.{System.Generics.Collections}TList<uProcess.IProcessBean>.AddRange
 0001:00008140       uProcess.{System.Generics.Collections}TList<uProcess.IProcessBean>.AddRange
 0001:000080E0       uProcess.{System.Generics.Collections}TList<uProcess.IProcessBean>.AddRange
 0001:00008D60       uProcess.{System.Generics.Collections}TList<uProcess.IProcessBean>.BinarySearch
 0001:00008D00       uProcess.{System.Generics.Collections}TList<uProcess.IProcessBean>.BinarySearch
 0001:00008DB0       uProcess.{System.Generics.Collections}TList<uProcess.IProcessBean>.BinarySearch
 0001:00008AF0       uProcess.{System.Generics.Collections}TList<uProcess.IProcessBean>.Clear
 0001:00008B50       uProcess.{System.Generics.Collections}TList<uProcess.IProcessBean>.Contains
 0001:00007C90       uProcess.{System.Generics.Collections}TList<uProcess.IProcessBean>.Create
 0001:00007D30       uProcess.{System.Generics.Collections}TList<uProcess.IProcessBean>.Create
 0001:00007EB0       uProcess.{System.Generics.Collections}TList<uProcess.IProcessBean>.Create
 0001:00007E00       uProcess.{System.Generics.Collections}TList<uProcess.IProcessBean>.Create
 0001:000086C0       uProcess.{System.Generics.Collections}TList<uProcess.IProcessBean>.Delete
 0001:000086E0       uProcess.{System.Generics.Collections}TList<uProcess.IProcessBean>.DeleteRange
 0001:00007F60       uProcess.{System.Generics.Collections}TList<uProcess.IProcessBean>.Destroy
 0001:00007A90       uProcess.{System.Generics.Collections}TList<uProcess.IProcessBean>.DoDelete
 0001:00007C30       uProcess.{System.Generics.Collections}TList<uProcess.IProcessBean>.DoGetEnumerator
 0001:00008010       uProcess.{System.Generics.Collections}TList<uProcess.IProcessBean>.Error
 0001:00007FC0       uProcess.{System.Generics.Collections}TList<uProcess.IProcessBean>.Error
 0001:00008910       uProcess.{System.Generics.Collections}TList<uProcess.IProcessBean>.Exchange
 0001:00008B10       uProcess.{System.Generics.Collections}TList<uProcess.IProcessBean>.Expand
 0001:00008760       uProcess.{System.Generics.Collections}TList<uProcess.IProcessBean>.Extract
 0001:00008830       uProcess.{System.Generics.Collections}TList<uProcess.IProcessBean>.ExtractAt
 0001:00008700       uProcess.{System.Generics.Collections}TList<uProcess.IProcessBean>.ExtractItem
 0001:00008950       uProcess.{System.Generics.Collections}TList<uProcess.IProcessBean>.First
 0001:00007950       uProcess.{System.Generics.Collections}TList<uProcess.IProcessBean>.FListHelper
 0001:000079A0       uProcess.{System.Generics.Collections}TList<uProcess.IProcessBean>.GetCapacity
 0001:00008E50       uProcess.{System.Generics.Collections}TList<uProcess.IProcessBean>.GetEnumerator
 0001:00007A00       uProcess.{System.Generics.Collections}TList<uProcess.IProcessBean>.GetItem
 0001:00007960       uProcess.{System.Generics.Collections}TList<uProcess.IProcessBean>.GetList
 0001:00007990       uProcess.{System.Generics.Collections}TList<uProcess.IProcessBean>.GetPList
 0001:00007A70       uProcess.{System.Generics.Collections}TList<uProcess.IProcessBean>.GrowCheck
 0001:00008B80       uProcess.{System.Generics.Collections}TList<uProcess.IProcessBean>.IndexOf
 0001:00008BB0       uProcess.{System.Generics.Collections}TList<uProcess.IProcessBean>.IndexOfItem
 0001:00008170       uProcess.{System.Generics.Collections}TList<uProcess.IProcessBean>.Insert
 0001:000081A0       uProcess.{System.Generics.Collections}TList<uProcess.IProcessBean>.InsertRange
 0001:000081D0       uProcess.{System.Generics.Collections}TList<uProcess.IProcessBean>.InsertRange
 0001:00008310       uProcess.{System.Generics.Collections}TList<uProcess.IProcessBean>.InsertRange
 0001:00008200       uProcess.{System.Generics.Collections}TList<uProcess.IProcessBean>.InsertRange
 0001:00007B40       uProcess.{System.Generics.Collections}TList<uProcess.IProcessBean>.InternalCompare
 0001:00007AB0       uProcess.{System.Generics.Collections}TList<uProcess.IProcessBean>.InternalNotify
 0001:00007BC0       uProcess.{System.Generics.Collections}TList<uProcess.IProcessBean>.ItemValue
 0001:00008A20       uProcess.{System.Generics.Collections}TList<uProcess.IProcessBean>.Last
 0001:00008BF0       uProcess.{System.Generics.Collections}TList<uProcess.IProcessBean>.LastIndexOf
 0001:00008930       uProcess.{System.Generics.Collections}TList<uProcess.IProcessBean>.Move
 0001:00007C50       uProcess.{System.Generics.Collections}TList<uProcess.IProcessBean>.Notify
 0001:000084B0       uProcess.{System.Generics.Collections}TList<uProcess.IProcessBean>.Pack
 0001:00008580       uProcess.{System.Generics.Collections}TList<uProcess.IProcessBean>.Pack
 0001:00008650       uProcess.{System.Generics.Collections}TList<uProcess.IProcessBean>.Remove
 0001:00008680       uProcess.{System.Generics.Collections}TList<uProcess.IProcessBean>.RemoveItem
 0001:00008C20       uProcess.{System.Generics.Collections}TList<uProcess.IProcessBean>.Reverse
 0001:000079B0       uProcess.{System.Generics.Collections}TList<uProcess.IProcessBean>.SetCapacity
 0001:000079E0       uProcess.{System.Generics.Collections}TList<uProcess.IProcessBean>.SetCount
 0001:00007A40       uProcess.{System.Generics.Collections}TList<uProcess.IProcessBean>.SetItem
 0001:00007B20       uProcess.{System.Generics.Collections}TList<uProcess.IProcessBean>.SetOnNotify
 0001:00008CC0       uProcess.{System.Generics.Collections}TList<uProcess.IProcessBean>.Sort
 0001:00008C40       uProcess.{System.Generics.Collections}TList<uProcess.IProcessBean>.Sort
 0001:00008C80       uProcess.{System.Generics.Collections}TList<uProcess.IProcessBean>.Sort
 0001:00008F90       uProcess.{System.Generics.Collections}TList<uProcess.IProcessBean>.TEnumerator.Create
 0001:00008EA0       uProcess.{System.Generics.Collections}TList<uProcess.IProcessBean>.TEnumerator.DoGetCurrent
 0001:00008F70       uProcess.{System.Generics.Collections}TList<uProcess.IProcessBean>.TEnumerator.DoMoveNext
 0001:00008E70       uProcess.{System.Generics.Collections}TList<uProcess.IProcessBean>.TEnumerator.GetCurrent
 0001:00009050       uProcess.{System.Generics.Collections}TList<uProcess.IProcessBean>.TEnumerator.MoveNext
 0001:00008E20       uProcess.{System.Generics.Collections}TList<uProcess.IProcessBean>.ToArray
 0001:00008E00       uProcess.{System.Generics.Collections}TList<uProcess.IProcessBean>.TrimExcess
 0001:00007B60       uProcess.{System.Generics.Collections}TList<uProcess.IProcessBean>.UpdateComparer
 0001:00007AD0       uProcess.{System.Generics.Collections}TList<uProcess.IProcessBean>.UpdateNotify
 0001:00009170       uProcess.{System.Generics.Defaults}TComparer<uProcess.IProcessBean>._Default
 0001:000050D0       uThreadDict.Finalization
 0001:000050E0       uThreadDict.uThreadDict
 0001:000030F0       Vcl.ActnList.Finalization
 0001:00003100       Vcl.ActnList.Vcl.ActnList
 0001:00003450       Vcl.Clipbrd.Finalization
 0001:00003460       Vcl.Clipbrd.Vcl.Clipbrd
 0001:00003890       Vcl.ComCtrls.Finalization
 0001:00003830       Vcl.ComCtrls.TComboBoxEx.Create@
 0001:00003840       Vcl.ComCtrls.TComboBoxEx.Destroy@
 0001:000037B0       Vcl.ComCtrls.TCoolBar.Create@
 0001:000037C0       Vcl.ComCtrls.TCoolBar.Destroy@
 0001:00003810       Vcl.ComCtrls.TCustomComboBoxEx.Create@
 0001:00003820       Vcl.ComCtrls.TCustomComboBoxEx.Destroy@
 0001:000035F0       Vcl.ComCtrls.TCustomHeaderControl.Create@
 0001:00003600       Vcl.ComCtrls.TCustomHeaderControl.Destroy@
 0001:00003710       Vcl.ComCtrls.TCustomHotKey.Create@
 0001:00003720       Vcl.ComCtrls.TCustomHotKey.Destroy@
 0001:00003750       Vcl.ComCtrls.TCustomListView.Create@
 0001:00003760       Vcl.ComCtrls.TCustomListView.Destroy@
 0001:00003690       Vcl.ComCtrls.TCustomRichEdit.Create@
 0001:000036A0       Vcl.ComCtrls.TCustomRichEdit.Destroy@
 0001:000035D0       Vcl.ComCtrls.TCustomStatusBar.Create@
 0001:000035E0       Vcl.ComCtrls.TCustomStatusBar.Destroy@
 0001:00003590       Vcl.ComCtrls.TCustomTabControl.Create@
 0001:000035A0       Vcl.ComCtrls.TCustomTabControl.Destroy@
 0001:00003610       Vcl.ComCtrls.TCustomTreeView.Create@
 0001:00003620       Vcl.ComCtrls.TCustomTreeView.Destroy@
 0001:000036D0       Vcl.ComCtrls.TCustomUpDown.Create@
 0001:000036E0       Vcl.ComCtrls.TCustomUpDown.Destroy@
 0001:000037D0       Vcl.ComCtrls.TDateTimePicker.Create@
 0001:000037E0       Vcl.ComCtrls.TDateTimePicker.Destroy@
 0001:00003870       Vcl.ComCtrls.THeaderControl.Create@
 0001:00003880       Vcl.ComCtrls.THeaderControl.Destroy@
 0001:00003730       Vcl.ComCtrls.THotKey.Create@
 0001:00003740       Vcl.ComCtrls.THotKey.Destroy@
 0001:00003770       Vcl.ComCtrls.TListView.Create@
 0001:00003780       Vcl.ComCtrls.TListView.Destroy@
 0001:000037F0       Vcl.ComCtrls.TPageScroller.Create@
 0001:00003800       Vcl.ComCtrls.TPageScroller.Destroy@
 0001:00003670       Vcl.ComCtrls.TProgressBar.Create@
 0001:00003680       Vcl.ComCtrls.TProgressBar.Destroy@
 0001:000036B0       Vcl.ComCtrls.TRichEdit.Create@
 0001:000036C0       Vcl.ComCtrls.TRichEdit.Destroy@
 0001:00003850       Vcl.ComCtrls.TStatusBar.Create@
 0001:00003860       Vcl.ComCtrls.TStatusBar.Destroy@
 0001:000035B0       Vcl.ComCtrls.TTabControl.Create@
 0001:000035C0       Vcl.ComCtrls.TTabControl.Destroy@
 0001:00003790       Vcl.ComCtrls.TToolBar.Create@
 0001:000037A0       Vcl.ComCtrls.TToolBar.Destroy@
 0001:00003650       Vcl.ComCtrls.TTrackBar.Create@
 0001:00003660       Vcl.ComCtrls.TTrackBar.Destroy@
 0001:00003630       Vcl.ComCtrls.TTreeView.Create@
 0001:00003640       Vcl.ComCtrls.TTreeView.Destroy@
 0001:000036F0       Vcl.ComCtrls.TUpDown.Create@
 0001:00003700       Vcl.ComCtrls.TUpDown.Destroy@
 0001:000038A0       Vcl.ComCtrls.Vcl.ComCtrls
 0001:00003550       Vcl.ComStrs.Finalization
 0001:00003560       Vcl.ComStrs.Vcl.ComStrs
 0001:00002FB0       Vcl.Consts.Finalization
 0001:00002FC0       Vcl.Consts.Vcl.Consts
 0001:00003D00       Vcl.Controls.Finalization
 0001:00003D10       Vcl.Controls.Vcl.Controls
 0001:000038F0       Vcl.Dialogs.Finalization
 0001:00003900       Vcl.Dialogs.Vcl.Dialogs
 0001:000039B0       Vcl.ExtCtrls.Finalization
 0001:00003950       Vcl.ExtCtrls.TCategoryPanelGroup.Create@
 0001:00003960       Vcl.ExtCtrls.TCategoryPanelGroup.Destroy@
 0001:00003930       Vcl.ExtCtrls.TCustomCategoryPanelGroup.Create@
 0001:00003940       Vcl.ExtCtrls.TCustomCategoryPanelGroup.Destroy@
 0001:00003970       Vcl.ExtCtrls.TCustomLinkLabel.Create@
 0001:00003980       Vcl.ExtCtrls.TCustomLinkLabel.Destroy@
 0001:00003910       Vcl.ExtCtrls.TCustomPanel.Create@
 0001:00003920       Vcl.ExtCtrls.TCustomPanel.Destroy@
 0001:00003990       Vcl.ExtCtrls.TLinkLabel.Create@
 0001:000039A0       Vcl.ExtCtrls.TLinkLabel.Destroy@
 0001:000039C0       Vcl.ExtCtrls.Vcl.ExtCtrls
 0001:00003B90       Vcl.Forms.Finalization
 0001:00003B50       Vcl.Forms.TCustomForm.Create@
 0001:00003B60       Vcl.Forms.TCustomForm.Destroy@
 0001:00003B70       Vcl.Forms.TForm.Create@
 0001:00003B80       Vcl.Forms.TForm.Destroy@
 0001:00003B30       Vcl.Forms.TScrollBox.Create@
 0001:00003B40       Vcl.Forms.TScrollBox.Destroy@
 0001:00003BA0       Vcl.Forms.Vcl.Forms
 0001:00002FF0       Vcl.Graphics.Finalization
 0001:00002FD0       Vcl.Graphics.TWICImage.Create@
 0001:00002FE0       Vcl.Graphics.TWICImage.Destroy@
 0001:00003000       Vcl.Graphics.Vcl.Graphics
 0001:000031B0       Vcl.GraphUtil.Finalization
 0001:000031C0       Vcl.GraphUtil.Vcl.GraphUtil
 0001:00004F90       Vcl.Imaging.GIFConsts.Finalization
 0001:00004FA0       Vcl.Imaging.GIFConsts.Vcl.Imaging.GIFConsts
 0001:00004FB0       Vcl.Imaging.GIFImg.Finalization
 0001:00004FC0       Vcl.Imaging.GIFImg.Vcl.Imaging.GIFImg
 0001:00004F30       Vcl.Imaging.JConsts.Finalization
 0001:00004F40       Vcl.Imaging.JConsts.Vcl.Imaging.JConsts
 0001:00004F50       Vcl.Imaging.jpeg.Finalization
 0001:00004F60       Vcl.Imaging.jpeg.Vcl.Imaging.jpeg
 0001:00003D40       Vcl.Imaging.pngimage.Finalization
 0001:00003D50       Vcl.Imaging.pngimage.Vcl.Imaging.pngimage
 0001:00003D20       Vcl.Imaging.pnglang.Finalization
 0001:00003D30       Vcl.Imaging.pnglang.Vcl.Imaging.pnglang
 0001:00003BB0       Vcl.ImgList.Finalization
 0001:00003BC0       Vcl.ImgList.Vcl.ImgList
 0001:00003530       Vcl.ListActns.Finalization
 0001:00003540       Vcl.ListActns.Vcl.ListActns
 0001:00003470       Vcl.Mask.Finalization
 0001:00003480       Vcl.Mask.Vcl.Mask
 0001:00003BD0       Vcl.Menus.Finalization
 0001:00003BE0       Vcl.Menus.Vcl.Menus
 0001:000034D0       Vcl.Printers.Finalization
 0001:000034E0       Vcl.Printers.Vcl.Printers
 0001:00003570       Vcl.StdActns.Finalization
 0001:00003580       Vcl.StdActns.Vcl.StdActns
 0001:00003410       Vcl.StdCtrls.Finalization
 0001:00003390       Vcl.StdCtrls.TButton.Create@
 0001:000033A0       Vcl.StdCtrls.TButton.Destroy@
 0001:000033B0       Vcl.StdCtrls.TCheckBox.Create@
 0001:000033C0       Vcl.StdCtrls.TCheckBox.Destroy@
 0001:00003370       Vcl.StdCtrls.TComboBox.Create@
 0001:00003380       Vcl.StdCtrls.TComboBox.Destroy@
 0001:00003250       Vcl.StdCtrls.TCustomButton.Create@
 0001:00003260       Vcl.StdCtrls.TCustomButton.Destroy@
 0001:00003270       Vcl.StdCtrls.TCustomCheckBox.Create@
 0001:00003280       Vcl.StdCtrls.TCustomCheckBox.Destroy@
 0001:00003230       Vcl.StdCtrls.TCustomComboBox.Create@
 0001:00003240       Vcl.StdCtrls.TCustomComboBox.Destroy@
 0001:000031F0       Vcl.StdCtrls.TCustomEdit.Create@
 0001:00003200       Vcl.StdCtrls.TCustomEdit.Destroy@
 0001:000031D0       Vcl.StdCtrls.TCustomGroupBox.Create@
 0001:000031E0       Vcl.StdCtrls.TCustomGroupBox.Destroy@
 0001:000032B0       Vcl.StdCtrls.TCustomListBox.Create@
 0001:000032C0       Vcl.StdCtrls.TCustomListBox.Destroy@
 0001:00003210       Vcl.StdCtrls.TCustomMemo.Create@
 0001:00003220       Vcl.StdCtrls.TCustomMemo.Destroy@
 0001:000032F0       Vcl.StdCtrls.TCustomStaticText.Create@
 0001:00003300       Vcl.StdCtrls.TCustomStaticText.Destroy@
 0001:00003330       Vcl.StdCtrls.TEdit.Create@
 0001:00003340       Vcl.StdCtrls.TEdit.Destroy@
 0001:00003310       Vcl.StdCtrls.TGroupBox.Create@
 0001:00003320       Vcl.StdCtrls.TGroupBox.Destroy@
 0001:000033D0       Vcl.StdCtrls.TListBox.Create@
 0001:000033E0       Vcl.StdCtrls.TListBox.Destroy@
 0001:00003350       Vcl.StdCtrls.TMemo.Create@
 0001:00003360       Vcl.StdCtrls.TMemo.Destroy@
 0001:00003290       Vcl.StdCtrls.TRadioButton.Create@
 0001:000032A0       Vcl.StdCtrls.TRadioButton.Destroy@
 0001:000032D0       Vcl.StdCtrls.TScrollBar.Create@
 0001:000032E0       Vcl.StdCtrls.TScrollBar.Destroy@
 0001:000033F0       Vcl.StdCtrls.TStaticText.Create@
 0001:00003400       Vcl.StdCtrls.TStaticText.Destroy@
 0001:00003420       Vcl.StdCtrls.Vcl.StdCtrls
 0001:00003A10       Vcl.Themes.Finalization
 0001:000039F0       Vcl.Themes.TCustomStyleEngine.Create@
 0001:00003A00       Vcl.Themes.TCustomStyleEngine.Destroy@
 0001:000039E0       Vcl.Themes.TStyleManager.Create@
 0001:000039D0       Vcl.Themes.TStyleManager.Destroy@
 0001:00003A20       Vcl.Themes.Vcl.Themes
 0001:00003510       Vcl.ToolWin.Finalization
 0001:00003520       Vcl.ToolWin.Vcl.ToolWin
 0005:00000150       Winapi.ActiveX.$pdata$_ZN6Winapi7Activex12FinalizationEv
 0005:0000015C       Winapi.ActiveX.$pdata$_ZN6Winapi7Activex14initializationEv
 0002:000001B0       Winapi.ActiveX.$unwind$_ZN6Winapi7Activex12FinalizationEv
 0002:000001B4       Winapi.ActiveX.$unwind$_ZN6Winapi7Activex14initializationEv
 0003:00000074       Winapi.ActiveX..1
 0001:000024D0       Winapi.ActiveX.Finalization
 0001:000024E0       Winapi.ActiveX.Winapi.ActiveX
 0005:00000198       Winapi.CommCtrl.$pdata$_ZN6Winapi8Commctrl12FinalizationEv
 0005:000001A4       Winapi.CommCtrl.$pdata$_ZN6Winapi8Commctrl14initializationEv
 0002:000001C8       Winapi.CommCtrl.$unwind$_ZN6Winapi8Commctrl12FinalizationEv
 0002:000001CC       Winapi.CommCtrl.$unwind$_ZN6Winapi8Commctrl14initializationEv
 0003:00000080       Winapi.CommCtrl..1
 0001:00002CA0       Winapi.CommCtrl.Finalization
 0001:00002CB0       Winapi.CommCtrl.Winapi.CommCtrl
 0005:00000318       Winapi.CommDlg.$pdata$_ZN6Winapi7Commdlg12FinalizationEv
 0005:00000324       Winapi.CommDlg.$pdata$_ZN6Winapi7Commdlg14initializationEv
 0002:00000248       Winapi.CommDlg.$unwind$_ZN6Winapi7Commdlg12FinalizationEv
 0002:0000024C       Winapi.CommDlg.$unwind$_ZN6Winapi7Commdlg14initializationEv
 0003:000000C0       Winapi.CommDlg..1
 0001:00003490       Winapi.CommDlg.Finalization
 0001:000034A0       Winapi.CommDlg.Winapi.CommDlg
 0005:00000360       Winapi.Dlgs.$pdata$_ZN6Winapi4Dlgs12FinalizationEv
 0005:0000036C       Winapi.Dlgs.$pdata$_ZN6Winapi4Dlgs14initializationEv
 0002:00000260       Winapi.Dlgs.$unwind$_ZN6Winapi4Dlgs12FinalizationEv
 0002:00000264       Winapi.Dlgs.$unwind$_ZN6Winapi4Dlgs14initializationEv
 0003:000000CC       Winapi.Dlgs..1
 0001:000038D0       Winapi.Dlgs.Finalization
 0001:000038E0       Winapi.Dlgs.Winapi.Dlgs
 0005:000002E8       Winapi.Dwmapi.$pdata$_ZN6Winapi6Dwmapi12FinalizationEv
 0005:000002F4       Winapi.Dwmapi.$pdata$_ZN6Winapi6Dwmapi14initializationEv
 0002:00000238       Winapi.Dwmapi.$unwind$_ZN6Winapi6Dwmapi12FinalizationEv
 0002:0000023C       Winapi.Dwmapi.$unwind$_ZN6Winapi6Dwmapi14initializationEv
 0003:000000B8       Winapi.Dwmapi..1
 0001:00003150       Winapi.Dwmapi.Finalization
 0001:00003160       Winapi.Dwmapi.Winapi.Dwmapi
 0001:00003B10       Winapi.FlatSB.Finalization
 0001:00003B20       Winapi.FlatSB.Winapi.FlatSB
 0001:00002180       Winapi.ImageHlp.Finalization
 0001:00002190       Winapi.ImageHlp.Winapi.ImageHlp
 0005:000002D0       Winapi.Imm.$pdata$_ZN6Winapi3Imm12FinalizationEv
 0005:000002DC       Winapi.Imm.$pdata$_ZN6Winapi3Imm14initializationEv
 0002:00000230       Winapi.Imm.$unwind$_ZN6Winapi3Imm12FinalizationEv
 0002:00000234       Winapi.Imm.$unwind$_ZN6Winapi3Imm14initializationEv
 0003:000000B4       Winapi.Imm..1
 0001:000030D0       Winapi.Imm.Finalization
 0001:000030E0       Winapi.Imm.Winapi.Imm
 0005:000001E0       Winapi.IpExport.$pdata$_ZN6Winapi8Ipexport12FinalizationEv
 0005:000001EC       Winapi.IpExport.$pdata$_ZN6Winapi8Ipexport14initializationEv
 0002:000001E0       Winapi.IpExport.$unwind$_ZN6Winapi8Ipexport12FinalizationEv
 0002:000001E4       Winapi.IpExport.$unwind$_ZN6Winapi8Ipexport14initializationEv
 0003:0000008C       Winapi.IpExport..1
 0001:00002D00       Winapi.IpExport.Finalization
 0001:00002D10       Winapi.IpExport.Winapi.IpExport
 0005:00000438       Winapi.IpHlpApi.$pdata$_ZN6Winapi8Iphlpapi12FinalizationEv
 0005:00000444       Winapi.IpHlpApi.$pdata$_ZN6Winapi8Iphlpapi14initializationEv
 0002:000002C0       Winapi.IpHlpApi.$unwind$_ZN6Winapi8Iphlpapi12FinalizationEv
 0002:000002C4       Winapi.IpHlpApi.$unwind$_ZN6Winapi8Iphlpapi14initializationEv
 0003:000000EC       Winapi.IpHlpApi..1
 0001:00003F00       Winapi.IpHlpApi.Finalization
 0001:00003F10       Winapi.IpHlpApi.Winapi.IpHlpApi
 0005:00000420       Winapi.IpRtrMib.$pdata$_ZN6Winapi8Iprtrmib12FinalizationEv
 0005:0000042C       Winapi.IpRtrMib.$pdata$_ZN6Winapi8Iprtrmib14initializationEv
 0002:000002B8       Winapi.IpRtrMib.$unwind$_ZN6Winapi8Iprtrmib12FinalizationEv
 0002:000002BC       Winapi.IpRtrMib.$unwind$_ZN6Winapi8Iprtrmib14initializationEv
 0003:000000E8       Winapi.IpRtrMib..1
 0001:00003EE0       Winapi.IpRtrMib.Finalization
 0001:00003EF0       Winapi.IpRtrMib.Winapi.IpRtrMib
 0005:00000408       Winapi.IpTypes.$pdata$_ZN6Winapi7Iptypes12FinalizationEv
 0005:00000414       Winapi.IpTypes.$pdata$_ZN6Winapi7Iptypes14initializationEv
 0002:000002B0       Winapi.IpTypes.$unwind$_ZN6Winapi7Iptypes12FinalizationEv
 0002:000002B4       Winapi.IpTypes.$unwind$_ZN6Winapi7Iptypes14initializationEv
 0003:000000E4       Winapi.IpTypes..1
 0001:00003EC0       Winapi.IpTypes.Finalization
 0001:00003ED0       Winapi.IpTypes.Winapi.IpTypes
 0005:000002B8       Winapi.KnownFolders.$pdata$_ZN6Winapi12Knownfolders12FinalizationEv
 0005:000002C4       Winapi.KnownFolders.$pdata$_ZN6Winapi12Knownfolders14initializationEv
 0002:00000228       Winapi.KnownFolders.$unwind$_ZN6Winapi12Knownfolders12FinalizationEv
 0002:0000022C       Winapi.KnownFolders.$unwind$_ZN6Winapi12Knownfolders14initializationEv
 0003:000000B0       Winapi.KnownFolders..1
 0001:00002E40       Winapi.KnownFolders.Finalization
 0001:00002E50       Winapi.KnownFolders.Winapi.KnownFolders
 0005:00000138       Winapi.Messages.$pdata$_ZN6Winapi8Messages12FinalizationEv
 0005:00000144       Winapi.Messages.$pdata$_ZN6Winapi8Messages14initializationEv
 0002:000001A8       Winapi.Messages.$unwind$_ZN6Winapi8Messages12FinalizationEv
 0002:000001AC       Winapi.Messages.$unwind$_ZN6Winapi8Messages14initializationEv
 0003:00000070       Winapi.Messages..1
 0001:00002470       Winapi.Messages.Finalization
 0001:00002480       Winapi.Messages.Winapi.Messages
 0005:000004B0       Winapi.MMSystem.$pdata$_ZN6Winapi8Mmsystem12FinalizationEv
 0005:000004BC       Winapi.MMSystem.$pdata$_ZN6Winapi8Mmsystem14initializationEv
 0002:000002E8       Winapi.MMSystem.$unwind$_ZN6Winapi8Mmsystem12FinalizationEv
 0002:000002EC       Winapi.MMSystem.$unwind$_ZN6Winapi8Mmsystem14initializationEv
 0003:00000100       Winapi.MMSystem..1
 0001:00004F70       Winapi.MMSystem.Finalization
 0001:00004F80       Winapi.MMSystem.Winapi.MMSystem
 0005:000003C0       Winapi.MsCTF.$pdata$_ZN6Winapi5Msctf12FinalizationEv
 0005:000003CC       Winapi.MsCTF.$pdata$_ZN6Winapi5Msctf14initializationEv
 0005:000003B4       Winapi.MsCTF.$pdata$_ZN6Winapi5Msctf9DoneMSCTFEv
 0005:000003A8       Winapi.MsCTF.$pdata$_ZN6Winapi5Msctf9InitMSCTFEv
 0002:00000290       Winapi.MsCTF.$unwind$_ZN6Winapi5Msctf12FinalizationEv
 0002:00000298       Winapi.MsCTF.$unwind$_ZN6Winapi5Msctf14initializationEv
 0002:00000288       Winapi.MsCTF.$unwind$_ZN6Winapi5Msctf9DoneMSCTFEv
 0002:00000280       Winapi.MsCTF.$unwind$_ZN6Winapi5Msctf9InitMSCTFEv
 0003:000000D8       Winapi.MsCTF..1
 0001:00003C60       Winapi.MsCTF.DoneMSCTF
 0001:00003C80       Winapi.MsCTF.Finalization
 0001:00003C10       Winapi.MsCTF.InitMSCTF
 0002:00000278       Winapi.MsCTF.MsCTFHandle
 0001:00003CA0       Winapi.MsCTF.Winapi.MsCTF
 0005:000003D8       Winapi.MsInkAut.$pdata$_ZN6Winapi8Msinkaut12FinalizationEv
 0005:000003E4       Winapi.MsInkAut.$pdata$_ZN6Winapi8Msinkaut14initializationEv
 0002:000002A0       Winapi.MsInkAut.$unwind$_ZN6Winapi8Msinkaut12FinalizationEv
 0002:000002A4       Winapi.MsInkAut.$unwind$_ZN6Winapi8Msinkaut14initializationEv
 0003:000000DC       Winapi.MsInkAut..1
 0001:00003CC0       Winapi.MsInkAut.Finalization
 0001:00003CD0       Winapi.MsInkAut.Winapi.MsInkAut
 0001:00002E00       Winapi.MSXMLIntf.Finalization
 0001:00002E10       Winapi.MSXMLIntf.Winapi.MSXMLIntf
 0001:00003010       Winapi.MultiMon.Finalization
 0001:00003020       Winapi.MultiMon.Winapi.MultiMon
 0005:00000258       Winapi.ObjectArray.$pdata$_ZN6Winapi11Objectarray12FinalizationEv
 0005:00000264       Winapi.ObjectArray.$pdata$_ZN6Winapi11Objectarray14initializationEv
 0002:00000208       Winapi.ObjectArray.$unwind$_ZN6Winapi11Objectarray12FinalizationEv
 0002:0000020C       Winapi.ObjectArray.$unwind$_ZN6Winapi11Objectarray14initializationEv
 0003:000000A0       Winapi.ObjectArray..1
 0001:00002DA0       Winapi.ObjectArray.Finalization
 0001:00002DB0       Winapi.ObjectArray.Winapi.ObjectArray
 0005:000003F0       Winapi.PenInputPanel.$pdata$_ZN6Winapi13Peninputpanel12FinalizationEv
 0005:000003FC       Winapi.PenInputPanel.$pdata$_ZN6Winapi13Peninputpanel14initializationEv
 0002:000002A8       Winapi.PenInputPanel.$unwind$_ZN6Winapi13Peninputpanel12FinalizationEv
 0002:000002AC       Winapi.PenInputPanel.$unwind$_ZN6Winapi13Peninputpanel14initializationEv
 0003:000000E0       Winapi.PenInputPanel..1
 0001:00003CE0       Winapi.PenInputPanel.Finalization
 0001:00003CF0       Winapi.PenInputPanel.Winapi.PenInputPanel
 0005:00000288       Winapi.PropSys.$pdata$_ZN6Winapi7Propsys12FinalizationEv
 0005:00000294       Winapi.PropSys.$pdata$_ZN6Winapi7Propsys14initializationEv
 0002:00000218       Winapi.PropSys.$unwind$_ZN6Winapi7Propsys12FinalizationEv
 0002:0000021C       Winapi.PropSys.$unwind$_ZN6Winapi7Propsys14initializationEv
 0003:000000A8       Winapi.PropSys..1
 0001:00002DE0       Winapi.PropSys.Finalization
 0001:00002DF0       Winapi.PropSys.Winapi.PropSys
 0005:00000120       Winapi.PsAPI.$pdata$_ZN6Winapi5Psapi12FinalizationEv
 0005:0000012C       Winapi.PsAPI.$pdata$_ZN6Winapi5Psapi14initializationEv
 0002:0000019C       Winapi.PsAPI.$unwind$_ZN6Winapi5Psapi12FinalizationEv
 0002:000001A4       Winapi.PsAPI.$unwind$_ZN6Winapi5Psapi14initializationEv
 0003:00000060       Winapi.PsAPI..1
 0001:000021C0       Winapi.PsAPI.Finalization
 0003:00000068       Winapi.PsAPI.hPSAPI
 0001:00002200       Winapi.PsAPI.Winapi.PsAPI
 0005:000001B0       Winapi.Qos.$pdata$_ZN6Winapi3Qos12FinalizationEv
 0005:000001BC       Winapi.Qos.$pdata$_ZN6Winapi3Qos14initializationEv
 0002:000001D0       Winapi.Qos.$unwind$_ZN6Winapi3Qos12FinalizationEv
 0002:000001D4       Winapi.Qos.$unwind$_ZN6Winapi3Qos14initializationEv
 0003:00000084       Winapi.Qos..1
 0001:00002CC0       Winapi.Qos.Finalization
 0001:00002CD0       Winapi.Qos.Winapi.Qos
 0005:00000210       Winapi.RegStr.$pdata$_ZN6Winapi6Regstr12FinalizationEv
 0005:0000021C       Winapi.RegStr.$pdata$_ZN6Winapi6Regstr14initializationEv
 0002:000001F0       Winapi.RegStr.$unwind$_ZN6Winapi6Regstr12FinalizationEv
 0002:000001F4       Winapi.RegStr.$unwind$_ZN6Winapi6Regstr14initializationEv
 0003:00000094       Winapi.RegStr..1
 0001:00002D40       Winapi.RegStr.Finalization
 0001:00002D50       Winapi.RegStr.Winapi.RegStr
 0005:00000348       Winapi.RichEdit.$pdata$_ZN6Winapi8Richedit12FinalizationEv
 0005:00000354       Winapi.RichEdit.$pdata$_ZN6Winapi8Richedit14initializationEv
 0002:00000258       Winapi.RichEdit.$unwind$_ZN6Winapi8Richedit12FinalizationEv
 0002:0000025C       Winapi.RichEdit.$unwind$_ZN6Winapi8Richedit14initializationEv
 0003:000000C8       Winapi.RichEdit..1
 0001:000034F0       Winapi.RichEdit.Finalization
 0001:00003500       Winapi.RichEdit.Winapi.RichEdit
 0005:000001F8       Winapi.ShellAPI.$pdata$_ZN6Winapi8Shellapi12FinalizationEv
 0005:00000204       Winapi.ShellAPI.$pdata$_ZN6Winapi8Shellapi14initializationEv
 0002:000001E8       Winapi.ShellAPI.$unwind$_ZN6Winapi8Shellapi12FinalizationEv
 0002:000001EC       Winapi.ShellAPI.$unwind$_ZN6Winapi8Shellapi14initializationEv
 0003:00000090       Winapi.ShellAPI..1
 0001:00002D20       Winapi.ShellAPI.Finalization
 0001:00002D30       Winapi.ShellAPI.Winapi.ShellAPI
 0005:00000378       Winapi.ShellScaling.$pdata$_ZN6Winapi12Shellscaling12FinalizationEv
 0005:00000384       Winapi.ShellScaling.$pdata$_ZN6Winapi12Shellscaling14initializationEv
 0002:00000268       Winapi.ShellScaling.$unwind$_ZN6Winapi12Shellscaling12FinalizationEv
 0002:0000026C       Winapi.ShellScaling.$unwind$_ZN6Winapi12Shellscaling14initializationEv
 0003:000000D0       Winapi.ShellScaling..1
 0001:00003AF0       Winapi.ShellScaling.Finalization
 0001:00003B00       Winapi.ShellScaling.Winapi.ShellScaling
 0001:000021A0       Winapi.SHFolder.Finalization
 0001:000021B0       Winapi.SHFolder.Winapi.SHFolder
 0005:000002A0       Winapi.ShlObj.$pdata$_ZN6Winapi6Shlobj12FinalizationEv
 0005:000002AC       Winapi.ShlObj.$pdata$_ZN6Winapi6Shlobj14initializationEv
 0002:00000220       Winapi.ShlObj.$unwind$_ZN6Winapi6Shlobj12FinalizationEv
 0002:00000224       Winapi.ShlObj.$unwind$_ZN6Winapi6Shlobj14initializationEv
 0003:000000AC       Winapi.ShlObj..1
 0001:00002E20       Winapi.ShlObj.Finalization
 0001:00002E30       Winapi.ShlObj.Winapi.ShlObj
 0005:00000270       Winapi.StructuredQueryCondition.$pdata$_ZN6Winapi24Structuredquerycondition12FinalizationEv
 0005:0000027C       Winapi.StructuredQueryCondition.$pdata$_ZN6Winapi24Structuredquerycondition14initializationEv
 0002:00000210       Winapi.StructuredQueryCondition.$unwind$_ZN6Winapi24Structuredquerycondition12FinalizationEv
 0002:00000214       Winapi.StructuredQueryCondition.$unwind$_ZN6Winapi24Structuredquerycondition14initializationEv
 0003:000000A4       Winapi.StructuredQueryCondition..1
 0001:00002DC0       Winapi.StructuredQueryCondition.Finalization
 0001:00002DD0       Winapi.StructuredQueryCondition.Winapi.StructuredQueryCondition
 0005:00000480       Winapi.TlHelp32.$pdata$_ZN6Winapi8Tlhelp3212FinalizationEv
 0005:0000048C       Winapi.TlHelp32.$pdata$_ZN6Winapi8Tlhelp3214initializationEv
 0002:000002D8       Winapi.TlHelp32.$unwind$_ZN6Winapi8Tlhelp3212FinalizationEv
 0002:000002DC       Winapi.TlHelp32.$unwind$_ZN6Winapi8Tlhelp3214initializationEv
 0003:000000F8       Winapi.TlHelp32..1
 0001:00004470       Winapi.TlHelp32.Finalization
 0001:00004480       Winapi.TlHelp32.Winapi.TlHelp32
 0005:00000390       Winapi.TpcShrd.$pdata$_ZN6Winapi7Tpcshrd12FinalizationEv
 0005:0000039C       Winapi.TpcShrd.$pdata$_ZN6Winapi7Tpcshrd14initializationEv
 0002:00000270       Winapi.TpcShrd.$unwind$_ZN6Winapi7Tpcshrd12FinalizationEv
 0002:00000274       Winapi.TpcShrd.$unwind$_ZN6Winapi7Tpcshrd14initializationEv
 0003:000000D4       Winapi.TpcShrd..1
 0001:00003BF0       Winapi.TpcShrd.Finalization
 0001:00003C00       Winapi.TpcShrd.Winapi.TpcShrd
 0005:00000240       Winapi.UrlMon.$pdata$_ZN6Winapi6Urlmon12FinalizationEv
 0005:0000024C       Winapi.UrlMon.$pdata$_ZN6Winapi6Urlmon14initializationEv
 0002:00000200       Winapi.UrlMon.$unwind$_ZN6Winapi6Urlmon12FinalizationEv
 0002:00000204       Winapi.UrlMon.$unwind$_ZN6Winapi6Urlmon14initializationEv
 0003:0000009C       Winapi.UrlMon..1
 0001:00002D80       Winapi.UrlMon.Finalization
 0001:00002D90       Winapi.UrlMon.Winapi.UrlMon
 0001:00003130       Winapi.UxTheme.Finalization
 0001:00003140       Winapi.UxTheme.Winapi.UxTheme
 0001:00002C80       Winapi.Wincodec.Finalization
 0001:00002C90       Winapi.Wincodec.Winapi.Wincodec
 0005:00000108       Winapi.Windows.$pdata$_ZN6Winapi7Windows12FinalizationEv
 0005:00000114       Winapi.Windows.$pdata$_ZN6Winapi7Windows14initializationEv
 0005:000000FC       Winapi.Windows.$pdata$_ZN6Winapi7Windows15InitVersionInfoEv
 0002:0000018C       Winapi.Windows.$unwind$_ZN6Winapi7Windows12FinalizationEv
 0002:00000194       Winapi.Windows.$unwind$_ZN6Winapi7Windows14initializationEv
 0002:00000184       Winapi.Windows.$unwind$_ZN6Winapi7Windows15InitVersionInfoEv
 0003:00000050       Winapi.Windows..2
 0001:00002050       Winapi.Windows.DeleteCriticalSection
 0001:00002060       Winapi.Windows.EnterCriticalSection
 0001:00002100       Winapi.Windows.Finalization
 0001:00002070       Winapi.Windows.FreeLibrary
 0001:00002080       Winapi.Windows.GetVersionEx
 0003:00000058       Winapi.Windows.HtmlHelpModule
 0001:00002090       Winapi.Windows.InitializeCriticalSection
 0001:000020B0       Winapi.Windows.InitVersionInfo
 0001:000020A0       Winapi.Windows.LeaveCriticalSection
 0002:00000178       Winapi.Windows.Win32MajorVersion
 0002:0000017C       Winapi.Windows.Win32MinorVersion
 0002:00000180       Winapi.Windows.Win32Platform
 0001:00002130       Winapi.Windows.Winapi.Windows
 0005:00000228       Winapi.WinInet.$pdata$_ZN6Winapi7Wininet12FinalizationEv
 0005:00000234       Winapi.WinInet.$pdata$_ZN6Winapi7Wininet14initializationEv
 0002:000001F8       Winapi.WinInet.$unwind$_ZN6Winapi7Wininet12FinalizationEv
 0002:000001FC       Winapi.WinInet.$unwind$_ZN6Winapi7Wininet14initializationEv
 0003:00000098       Winapi.WinInet..1
 0001:00002D60       Winapi.WinInet.Finalization
 0001:00002D70       Winapi.WinInet.Winapi.WinInet
 0005:00000180       Winapi.WinSock.$pdata$_ZN6Winapi7Winsock12FinalizationEv
 0005:0000018C       Winapi.WinSock.$pdata$_ZN6Winapi7Winsock14initializationEv
 0002:000001C0       Winapi.WinSock.$unwind$_ZN6Winapi7Winsock12FinalizationEv
 0002:000001C4       Winapi.WinSock.$unwind$_ZN6Winapi7Winsock14initializationEv
 0003:0000007C       Winapi.WinSock..1
 0001:00002BF0       Winapi.WinSock.Finalization
 0001:00002C00       Winapi.WinSock.Winapi.WinSock
 0005:000001C8       Winapi.Winsock2.$pdata$_ZN6Winapi8Winsock212FinalizationEv
 0005:000001D4       Winapi.Winsock2.$pdata$_ZN6Winapi8Winsock214initializationEv
 0002:000001D8       Winapi.Winsock2.$unwind$_ZN6Winapi8Winsock212FinalizationEv
 0002:000001DC       Winapi.Winsock2.$unwind$_ZN6Winapi8Winsock214initializationEv
 0003:00000088       Winapi.Winsock2..1
 0001:00002CE0       Winapi.Winsock2.Finalization
 0001:00002CF0       Winapi.Winsock2.Winapi.Winsock2
 0005:00000330       Winapi.WinSpool.$pdata$_ZN6Winapi8Winspool12FinalizationEv
 0005:0000033C       Winapi.WinSpool.$pdata$_ZN6Winapi8Winspool14initializationEv
 0002:00000250       Winapi.WinSpool.$unwind$_ZN6Winapi8Winspool12FinalizationEv
 0002:00000254       Winapi.WinSpool.$unwind$_ZN6Winapi8Winspool14initializationEv
 0003:000000C4       Winapi.WinSpool..1
 0001:000034B0       Winapi.WinSpool.Finalization
 0001:000034C0       Winapi.WinSpool.Winapi.WinSpool
 0005:00000468       Winapi.WinSvc.$pdata$_ZN6Winapi6Winsvc12FinalizationEv
 0005:00000474       Winapi.WinSvc.$pdata$_ZN6Winapi6Winsvc14initializationEv
 0002:000002D0       Winapi.WinSvc.$unwind$_ZN6Winapi6Winsvc12FinalizationEv
 0002:000002D4       Winapi.WinSvc.$unwind$_ZN6Winapi6Winsvc14initializationEv
 0003:000000F4       Winapi.WinSvc..1
 0001:00004410       Winapi.WinSvc.Finalization
 0001:00004420       Winapi.WinSvc.Winapi.WinSvc


  Address             Publics by Value

 0001:00000000       System.Pos
 0001:00000010       System.@GetMem
 0001:00000020       System.@FreeMem
 0001:00000030       System.ParamStr
 0001:00000040       System.HPPGENAttribute.Create
 0001:00000050       System.@AbstractError
 0001:00000060       System.TObject.ClassInfo
 0001:00000070       System.TObject.ClassName
 0001:00000080       System.TObject.NewInstance
 0001:00000090       System.TObject.FreeInstance
 0001:000000A0       System.TObject.CPP_ABI_1
 0001:000000B0       System.TObject.CPP_ABI_2
 0001:000000C0       System.TObject.CPP_ABI_3
 0001:000000D0       System.TObject.Create
 0001:000000E0       System.TObject.Destroy
 0001:000000F0       System.TObject.Free
 0001:00000100       System.TObject.Equals
 0001:00000110       System.TObject.GetHashCode
 0001:00000120       System.@IsClass
 0001:00000130       System.@SafeIntfAsClass
 0001:00000140       System.TObject.SafeCallException
 0001:00000150       System.TObject.ToString
 0001:00000160       System.TObject.DefaultHandler
 0001:00000170       System.TObject.AfterConstruction
 0001:00000180       System.TObject.BeforeDestruction
 0001:00000190       System.TObject.Dispatch
 0001:000001A0       System.@ClassCreate
 0001:000001B0       System.@ClassDestroy
 0001:000001C0       System.@AfterConstruction
 0001:000001D0       System.@BeforeDestruction
 0001:000001E0       System.@DelphiExceptionHandler
 0001:000001F0       System.@RaiseAtExcept
 0001:00000200       System.@RaiseExcept
 0001:00000210       System.@RaiseAgain
 0001:00000220       System.@DestroyException
 0001:00000230       System.@DoneExcept
 0001:00000240       System.@PackageLoad
 0001:00000250       System.@PackageUnload
 0001:00000260       System.@RunError
 0001:00000270       System.@UStrClr
 0001:00000280       System.@UStrArrayClr
 0001:00000290       System.@UStrAddRef
 0001:000002A0       System.@UStrAsg
 0001:000002B0       System.@UStrLAsg
 0001:000002C0       System.@UStrLen
 0001:000002D0       System.@UStrCat
 0001:000002E0       System.@UStrCat3
 0001:000002F0       System.@UStrCatN
 0001:00000300       System.@UStrCopy
 0001:00000310       System.@InitializeRecord
 0001:00000320       System.@FinalizeRecord
 0001:00000330       System.@FinalizeArray
 0001:00000340       System.@CopyRecord
 0001:00000350       System.@DynArrayLength
 0001:00000360       System.@DynArraySetLength
 0001:00000370       System.@DynArrayClear
 0001:00000380       System.@DynArrayAsg
 0001:00000390       System.RegisterModule
 0001:000003A0       System.UnregisterModule
 0001:000003B0       System.@IntfClear
 0001:000003C0       System.@IntfCopy
 0001:000003D0       System.@IntfAddRef
 0001:000003E0       System.TInterfacedObject.AfterConstruction
 0001:000003F0       System.TInterfacedObject.BeforeDestruction
 0001:00000400       System.TInterfacedObject.NewInstance
 0001:00000410       System.TInterfacedObject.QueryInterface
 0001:00000420       System.TInterfacedObject._AddRef
 0001:00000430       System.TInterfacedObject._Release
 0001:00000440       System.LoadResString
 0001:00000450       System.Finalization
 0001:00000460       System.System
 0001:00000470       SysInit.FreeLibrary
 0001:00000480       SysInit.LocalAlloc
 0001:00000490       SysInit.LocalFree
 0001:000004A0       SysInit.TlsAlloc
 0001:000004B0       SysInit.TlsFree
 0001:000004C0       SysInit.TlsGetValue
 0001:000004D0       SysInit.TlsSetValue
 0001:000004E0       SysInit.GetLastError
 0001:000004F0       SysInit.LoadLibraryA
 0001:00000500       SysInit.RaiseException
 0001:00000510       SysInit.GetProcAddress
 0001:00000520       SysInit.AllocTlsBuffer
 0001:00000540       SysInit.GetTlsSize
 0001:00000550       SysInit.InitThreadTLS
 0001:000005A0       SysInit.InitProcessTLS
 0001:000005E0       SysInit.ExitThreadTLS
 0001:00000630       SysInit.ExitProcessTLS
 0001:00000660       SysInit.InitializeModule
 0001:00000680       SysInit.UninitializeModule
 0001:000006C0       SysInit.@_dbkDummyProc
 0001:000006D0       SysInit.@_dbkFCallArgs
 0001:00000AD0       SysInit.@_dbk_fcall_wrapper
 0001:00000E20       SysInit.@InitPkg
 0001:00000EA0       SysInit.@PackageLoad
 0001:00000EC0       SysInit.@PackageUnload
 0001:00000EE0       SysInit..text.delayhlp
 0001:00000EE0       SysInit.@_delayLoadHelper2
 0001:000011C0       SysInit.@_FUnloadDelayLoadedDLL2
 0001:00001870       SysInit.@_HrLoadAllImportsForDll
 0001:000019D0       SysInit.ShutdownDelayHelp2
 0001:00001D00       SysInit.Finalization
 0001:00001D20       SysInit.SysInit
 0001:00001D30       System.Types.Finalization
 0001:00001D40       System.Types.System.Types
 0001:00001D50       System.UITypes.Finalization
 0001:00001D60       System.UITypes.System.UITypes
 0001:00002050       Winapi.Windows.DeleteCriticalSection
 0001:00002060       Winapi.Windows.EnterCriticalSection
 0001:00002070       Winapi.Windows.FreeLibrary
 0001:00002080       Winapi.Windows.GetVersionEx
 0001:00002090       Winapi.Windows.InitializeCriticalSection
 0001:000020A0       Winapi.Windows.LeaveCriticalSection
 0001:000020B0       Winapi.Windows.InitVersionInfo
 0001:00002100       Winapi.Windows.Finalization
 0001:00002130       Winapi.Windows.Winapi.Windows
 0001:00002160       System.SysConst.Finalization
 0001:00002170       System.SysConst.System.SysConst
 0001:00002180       Winapi.ImageHlp.Finalization
 0001:00002190       Winapi.ImageHlp.Winapi.ImageHlp
 0001:000021A0       Winapi.SHFolder.Finalization
 0001:000021B0       Winapi.SHFolder.Winapi.SHFolder
 0001:000021C0       Winapi.PsAPI.Finalization
 0001:00002200       Winapi.PsAPI.Winapi.PsAPI
 0001:00002210       System.RTLConsts.Finalization
 0001:00002220       System.RTLConsts.System.RTLConsts
 0001:00002230       System.Character.Finalization
 0001:00002240       System.Character.System.Character
 0001:00002250       System.Internal.ExcUtils.Finalization
 0001:00002260       System.Internal.ExcUtils.System.Internal.ExcUtils
 0001:00002270       System.SysUtils.TLanguages.Create@
 0001:00002280       System.SysUtils.TEncoding.Create@
 0001:00002290       System.SysUtils.TOSVersion.Destroy@
 0001:000022A0       System.SysUtils.LowerCase
 0001:000022B0       System.SysUtils.CompareStr
 0001:000022C0       System.SysUtils.SameStr
 0001:000022D0       System.SysUtils.CompareText
 0001:000022E0       System.SysUtils.SameText
 0001:000022F0       System.SysUtils.FileExists
 0001:00002300       System.SysUtils.ExtractFilePath
 0001:00002310       System.SysUtils.Format
 0001:00002320       System.SysUtils.OutOfMemoryError
 0001:00002330       System.SysUtils.Exception.Create
 0001:00002340       System.SysUtils.Exception.CreateFmt
 0001:00002350       System.SysUtils.Exception.CreateRes
 0001:00002360       System.SysUtils.Exception.Destroy
 0001:00002370       System.SysUtils.Exception.GetBaseException
 0001:00002380       System.SysUtils.Exception.RaisingException
 0001:00002390       System.SysUtils.Exception.ToString
 0001:000023A0       System.SysUtils.Exception.Create@
 0001:000023B0       System.SysUtils.Exception.Destroy@
 0001:000023C0       System.SysUtils.FreeAndNil
 0001:000023D0       System.SysUtils.Supports
 0001:000023E0       System.SysUtils.Supports
 0001:000023F0       System.SysUtils.TLanguages.Destroy@
 0001:00002400       System.SysUtils.SafeLoadLibrary
 0001:00002410       System.SysUtils.TEncoding.Destroy@
 0001:00002420       System.SysUtils.TEncoding.GetBytes
 0001:00002430       System.SysUtils.TEncoding.GetUTF8
 0001:00002440       System.SysUtils.TOSVersion.Create@
 0001:00002450       System.SysUtils.Finalization
 0001:00002460       System.SysUtils.System.SysUtils
 0001:00002470       Winapi.Messages.Finalization
 0001:00002480       Winapi.Messages.Winapi.Messages
 0001:00002490       System.VarUtils.Finalization
 0001:000024A0       System.VarUtils.System.VarUtils
 0001:000024B0       System.Variants.Finalization
 0001:000024C0       System.Variants.System.Variants
 0001:000024D0       Winapi.ActiveX.Finalization
 0001:000024E0       Winapi.ActiveX.Winapi.ActiveX
 0001:000024F0       System.TypInfo.Finalization
 0001:00002500       System.TypInfo.System.TypInfo
 0001:00002510       System.Hash.Finalization
 0001:00002520       System.Hash.System.Hash
 0001:00002530       System.Math.Finalization
 0001:00002540       System.Math.System.Math
 0001:00002550       System.Generics.Defaults.TStringComparer.Create@
 0001:00002560       System.Generics.Defaults.TIStringComparer.Create@
 0001:00002570       System.Generics.Defaults._LookupVtableInfo
 0001:00002580       System.Generics.Defaults.TStringComparer.Destroy@
 0001:00002590       System.Generics.Defaults.TIStringComparer.Destroy@
 0001:000025A0       System.Generics.Defaults.Finalization
 0001:000025B0       System.Generics.Defaults.System.Generics.Defaults
 0001:000025C0       System.Generics.Collections.ErrorArgumentOutOfRange
 0001:000025D0       System.Generics.Collections.TListHelper.InternalGrowCheck
 0001:000025E0       System.Generics.Collections.TListHelper.SetItem8
 0001:000025F0       System.Generics.Collections.TListHelper.DoSetItemInterface
 0001:00002600       System.Generics.Collections.TListHelper.SetItemManaged
 0001:00002610       System.Generics.Collections.TListHelper.InternalExchange8
 0001:00002620       System.Generics.Collections.TListHelper.InternalExchangeN
 0001:00002630       System.Generics.Collections.TListHelper.DoAddInterface
 0001:00002640       System.Generics.Collections.TListHelper.DoExchangeInterface
 0001:00002650       System.Generics.Collections.TListHelper.DoExtractItemFwd8
 0001:00002660       System.Generics.Collections.TListHelper.DoExtractItemRev8
 0001:00002670       System.Generics.Collections.TListHelper.DoExtractItemFwdInterface
 0001:00002680       System.Generics.Collections.TListHelper.DoExtractItemRevInterface
 0001:00002690       System.Generics.Collections.TListHelper.DoExtractItemFwdManaged
 0001:000026A0       System.Generics.Collections.TListHelper.DoExtractItemRevManaged
 0001:000026B0       System.Generics.Collections.TListHelper.DoIndexOfFwd8
 0001:000026C0       System.Generics.Collections.TListHelper.DoIndexOfFwdMRef
 0001:000026D0       System.Generics.Collections.TListHelper.DoIndexOfFwdN
 0001:000026E0       System.Generics.Collections.TListHelper.DoIndexOfRev8
 0001:000026F0       System.Generics.Collections.TListHelper.DoIndexOfRevMRef
 0001:00002700       System.Generics.Collections.TListHelper.DoIndexOfRevN
 0001:00002710       System.Generics.Collections.TListHelper.DoInsertInterface
 0001:00002720       System.Generics.Collections.TListHelper.DoRemoveFwd8
 0001:00002730       System.Generics.Collections.TListHelper.DoRemoveFwdMRef
 0001:00002740       System.Generics.Collections.TListHelper.DoRemoveFwdManaged
 0001:00002750       System.Generics.Collections.TListHelper.DoRemoveRev8
 0001:00002760       System.Generics.Collections.TListHelper.DoRemoveRevMRef
 0001:00002770       System.Generics.Collections.TListHelper.DoRemoveRevManaged
 0001:00002780       System.Generics.Collections.TListHelper.DoReverseInterface
 0001:00002790       System.Generics.Collections.TListHelper.InternalAdd8
 0001:000027A0       System.Generics.Collections.TListHelper.InternalAddManaged
 0001:000027B0       System.Generics.Collections.TListHelper.InternalClear8
 0001:000027C0       System.Generics.Collections.TListHelper.InternalClearManaged
 0001:000027D0       System.Generics.Collections.TListHelper.InternalClearMRef
 0001:000027E0       System.Generics.Collections.TListHelper.InternalDeleteRange8
 0001:000027F0       System.Generics.Collections.TListHelper.InternalDeleteRangeManaged
 0001:00002800       System.Generics.Collections.TListHelper.InternalDeleteRangeMRef
 0001:00002810       System.Generics.Collections.TListHelper.InternalDoDelete8
 0001:00002820       System.Generics.Collections.TListHelper.InternalDoDeleteManaged
 0001:00002830       System.Generics.Collections.TListHelper.InternalDoDeleteMRef
 0001:00002840       System.Generics.Collections.TListHelper.InternalInsert8
 0001:00002850       System.Generics.Collections.TListHelper.InternalInsertManaged
 0001:00002860       System.Generics.Collections.TListHelper.InternalInsertRange8
 0001:00002870       System.Generics.Collections.TListHelper.InternalInsertRangeManaged
 0001:00002880       System.Generics.Collections.TListHelper.InternalMove8
 0001:00002890       System.Generics.Collections.TListHelper.InternalMoveMRef
 0001:000028A0       System.Generics.Collections.TListHelper.InternalMoveN
 0001:000028B0       System.Generics.Collections.TListHelper.InternalPack8
 0001:000028C0       System.Generics.Collections.TListHelper.InternalPackManaged
 0001:000028D0       System.Generics.Collections.TListHelper.InternalReverse8
 0001:000028E0       System.Generics.Collections.TListHelper.InternalReverseN
 0001:000028F0       System.Generics.Collections.TListHelper.InternalSetCapacity
 0001:00002900       System.Generics.Collections.TListHelper.InternalSetCount8
 0001:00002910       System.Generics.Collections.TListHelper.InternalSetCountManaged
 0001:00002920       System.Generics.Collections.TListHelper.InternalSetCountMRef
 0001:00002930       System.Generics.Collections.TListHelper.InternalToArray
 0001:00002940       System.Generics.Collections.TListHelper.InternalToArrayManaged
 0001:00002950       System.Generics.Collections.Finalization
 0001:00002960       System.Generics.Collections.System.Generics.Collections
 0001:00002970       System.Rtti.TValue.Destroy@
 0001:00002980       System.Rtti.TValue.Create@
 0001:00002990       System.Rtti.TRttiContext.Create
 0001:000029A0       System.Rtti.TRttiContext.GetType
 0001:000029B0       System.Rtti.Finalization
 0001:000029C0       System.Rtti.System.Rtti
 0001:000029D0       System.TimeSpan.TTimeSpan.Destroy@
 0001:000029E0       System.TimeSpan.TTimeSpan.Create@
 0001:000029F0       System.TimeSpan.Finalization
 0001:00002A00       System.TimeSpan.System.TimeSpan
 0001:00002A10       System.Diagnostics.Finalization
 0001:00002A20       System.Diagnostics.System.Diagnostics
 0001:00002A30       System.Classes.TObserverMapping.Create@
 0001:00002A40       System.Classes.TComponent.Destroy@
 0001:00002A50       System.Classes.TBinaryWriter.Create@
 0001:00002A60       System.Classes.TFieldsCache.Create@
 0001:00002A70       System.Classes.TFieldsCache.Destroy@
 0001:00002A80       System.Classes.TPersistent.Destroy
 0001:00002A90       System.Classes.TPersistent.Assign
 0001:00002AA0       System.Classes.TPersistent.AssignTo
 0001:00002AB0       System.Classes.TPersistent.DefineProperties
 0001:00002AC0       System.Classes.TInterfacedPersistent.AfterConstruction
 0001:00002AD0       System.Classes.TInterfacedPersistent._AddRef
 0001:00002AE0       System.Classes.TInterfacedPersistent._Release
 0001:00002AF0       System.Classes.TInterfacedPersistent.QueryInterface
 0001:00002B00       System.Classes.TStringList.Create
 0001:00002B10       System.Classes.TStream.SetPosition
 0001:00002B20       System.Classes.TThread.Create@
 0001:00002B30       System.Classes.TThread.Destroy@
 0001:00002B40       System.Classes.TComponent.Create@
 0001:00002B50       System.Classes.TBinaryWriter.Destroy@
 0001:00002B60       System.Classes.TLoginCredentialService.Create@
 0001:00002B70       System.Classes.TLoginCredentialService.Destroy@
 0001:00002B80       System.Classes.TObserverMapping.Destroy@
 0001:00002B90       System.Classes.TBaseAsyncResult.Create@
 0001:00002BA0       System.Classes.TBaseAsyncResult.Destroy@
 0001:00002BB0       System.Classes.Finalization
 0001:00002BC0       System.Classes.System.Classes
 0001:00002BD0       StrList.Finalization
 0001:00002BE0       StrList.StrList
 0001:00002BF0       Winapi.WinSock.Finalization
 0001:00002C00       Winapi.WinSock.Winapi.WinSock
 0001:00002C10       superobject.SO
 0001:00002C20       superobject.SO
 0001:00002C30       superobject.TSuperObjectHelper.ToJson
 0001:00002C40       superobject.Finalization
 0001:00002C50       superobject.superobject
 0001:00002C60       System.SyncObjs.Finalization
 0001:00002C70       System.SyncObjs.System.SyncObjs
 0001:00002C80       Winapi.Wincodec.Finalization
 0001:00002C90       Winapi.Wincodec.Winapi.Wincodec
 0001:00002CA0       Winapi.CommCtrl.Finalization
 0001:00002CB0       Winapi.CommCtrl.Winapi.CommCtrl
 0001:00002CC0       Winapi.Qos.Finalization
 0001:00002CD0       Winapi.Qos.Winapi.Qos
 0001:00002CE0       Winapi.Winsock2.Finalization
 0001:00002CF0       Winapi.Winsock2.Winapi.Winsock2
 0001:00002D00       Winapi.IpExport.Finalization
 0001:00002D10       Winapi.IpExport.Winapi.IpExport
 0001:00002D20       Winapi.ShellAPI.Finalization
 0001:00002D30       Winapi.ShellAPI.Winapi.ShellAPI
 0001:00002D40       Winapi.RegStr.Finalization
 0001:00002D50       Winapi.RegStr.Winapi.RegStr
 0001:00002D60       Winapi.WinInet.Finalization
 0001:00002D70       Winapi.WinInet.Winapi.WinInet
 0001:00002D80       Winapi.UrlMon.Finalization
 0001:00002D90       Winapi.UrlMon.Winapi.UrlMon
 0001:00002DA0       Winapi.ObjectArray.Finalization
 0001:00002DB0       Winapi.ObjectArray.Winapi.ObjectArray
 0001:00002DC0       Winapi.StructuredQueryCondition.Finalization
 0001:00002DD0       Winapi.StructuredQueryCondition.Winapi.StructuredQueryCondition
 0001:00002DE0       Winapi.PropSys.Finalization
 0001:00002DF0       Winapi.PropSys.Winapi.PropSys
 0001:00002E00       Winapi.MSXMLIntf.Finalization
 0001:00002E10       Winapi.MSXMLIntf.Winapi.MSXMLIntf
 0001:00002E20       Winapi.ShlObj.Finalization
 0001:00002E30       Winapi.ShlObj.Winapi.ShlObj
 0001:00002E40       Winapi.KnownFolders.Finalization
 0001:00002E50       Winapi.KnownFolders.Winapi.KnownFolders
 0001:00002E60       System.Masks.Finalization
 0001:00002E70       System.Masks.System.Masks
 0001:00002E80       System.StrUtils.RightStr
 0001:00002E90       System.StrUtils.Finalization
 0001:00002EA0       System.StrUtils.System.StrUtils
 0001:00002EB0       System.DateUtils.TTimeZone.Create@
 0001:00002EC0       System.DateUtils.TTimeZone.Destroy@
 0001:00002ED0       System.DateUtils.Finalization
 0001:00002EE0       System.DateUtils.System.DateUtils
 0001:00002EF0       System.IOUtils.TPath.Destroy@
 0001:00002F00       System.IOUtils.TPath.Create@
 0001:00002F10       System.IOUtils.Finalization
 0001:00002F20       System.IOUtils.System.IOUtils
 0001:00002F30       System.IniFiles.Finalization
 0001:00002F40       System.IniFiles.System.IniFiles
 0001:00002F50       System.Win.Registry.TRegistry.Destroy@
 0001:00002F60       System.Win.Registry.TRegistry.Create@
 0001:00002F70       System.Win.Registry.Finalization
 0001:00002F80       System.Win.Registry.System.Win.Registry
 0001:00002F90       System.UIConsts.Finalization
 0001:00002FA0       System.UIConsts.System.UIConsts
 0001:00002FB0       Vcl.Consts.Finalization
 0001:00002FC0       Vcl.Consts.Vcl.Consts
 0001:00002FD0       Vcl.Graphics.TWICImage.Create@
 0001:00002FE0       Vcl.Graphics.TWICImage.Destroy@
 0001:00002FF0       Vcl.Graphics.Finalization
 0001:00003000       Vcl.Graphics.Vcl.Graphics
 0001:00003010       Winapi.MultiMon.Finalization
 0001:00003020       Winapi.MultiMon.Winapi.MultiMon
 0001:00003030       System.Contnrs.Finalization
 0001:00003040       System.Contnrs.System.Contnrs
 0001:00003050       System.ImageList.Finalization
 0001:00003060       System.ImageList.System.ImageList
 0001:00003070       System.Messaging.TMessageManager.Create@
 0001:00003080       System.Messaging.TMessageManager.UnInitialize@
 0001:00003090       System.Messaging.Finalization
 0001:000030A0       System.Messaging.System.Messaging
 0001:000030B0       System.Actions.Finalization
 0001:000030C0       System.Actions.System.Actions
 0001:000030D0       Winapi.Imm.Finalization
 0001:000030E0       Winapi.Imm.Winapi.Imm
 0001:000030F0       Vcl.ActnList.Finalization
 0001:00003100       Vcl.ActnList.Vcl.ActnList
 0001:00003110       System.HelpIntfs.Finalization
 0001:00003120       System.HelpIntfs.System.HelpIntfs
 0001:00003130       Winapi.UxTheme.Finalization
 0001:00003140       Winapi.UxTheme.Winapi.UxTheme
 0001:00003150       Winapi.Dwmapi.Finalization
 0001:00003160       Winapi.Dwmapi.Winapi.Dwmapi
 0001:00003170       System.Win.Crtl.Finalization
 0001:00003180       System.Win.Crtl.System.Win.Crtl
 0001:00003190       System.ZLib.Finalization
 0001:000031A0       System.ZLib.System.ZLib
 0001:000031B0       Vcl.GraphUtil.Finalization
 0001:000031C0       Vcl.GraphUtil.Vcl.GraphUtil
 0001:000031D0       Vcl.StdCtrls.TCustomGroupBox.Create@
 0001:000031E0       Vcl.StdCtrls.TCustomGroupBox.Destroy@
 0001:000031F0       Vcl.StdCtrls.TCustomEdit.Create@
 0001:00003200       Vcl.StdCtrls.TCustomEdit.Destroy@
 0001:00003210       Vcl.StdCtrls.TCustomMemo.Create@
 0001:00003220       Vcl.StdCtrls.TCustomMemo.Destroy@
 0001:00003230       Vcl.StdCtrls.TCustomComboBox.Create@
 0001:00003240       Vcl.StdCtrls.TCustomComboBox.Destroy@
 0001:00003250       Vcl.StdCtrls.TCustomButton.Create@
 0001:00003260       Vcl.StdCtrls.TCustomButton.Destroy@
 0001:00003270       Vcl.StdCtrls.TCustomCheckBox.Create@
 0001:00003280       Vcl.StdCtrls.TCustomCheckBox.Destroy@
 0001:00003290       Vcl.StdCtrls.TRadioButton.Create@
 0001:000032A0       Vcl.StdCtrls.TRadioButton.Destroy@
 0001:000032B0       Vcl.StdCtrls.TCustomListBox.Create@
 0001:000032C0       Vcl.StdCtrls.TCustomListBox.Destroy@
 0001:000032D0       Vcl.StdCtrls.TScrollBar.Create@
 0001:000032E0       Vcl.StdCtrls.TScrollBar.Destroy@
 0001:000032F0       Vcl.StdCtrls.TCustomStaticText.Create@
 0001:00003300       Vcl.StdCtrls.TCustomStaticText.Destroy@
 0001:00003310       Vcl.StdCtrls.TGroupBox.Create@
 0001:00003320       Vcl.StdCtrls.TGroupBox.Destroy@
 0001:00003330       Vcl.StdCtrls.TEdit.Create@
 0001:00003340       Vcl.StdCtrls.TEdit.Destroy@
 0001:00003350       Vcl.StdCtrls.TMemo.Create@
 0001:00003360       Vcl.StdCtrls.TMemo.Destroy@
 0001:00003370       Vcl.StdCtrls.TComboBox.Create@
 0001:00003380       Vcl.StdCtrls.TComboBox.Destroy@
 0001:00003390       Vcl.StdCtrls.TButton.Create@
 0001:000033A0       Vcl.StdCtrls.TButton.Destroy@
 0001:000033B0       Vcl.StdCtrls.TCheckBox.Create@
 0001:000033C0       Vcl.StdCtrls.TCheckBox.Destroy@
 0001:000033D0       Vcl.StdCtrls.TListBox.Create@
 0001:000033E0       Vcl.StdCtrls.TListBox.Destroy@
 0001:000033F0       Vcl.StdCtrls.TStaticText.Create@
 0001:00003400       Vcl.StdCtrls.TStaticText.Destroy@
 0001:00003410       Vcl.StdCtrls.Finalization
 0001:00003420       Vcl.StdCtrls.Vcl.StdCtrls
 0001:00003430       System.MaskUtils.Finalization
 0001:00003440       System.MaskUtils.System.MaskUtils
 0001:00003450       Vcl.Clipbrd.Finalization
 0001:00003460       Vcl.Clipbrd.Vcl.Clipbrd
 0001:00003470       Vcl.Mask.Finalization
 0001:00003480       Vcl.Mask.Vcl.Mask
 0001:00003490       Winapi.CommDlg.Finalization
 0001:000034A0       Winapi.CommDlg.Winapi.CommDlg
 0001:000034B0       Winapi.WinSpool.Finalization
 0001:000034C0       Winapi.WinSpool.Winapi.WinSpool
 0001:000034D0       Vcl.Printers.Finalization
 0001:000034E0       Vcl.Printers.Vcl.Printers
 0001:000034F0       Winapi.RichEdit.Finalization
 0001:00003500       Winapi.RichEdit.Winapi.RichEdit
 0001:00003510       Vcl.ToolWin.Finalization
 0001:00003520       Vcl.ToolWin.Vcl.ToolWin
 0001:00003530       Vcl.ListActns.Finalization
 0001:00003540       Vcl.ListActns.Vcl.ListActns
 0001:00003550       Vcl.ComStrs.Finalization
 0001:00003560       Vcl.ComStrs.Vcl.ComStrs
 0001:00003570       Vcl.StdActns.Finalization
 0001:00003580       Vcl.StdActns.Vcl.StdActns
 0001:00003590       Vcl.ComCtrls.TCustomTabControl.Create@
 0001:000035A0       Vcl.ComCtrls.TCustomTabControl.Destroy@
 0001:000035B0       Vcl.ComCtrls.TTabControl.Create@
 0001:000035C0       Vcl.ComCtrls.TTabControl.Destroy@
 0001:000035D0       Vcl.ComCtrls.TCustomStatusBar.Create@
 0001:000035E0       Vcl.ComCtrls.TCustomStatusBar.Destroy@
 0001:000035F0       Vcl.ComCtrls.TCustomHeaderControl.Create@
 0001:00003600       Vcl.ComCtrls.TCustomHeaderControl.Destroy@
 0001:00003610       Vcl.ComCtrls.TCustomTreeView.Create@
 0001:00003620       Vcl.ComCtrls.TCustomTreeView.Destroy@
 0001:00003630       Vcl.ComCtrls.TTreeView.Create@
 0001:00003640       Vcl.ComCtrls.TTreeView.Destroy@
 0001:00003650       Vcl.ComCtrls.TTrackBar.Create@
 0001:00003660       Vcl.ComCtrls.TTrackBar.Destroy@
 0001:00003670       Vcl.ComCtrls.TProgressBar.Create@
 0001:00003680       Vcl.ComCtrls.TProgressBar.Destroy@
 0001:00003690       Vcl.ComCtrls.TCustomRichEdit.Create@
 0001:000036A0       Vcl.ComCtrls.TCustomRichEdit.Destroy@
 0001:000036B0       Vcl.ComCtrls.TRichEdit.Create@
 0001:000036C0       Vcl.ComCtrls.TRichEdit.Destroy@
 0001:000036D0       Vcl.ComCtrls.TCustomUpDown.Create@
 0001:000036E0       Vcl.ComCtrls.TCustomUpDown.Destroy@
 0001:000036F0       Vcl.ComCtrls.TUpDown.Create@
 0001:00003700       Vcl.ComCtrls.TUpDown.Destroy@
 0001:00003710       Vcl.ComCtrls.TCustomHotKey.Create@
 0001:00003720       Vcl.ComCtrls.TCustomHotKey.Destroy@
 0001:00003730       Vcl.ComCtrls.THotKey.Create@
 0001:00003740       Vcl.ComCtrls.THotKey.Destroy@
 0001:00003750       Vcl.ComCtrls.TCustomListView.Create@
 0001:00003760       Vcl.ComCtrls.TCustomListView.Destroy@
 0001:00003770       Vcl.ComCtrls.TListView.Create@
 0001:00003780       Vcl.ComCtrls.TListView.Destroy@
 0001:00003790       Vcl.ComCtrls.TToolBar.Create@
 0001:000037A0       Vcl.ComCtrls.TToolBar.Destroy@
 0001:000037B0       Vcl.ComCtrls.TCoolBar.Create@
 0001:000037C0       Vcl.ComCtrls.TCoolBar.Destroy@
 0001:000037D0       Vcl.ComCtrls.TDateTimePicker.Create@
 0001:000037E0       Vcl.ComCtrls.TDateTimePicker.Destroy@
 0001:000037F0       Vcl.ComCtrls.TPageScroller.Create@
 0001:00003800       Vcl.ComCtrls.TPageScroller.Destroy@
 0001:00003810       Vcl.ComCtrls.TCustomComboBoxEx.Create@
 0001:00003820       Vcl.ComCtrls.TCustomComboBoxEx.Destroy@
 0001:00003830       Vcl.ComCtrls.TComboBoxEx.Create@
 0001:00003840       Vcl.ComCtrls.TComboBoxEx.Destroy@
 0001:00003850       Vcl.ComCtrls.TStatusBar.Create@
 0001:00003860       Vcl.ComCtrls.TStatusBar.Destroy@
 0001:00003870       Vcl.ComCtrls.THeaderControl.Create@
 0001:00003880       Vcl.ComCtrls.THeaderControl.Destroy@
 0001:00003890       Vcl.ComCtrls.Finalization
 0001:000038A0       Vcl.ComCtrls.Vcl.ComCtrls
 0001:000038B0       System.WideStrUtils.Finalization
 0001:000038C0       System.WideStrUtils.System.WideStrUtils
 0001:000038D0       Winapi.Dlgs.Finalization
 0001:000038E0       Winapi.Dlgs.Winapi.Dlgs
 0001:000038F0       Vcl.Dialogs.Finalization
 0001:00003900       Vcl.Dialogs.Vcl.Dialogs
 0001:00003910       Vcl.ExtCtrls.TCustomPanel.Create@
 0001:00003920       Vcl.ExtCtrls.TCustomPanel.Destroy@
 0001:00003930       Vcl.ExtCtrls.TCustomCategoryPanelGroup.Create@
 0001:00003940       Vcl.ExtCtrls.TCustomCategoryPanelGroup.Destroy@
 0001:00003950       Vcl.ExtCtrls.TCategoryPanelGroup.Create@
 0001:00003960       Vcl.ExtCtrls.TCategoryPanelGroup.Destroy@
 0001:00003970       Vcl.ExtCtrls.TCustomLinkLabel.Create@
 0001:00003980       Vcl.ExtCtrls.TCustomLinkLabel.Destroy@
 0001:00003990       Vcl.ExtCtrls.TLinkLabel.Create@
 0001:000039A0       Vcl.ExtCtrls.TLinkLabel.Destroy@
 0001:000039B0       Vcl.ExtCtrls.Finalization
 0001:000039C0       Vcl.ExtCtrls.Vcl.ExtCtrls
 0001:000039D0       Vcl.Themes.TStyleManager.Destroy@
 0001:000039E0       Vcl.Themes.TStyleManager.Create@
 0001:000039F0       Vcl.Themes.TCustomStyleEngine.Create@
 0001:00003A00       Vcl.Themes.TCustomStyleEngine.Destroy@
 0001:00003A10       Vcl.Themes.Finalization
 0001:00003A20       Vcl.Themes.Vcl.Themes
 0001:00003A30       System.AnsiStrings.Finalization
 0001:00003A40       System.AnsiStrings.System.AnsiStrings
 0001:00003A50       System.Win.ComConst.Finalization
 0001:00003A60       System.Win.ComConst.System.Win.ComConst
 0001:00003A70       System.Win.ComObj.TComServerObject.Destroy@
 0001:00003A80       System.Win.ComObj.TComServerObject.Create@
 0001:00003A90       System.Win.ComObj.Finalization
 0001:00003AA0       System.Win.ComObj.System.Win.ComObj
 0001:00003AB0       System.Win.Taskbar.Finalization
 0001:00003AC0       System.Win.Taskbar.System.Win.Taskbar
 0001:00003AD0       System.Win.TaskbarCore.Finalization
 0001:00003AE0       System.Win.TaskbarCore.System.Win.TaskbarCore
 0001:00003AF0       Winapi.ShellScaling.Finalization
 0001:00003B00       Winapi.ShellScaling.Winapi.ShellScaling
 0001:00003B10       Winapi.FlatSB.Finalization
 0001:00003B20       Winapi.FlatSB.Winapi.FlatSB
 0001:00003B30       Vcl.Forms.TScrollBox.Create@
 0001:00003B40       Vcl.Forms.TScrollBox.Destroy@
 0001:00003B50       Vcl.Forms.TCustomForm.Create@
 0001:00003B60       Vcl.Forms.TCustomForm.Destroy@
 0001:00003B70       Vcl.Forms.TForm.Create@
 0001:00003B80       Vcl.Forms.TForm.Destroy@
 0001:00003B90       Vcl.Forms.Finalization
 0001:00003BA0       Vcl.Forms.Vcl.Forms
 0001:00003BB0       Vcl.ImgList.Finalization
 0001:00003BC0       Vcl.ImgList.Vcl.ImgList
 0001:00003BD0       Vcl.Menus.Finalization
 0001:00003BE0       Vcl.Menus.Vcl.Menus
 0001:00003BF0       Winapi.TpcShrd.Finalization
 0001:00003C00       Winapi.TpcShrd.Winapi.TpcShrd
 0001:00003C10       Winapi.MsCTF.InitMSCTF
 0001:00003C60       Winapi.MsCTF.DoneMSCTF
 0001:00003C80       Winapi.MsCTF.Finalization
 0001:00003CA0       Winapi.MsCTF.Winapi.MsCTF
 0001:00003CC0       Winapi.MsInkAut.Finalization
 0001:00003CD0       Winapi.MsInkAut.Winapi.MsInkAut
 0001:00003CE0       Winapi.PenInputPanel.Finalization
 0001:00003CF0       Winapi.PenInputPanel.Winapi.PenInputPanel
 0001:00003D00       Vcl.Controls.Finalization
 0001:00003D10       Vcl.Controls.Vcl.Controls
 0001:00003D20       Vcl.Imaging.pnglang.Finalization
 0001:00003D30       Vcl.Imaging.pnglang.Vcl.Imaging.pnglang
 0001:00003D40       Vcl.Imaging.pngimage.Finalization
 0001:00003D50       Vcl.Imaging.pngimage.Vcl.Imaging.pngimage
 0001:00003D60       System.WideStrings.Finalization
 0001:00003D70       System.WideStrings.System.WideStrings
 0001:00003D80       CSIdException.Finalization
 0001:00003D90       CSIdException.CSIdException
 0001:00003DA0       CSIdResourceStrings.Finalization
 0001:00003DB0       CSIdResourceStrings.CSIdResourceStrings
 0001:00003DC0       CSIdStreamVCL.Finalization
 0001:00003DD0       CSIdStreamVCL.CSIdStreamVCL
 0001:00003DE0       CSIdStream.Finalization
 0001:00003DF0       CSIdStream.CSIdStream
 0001:00003E00       CSIdGlobal.Finalization
 0001:00003E10       CSIdGlobal.CSIdGlobal
 0001:00003E20       CSIdWinsock2.Finalization
 0001:00003E30       CSIdWinsock2.CSIdWinsock2
 0001:00003E40       CSIdWship6.Finalization
 0001:00003E50       CSIdWship6.CSIdWship6
 0001:00003E60       CSIdStackConsts.Finalization
 0001:00003E70       CSIdStackConsts.CSIdStackConsts
 0001:00003E80       CSIdStackBSDBase.Finalization
 0001:00003E90       CSIdStackBSDBase.CSIdStackBSDBase
 0001:00003EA0       CSIdIDN.Finalization
 0001:00003EB0       CSIdIDN.CSIdIDN
 0001:00003EC0       Winapi.IpTypes.Finalization
 0001:00003ED0       Winapi.IpTypes.Winapi.IpTypes
 0001:00003EE0       Winapi.IpRtrMib.Finalization
 0001:00003EF0       Winapi.IpRtrMib.Winapi.IpRtrMib
 0001:00003F00       Winapi.IpHlpApi.Finalization
 0001:00003F10       Winapi.IpHlpApi.Winapi.IpHlpApi
 0001:00003F20       CSIdStackWindows.Finalization
 0001:00003F30       CSIdStackWindows.CSIdStackWindows
 0001:00003F40       CSIdStack.Finalization
 0001:00003F50       CSIdStack.CSIdStack
 0001:00003F60       CSIdExceptionCore.Finalization
 0001:00003F70       CSIdExceptionCore.CSIdExceptionCore
 0001:00003F80       CSIdBaseComponent.Finalization
 0001:00003F90       CSIdBaseComponent.CSIdBaseComponent
 0001:00003FA0       CSIdAntiFreezeBase.Finalization
 0001:00003FB0       CSIdAntiFreezeBase.CSIdAntiFreezeBase
 0001:00003FC0       CSIdResourceStringsCore.Finalization
 0001:00003FD0       CSIdResourceStringsCore.CSIdResourceStringsCore
 0001:00003FE0       CSIdBuffer.Finalization
 0001:00003FF0       CSIdBuffer.CSIdBuffer
 0001:00004000       CSIdComponent.Finalization
 0001:00004010       CSIdComponent.CSIdComponent
 0001:00004020       CSIdIntercept.Finalization
 0001:00004030       CSIdIntercept.CSIdIntercept
 0001:00004040       CSIdIOHandler.Finalization
 0001:00004050       CSIdIOHandler.CSIdIOHandler
 0001:00004060       CSIdSocketHandle.Finalization
 0001:00004070       CSIdSocketHandle.CSIdSocketHandle
 0001:00004080       CSIdCustomTransparentProxy.Finalization
 0001:00004090       CSIdCustomTransparentProxy.CSIdCustomTransparentProxy
 0001:000040A0       CSIdAssignedNumbers.Finalization
 0001:000040B0       CSIdAssignedNumbers.CSIdAssignedNumbers
 0001:000040C0       CSIdIPAddress.Finalization
 0001:000040D0       CSIdIPAddress.CSIdIPAddress
 0001:000040E0       CSIdIOHandlerStack.Finalization
 0001:000040F0       CSIdIOHandlerStack.CSIdIOHandlerStack
 0001:00004100       CSIdSocks.Finalization
 0001:00004110       CSIdSocks.CSIdSocks
 0001:00004120       CSIdIOHandlerSocket.Finalization
 0001:00004130       CSIdIOHandlerSocket.CSIdIOHandlerSocket
 0001:00004140       CSIdReply.Finalization
 0001:00004150       CSIdReply.CSIdReply
 0001:00004160       CSIdReplyRFC.Finalization
 0001:00004170       CSIdReplyRFC.CSIdReplyRFC
 0001:00004180       CSIdTCPConnection.Finalization
 0001:00004190       CSIdTCPConnection.CSIdTCPConnection
 0001:000041A0       CSIdTCPClient.Finalization
 0001:000041B0       CSIdTCPClient.CSIdTCPClient
 0001:000041C0       CodeSitePlatform.Finalization
 0001:000041D0       CodeSitePlatform.CodeSitePlatform
 0001:000041E0       CodeSiteMessage.Finalization
 0001:000041F0       CodeSiteMessage.CodeSiteMessage
 0001:00004200       CodeSiteProfiling.Finalization
 0001:00004210       CodeSiteProfiling.CodeSiteProfiling
 0001:00004220       CodeSiteLogging.TCodeSiteLogger.TraceMethod
 0001:00004230       CodeSiteLogging.Finalization
 0001:00004240       CodeSiteLogging.CodeSiteLogging
 0001:00004250       sdDebug.Finalization
 0001:00004260       sdDebug.sdDebug
 0001:00004270       sdStreams.Finalization
 0001:00004280       sdStreams.sdStreams
 0001:00004290       sdStringTable.Finalization
 0001:000042A0       sdStringTable.sdStringTable
 0001:000042B0       NativeXml.Finalization
 0001:000042C0       NativeXml.NativeXml
 0001:000042D0       System.VarCmplx.Finalization
 0001:000042E0       System.VarCmplx.System.VarCmplx
 0001:000042F0       System.ConvUtils.Finalization
 0001:00004300       System.ConvUtils.System.ConvUtils
 0001:00004310       System.VarConv.Finalization
 0001:00004320       System.VarConv.System.VarConv
 0001:00004330       DispWrap.Finalization
 0001:00004340       DispWrap.DispWrap
 0001:00004350       CfgVnt.Finalization
 0001:00004360       CfgVnt.CfgVnt
 0001:00004370       System.RegularExpressionsAPI.Finalization
 0001:00004380       System.RegularExpressionsAPI.System.RegularExpressionsAPI
 0001:00004390       System.RegularExpressionsConsts.Finalization
 0001:000043A0       System.RegularExpressionsConsts.System.RegularExpressionsConsts
 0001:000043B0       System.RegularExpressionsCore.Finalization
 0001:000043C0       System.RegularExpressionsCore.System.RegularExpressionsCore
 0001:000043D0       System.RegularExpressions.Finalization
 0001:000043E0       System.RegularExpressions.System.RegularExpressions
 0001:000043F0       SetupAPI.Finalization
 0001:00004400       SetupAPI.SetupAPI
 0001:00004410       Winapi.WinSvc.Finalization
 0001:00004420       Winapi.WinSvc.Winapi.WinSvc
 0001:00004430       Sockets2010.Finalization
 0001:00004440       Sockets2010.Sockets2010
 0001:00004450       uDES.Finalization
 0001:00004460       uDES.uDES
 0001:00004470       Winapi.TlHelp32.Finalization
 0001:00004480       Winapi.TlHelp32.Winapi.TlHelp32
 0001:00004490       fsLib.TRefCheckInterfacedPersistent.Destroy@
 0001:000044A0       fsLib.TRefCheckInterfacedPersistent.Create@
 0001:000044B0       fsLib.Json
 0001:000044C0       fsLib.Json
 0001:000044D0       fsLib.Finalization
 0001:000044E0       fsLib.fsLib
 0001:000044E8       uModuleLib..ENotFoundCEFRuntime
 0001:00004C00       uModuleLib.Finalization
 0001:00004C10       uModuleLib.uModuleLib
 0001:00004C20       Common.collections.Finalization
 0001:00004C30       Common.collections.Common.collections
 0001:00004C40       Common.util.TRttiUtils.Create@
 0001:00004C50       Common.util.TRttiUtils.Destroy@
 0001:00004C60       Common.util.Finalization
 0001:00004C70       Common.util.Common.util
 0001:00004C80       EventBus.Consts.Finalization
 0001:00004C90       EventBus.Consts.EventBus.Consts
 0001:00004CA0       EventBus.Event.Finalization
 0001:00004CB0       EventBus.Event.EventBus.Event
 0001:00004CC0       EventBus.Helper.TRttiHelper.Create@
 0001:00004CD0       EventBus.Helper.TRttiHelper.Destroy@
 0001:00004CE0       EventBus.Helper.Finalization
 0001:00004CF0       EventBus.Helper.EventBus.Helper
 0001:00004D00       EventBus.Handler.Finalization
 0001:00004D10       EventBus.Handler.EventBus.Handler
 0001:00004D20       EventBus.Util.TEventBuseService.Create@
 0001:00004D30       EventBus.Util.TEventBuseService.Destroy@
 0001:00004D40       EventBus.Util.Finalization
 0001:00004D50       EventBus.Util.EventBus.Util
 0001:00004D60       EventBus.Log.Finalization
 0001:00004D70       EventBus.Log.EventBus.Log
 0001:00004D80       EventBus.Core.Finalization
 0001:00004D90       EventBus.Core.EventBus.Core
 0001:00004DA0       EventBus.Intf.TBaseEvent.AfterConstruction
 0001:00004DB0       EventBus.Intf.TBaseEvent.Create
 0001:00004DC0       EventBus.Intf.TBaseEvent.Desc
 0001:00004DD0       EventBus.Intf.EventBusAttribute.Create
 0001:00004DE0       EventBus.Intf.SubscribeAttribute.Create
 0001:00004DF0       EventBus.Intf.Finalization
 0001:00004E00       EventBus.Intf.EventBus.Intf
 0001:00004E10       MVCFramework.beans.factory.Finalization
 0001:00004E20       MVCFramework.beans.factory.MVCFramework.beans.factory
 0001:00004E30       MVCFramework.context.event.Finalization
 0001:00004E40       MVCFramework.context.event.MVCFramework.context.event
 0001:00004E50       MVCFramework.core.annotation.Finalization
 0001:00004E60       MVCFramework.core.annotation.MVCFramework.core.annotation
 0001:00004E70       MVCFramework.servlet.Finalization
 0001:00004E80       MVCFramework.servlet.MVCFramework.servlet
 0001:00004E90       MVCFramework.stereotype.Finalization
 0001:00004EA0       MVCFramework.stereotype.MVCFramework.stereotype
 0001:00004EB0       MVCFramework.web.bind.annotation.Finalization
 0001:00004EC0       MVCFramework.web.bind.annotation.MVCFramework.web.bind.annotation
 0001:00004ED0       MVCFramework.util.Finalization
 0001:00004EE0       MVCFramework.util.MVCFramework.util
